	.file	"/tmp/4a373e0f-363c-4391-b408-6c6af6f4a33a.TMP"
	.section	.rodata,"a",@progbits
	.align	32
.LCPI0_0:
	.quad	4                       # 0x4
	.quad	5                       # 0x5
	.quad	6                       # 0x6
	.quad	7                       # 0x7
.LCPI0_1:
	.quad	0                       # 0x0
	.quad	1                       # 0x1
	.quad	2                       # 0x2
	.quad	3                       # 0x3
	.text
	.globl	flops_8
	.align	16, 0x90
	.type	flops_8,@function
flops_8:                                # @flops_8
.Ltmp3:
	.cfi_startproc
# BB#0:                                 # %entry
	pushq	%rbp
.Ltmp4:
	.cfi_def_cfa_offset 16
.Ltmp5:
	.cfi_offset %rbp, -16
	movq	%rsp, %rbp
.Ltmp6:
	.cfi_def_cfa_register %rbp
	andq	$-32, %rsp
	pushq	%r15
	pushq	%r14
	pushq	%r13
	pushq	%r12
	pushq	%rbx
	subq	$376, %rsp              # imm = 0x178
.Ltmp7:
	.cfi_offset %rbx, -56
.Ltmp8:
	.cfi_offset %r12, -48
.Ltmp9:
	.cfi_offset %r13, -40
.Ltmp10:
	.cfi_offset %r14, -32
.Ltmp11:
	.cfi_offset %r15, -24
	vmovss	28(%rdi), %xmm0
	vmovaps	%ymm0, 32(%rsp)         # 32-byte Spill
	movq	48(%rdi), %rax
	vmovss	24(%rdi), %xmm0
	vmovaps	%ymm0, 64(%rsp)         # 32-byte Spill
	movl	20(%rdi), %r12d
	movl	16(%rdi), %ecx
	movl	%ecx, 188(%rsp)         # 4-byte Spill
	movq	(%rdi), %r13
	movq	8(%rdi), %r9
	movq	(%rax), %rcx
	movq	%rcx, 120(%rsp)         # 8-byte Spill
	movq	8(%rax), %rax
	movq	%rax, 112(%rsp)         # 8-byte Spill
	movq	32(%rdi), %rax
	movq	56(%rax), %rdx
	movq	%rdx, 24(%rsp)          # 8-byte Spill
	movq	64(%rax), %rax
	movq	%rax, 176(%rsp)         # 8-byte Spill
	sarq	$3, %rdx
	testq	%rdx, %rdx
	je	.LBB0_7
# BB#1:                                 # %dim_1_vector_pre_head.i
	vmovdqa	.LCPI0_0(%rip), %ymm1
	vmovq	120(%rsp), %xmm0        # 8-byte Folded Reload
	vmovlhps	%xmm0, %xmm0, %xmm0 # xmm0 = xmm0[0,0]
	vpaddq	%xmm1, %xmm0, %xmm2
	vextractf128	$1, %ymm1, %xmm1
	vpsllq	$3, %xmm2, %xmm2
	vpaddq	%xmm1, %xmm0, %xmm1
	vpsllq	$3, %xmm1, %xmm3
	vmovaps	.LCPI0_1(%rip), %ymm1
	vextractf128	$1, %ymm1, %xmm4
	vpaddq	%xmm4, %xmm0, %xmm4
	vpsllq	$3, %xmm4, %xmm4
	vpshufd	$8, %xmm3, %xmm3        # xmm3 = xmm3[0,2,0,0]
	vpshufd	$8, %xmm2, %xmm5        # xmm5 = xmm2[0,2,0,0]
	vmovaps	32(%rsp), %ymm2         # 32-byte Reload
	vinsertf128	$1, %xmm2, %ymm2, %ymm2
	vmovlhps	%xmm3, %xmm5, %xmm3 # xmm3 = xmm5[0],xmm3[0]
	vpshufd	$8, %xmm4, %xmm4        # xmm4 = xmm4[0,2,0,0]
	vpaddq	%xmm1, %xmm0, %xmm0
	vpsllq	$3, %xmm0, %xmm0
	vpshufd	$8, %xmm0, %xmm0        # xmm0 = xmm0[0,2,0,0]
	vmovlhps	%xmm4, %xmm0, %xmm0 # xmm0 = xmm0[0],xmm4[0]
	vinsertf128	$1, %xmm3, %ymm0, %ymm0
	vmovaps	%ymm0, 128(%rsp)        # 32-byte Spill
	vpermilps	$0, %ymm2, %ymm3 # ymm3 = ymm2[0,0,0,0,4,4,4,4]
	vmovaps	64(%rsp), %ymm0         # 32-byte Reload
	vinsertf128	$1, %xmm0, %ymm0, %ymm0
	vpermilps	$0, %ymm0, %ymm4 # ymm4 = ymm0[0,0,0,0,4,4,4,4]
	xorl	%eax, %eax
	movq	112(%rsp), %rcx         # 8-byte Reload
	.align	16, 0x90
.LBB0_2:                                # %dim_0_vector_pre_head.i
                                        # =>This Loop Header: Depth=1
                                        #     Child Loop BB0_3 Depth 2
                                        #       Child Loop BB0_4 Depth 3
	movq	%rcx, 160(%rsp)         # 8-byte Spill
	movq	%rax, 168(%rsp)         # 8-byte Spill
	movl	%ecx, %eax
	imull	188(%rsp), %eax         # 4-byte Folded Reload
	vmovd	%eax, %xmm0
	vinsertf128	$1, %xmm0, %ymm0, %ymm0
	vpermilps	$0, %ymm0, %ymm0 # ymm0 = ymm0[0,0,0,0,4,4,4,4]
	vmovaps	128(%rsp), %ymm1        # 32-byte Reload
	vextractf128	$1, %ymm1, %xmm2
	vextractf128	$1, %ymm0, %xmm5
	vpaddd	%xmm1, %xmm0, %xmm1
	vpmovsxdq	%xmm1, %xmm0
	vmovd	%xmm0, %rcx
	vpextrq	$1, %xmm0, %rax
	subq	%rcx, %rax
	shlq	$3, %rax
	vmovd	%rax, %xmm6
	vmovlhps	%xmm6, %xmm6, %xmm6 # xmm6 = xmm6[0,0]
	vpaddd	%xmm2, %xmm5, %xmm5
	vpmovsxdq	%xmm5, %xmm2
	vmovhlps	%xmm5, %xmm5, %xmm5 # xmm5 = xmm5[1,1]
	vpmovsxdq	%xmm5, %xmm5
	vinsertf128	$1, %xmm6, %ymm6, %ymm6
	vmovaps	%ymm6, 192(%rsp)        # 32-byte Spill
	vinsertf128	$1, %xmm5, %ymm2, %ymm2
	vmovhlps	%xmm1, %xmm1, %xmm1 # xmm1 = xmm1[1,1]
	vpmovsxdq	%xmm1, %xmm1
	vinsertf128	$1, %xmm1, %ymm0, %ymm13
	xorl	%ebx, %ebx
	.align	16, 0x90
.LBB0_3:                                #   Parent Loop BB0_2 Depth=1
                                        # =>  This Loop Header: Depth=2
                                        #       Child Loop BB0_4 Depth 3
	vmovaps	%ymm2, 288(%rsp)        # 32-byte Spill
	vmovaps	%ymm13, 320(%rsp)       # 32-byte Spill
	vextractf128	$1, %ymm13, %xmm0
	vmovaps	%xmm0, 256(%rsp)        # 16-byte Spill
	vmovd	%xmm0, %r11
	vmovups	(%r13,%r11,4), %ymm8
	vextractf128	$1, %ymm2, %xmm1
	vmovaps	%xmm1, 272(%rsp)        # 16-byte Spill
	vmovd	%xmm1, %rcx
	vmovups	(%r13,%rcx,4), %ymm9
	vmovd	%xmm2, %rdi
	vmovd	%xmm13, %r14
	vperm2f128	$49, %ymm9, %ymm8, %ymm11 # ymm11 = ymm8[2,3],ymm9[2,3]
	vmovups	(%r13,%r14,4), %ymm10
	vmovups	(%r13,%rdi,4), %ymm12
	vpextrq	$1, %xmm0, %r10
	vmovups	(%r13,%r10,4), %ymm0
	vpextrq	$1, %xmm1, %r8
	vmovups	(%r13,%r8,4), %ymm1
	vperm2f128	$49, %ymm1, %ymm0, %ymm5 # ymm5 = ymm0[2,3],ymm1[2,3]
	vpextrq	$1, %xmm2, %rsi
	vperm2f128	$49, %ymm12, %ymm10, %ymm6 # ymm6 = ymm10[2,3],ymm12[2,3]
	vpextrq	$1, %xmm13, %r15
	vshufps	$-18, %ymm11, %ymm6, %ymm2 # ymm2 = ymm6[2,3],ymm11[2,3],ymm6[6,7],ymm11[6,7]
	vshufps	$68, %ymm11, %ymm6, %ymm11 # ymm11 = ymm6[0,1],ymm11[0,1],ymm6[4,5],ymm11[4,5]
	vmovups	(%r13,%r15,4), %ymm6
	vmovups	(%r13,%rsi,4), %ymm7
	vperm2f128	$49, %ymm7, %ymm6, %ymm13 # ymm13 = ymm6[2,3],ymm7[2,3]
	vshufps	$-18, %ymm5, %ymm13, %ymm14 # ymm14 = ymm13[2,3],ymm5[2,3],ymm13[6,7],ymm5[6,7]
	vshufps	$68, %ymm5, %ymm13, %ymm13 # ymm13 = ymm13[0,1],ymm5[0,1],ymm13[4,5],ymm5[4,5]
	vperm2f128	$32, %ymm1, %ymm0, %ymm1 # ymm1 = ymm0[0,1],ymm1[0,1]
	vperm2f128	$32, %ymm7, %ymm6, %ymm6 # ymm6 = ymm6[0,1],ymm7[0,1]
	vperm2f128	$32, %ymm9, %ymm8, %ymm9 # ymm9 = ymm8[0,1],ymm9[0,1]
	vmovsldup	%ymm14, %ymm7
	vperm2f128	$32, %ymm12, %ymm10, %ymm0 # ymm0 = ymm10[0,1],ymm12[0,1]
	vmovshdup	%ymm2, %ymm5
	vblendps	$170, %ymm14, %ymm5, %ymm12
	vshufps	$-18, %ymm1, %ymm6, %ymm5 # ymm5 = ymm6[2,3],ymm1[2,3],ymm6[6,7],ymm1[6,7]
	vblendps	$170, %ymm7, %ymm2, %ymm10
	vmovsldup	%ymm13, %ymm7
	vshufps	$68, %ymm1, %ymm6, %ymm1 # ymm1 = ymm6[0,1],ymm1[0,1],ymm6[4,5],ymm1[4,5]
	vmovshdup	%ymm11, %ymm2
	vblendps	$170, %ymm13, %ymm2, %ymm8
	vshufps	$-18, %ymm9, %ymm0, %ymm2 # ymm2 = ymm0[2,3],ymm9[2,3],ymm0[6,7],ymm9[6,7]
	vblendps	$170, %ymm7, %ymm11, %ymm11
	vmovshdup	%ymm2, %ymm6
	vblendps	$170, %ymm5, %ymm6, %ymm13
	vmovsldup	%ymm5, %ymm5
	testl	%r12d, %r12d
	vblendps	$170, %ymm5, %ymm2, %ymm15
	vmovsldup	%ymm1, %ymm2
	vshufps	$68, %ymm9, %ymm0, %ymm0 # ymm0 = ymm0[0,1],ymm9[0,1],ymm0[4,5],ymm9[4,5]
	vmovshdup	%ymm0, %ymm5
	vblendps	$170, %ymm1, %ymm5, %ymm14
	vblendps	$170, %ymm2, %ymm0, %ymm9
	movl	%r12d, %eax
	jle	.LBB0_5
	.align	16, 0x90
.LBB0_4:                                # %.lr.phvector_func.i
                                        #   Parent Loop BB0_2 Depth=1
                                        #     Parent Loop BB0_3 Depth=2
                                        # =>    This Inner Loop Header: Depth=3
	vmulps	%ymm3, %ymm8, %ymm0
	vsubps	%ymm0, %ymm4, %ymm0
	vmulps	%ymm3, %ymm0, %ymm0
	vsubps	%ymm0, %ymm4, %ymm1
	vmulps	%ymm3, %ymm9, %ymm0
	vsubps	%ymm0, %ymm4, %ymm0
	vmulps	%ymm3, %ymm1, %ymm2
	vmulps	%ymm3, %ymm12, %ymm1
	vsubps	%ymm1, %ymm4, %ymm1
	vmulps	%ymm3, %ymm1, %ymm1
	vsubps	%ymm1, %ymm4, %ymm9
	vmulps	%ymm3, %ymm15, %ymm1
	vsubps	%ymm2, %ymm4, %ymm2
	vmulps	%ymm3, %ymm0, %ymm0
	vmulps	%ymm3, %ymm13, %ymm5
	vsubps	%ymm5, %ymm4, %ymm5
	vmulps	%ymm3, %ymm5, %ymm5
	vsubps	%ymm5, %ymm4, %ymm6
	vsubps	%ymm0, %ymm4, %ymm5
	vmulps	%ymm3, %ymm2, %ymm0
	vmulps	%ymm3, %ymm11, %ymm2
	vsubps	%ymm2, %ymm4, %ymm2
	vmulps	%ymm3, %ymm2, %ymm8
	vsubps	%ymm0, %ymm4, %ymm0
	vsubps	%ymm1, %ymm4, %ymm2
	vmulps	%ymm3, %ymm9, %ymm9
	vmulps	%ymm3, %ymm6, %ymm11
	vmulps	%ymm3, %ymm5, %ymm5
	vmulps	%ymm3, %ymm14, %ymm1
	vsubps	%ymm1, %ymm4, %ymm1
	vmulps	%ymm3, %ymm1, %ymm1
	vsubps	%ymm1, %ymm4, %ymm1
	vmulps	%ymm3, %ymm1, %ymm1
	vsubps	%ymm5, %ymm4, %ymm6
	vsubps	%ymm11, %ymm4, %ymm5
	decl	%eax
	vsubps	%ymm9, %ymm4, %ymm12
	vmulps	%ymm3, %ymm5, %ymm11
	vmulps	%ymm3, %ymm2, %ymm2
	vmulps	%ymm3, %ymm0, %ymm0
	vsubps	%ymm0, %ymm4, %ymm5
	vsubps	%ymm8, %ymm4, %ymm0
	vmulps	%ymm3, %ymm6, %ymm8
	vsubps	%ymm1, %ymm4, %ymm9
	vmulps	%ymm3, %ymm12, %ymm1
	vsubps	%ymm1, %ymm4, %ymm1
	vmulps	%ymm3, %ymm1, %ymm1
	vsubps	%ymm1, %ymm4, %ymm1
	vmulps	%ymm3, %ymm1, %ymm1
	vsubps	%ymm1, %ymm4, %ymm1
	vmulps	%ymm3, %ymm1, %ymm6
	vmulps	%ymm3, %ymm5, %ymm5
	vsubps	%ymm8, %ymm4, %ymm1
	vmulps	%ymm3, %ymm1, %ymm1
	vsubps	%ymm1, %ymm4, %ymm1
	vsubps	%ymm2, %ymm4, %ymm2
	vmulps	%ymm3, %ymm2, %ymm13
	vmulps	%ymm3, %ymm1, %ymm1
	vmulps	%ymm3, %ymm0, %ymm8
	vsubps	%ymm5, %ymm4, %ymm0
	vsubps	%ymm6, %ymm4, %ymm2
	vsubps	%ymm11, %ymm4, %ymm5
	vmulps	%ymm3, %ymm5, %ymm5
	vsubps	%ymm5, %ymm4, %ymm5
	vmulps	%ymm3, %ymm5, %ymm5
	vsubps	%ymm5, %ymm4, %ymm5
	vmulps	%ymm3, %ymm5, %ymm11
	vmulps	%ymm3, %ymm2, %ymm12
	vmulps	%ymm3, %ymm0, %ymm2
	vsubps	%ymm1, %ymm4, %ymm14
	vmulps	%ymm3, %ymm9, %ymm0
	vsubps	%ymm13, %ymm4, %ymm1
	vmulps	%ymm3, %ymm10, %ymm5
	vsubps	%ymm5, %ymm4, %ymm5
	vmulps	%ymm3, %ymm5, %ymm5
	vsubps	%ymm5, %ymm4, %ymm5
	vmulps	%ymm3, %ymm5, %ymm5
	vsubps	%ymm5, %ymm4, %ymm5
	vmulps	%ymm3, %ymm5, %ymm9
	vmulps	%ymm3, %ymm1, %ymm6
	vsubps	%ymm0, %ymm4, %ymm0
	vmulps	%ymm3, %ymm0, %ymm0
	vsubps	%ymm0, %ymm4, %ymm0
	vmulps	%ymm3, %ymm14, %ymm13
	vsubps	%ymm2, %ymm4, %ymm1
	vsubps	%ymm12, %ymm4, %ymm5
	vsubps	%ymm11, %ymm4, %ymm10
	vsubps	%ymm6, %ymm4, %ymm2
	vmulps	%ymm3, %ymm2, %ymm2
	vsubps	%ymm2, %ymm4, %ymm2
	vmulps	%ymm3, %ymm2, %ymm2
	vsubps	%ymm9, %ymm4, %ymm6
	vmulps	%ymm3, %ymm10, %ymm7
	vsubps	%ymm7, %ymm4, %ymm7
	vmulps	%ymm3, %ymm7, %ymm7
	vsubps	%ymm7, %ymm4, %ymm12
	vmulps	%ymm3, %ymm5, %ymm9
	vmulps	%ymm3, %ymm1, %ymm10
	vsubps	%ymm13, %ymm4, %ymm11
	vmulps	%ymm3, %ymm0, %ymm13
	vsubps	%ymm8, %ymm4, %ymm0
	vmulps	%ymm3, %ymm6, %ymm1
	vsubps	%ymm1, %ymm4, %ymm1
	vmulps	%ymm3, %ymm1, %ymm1
	vsubps	%ymm1, %ymm4, %ymm1
	vmulps	%ymm3, %ymm1, %ymm1
	vsubps	%ymm2, %ymm4, %ymm2
	vmulps	%ymm3, %ymm2, %ymm2
	vmulps	%ymm3, %ymm0, %ymm0
	vsubps	%ymm0, %ymm4, %ymm0
	vmulps	%ymm3, %ymm0, %ymm0
	vsubps	%ymm0, %ymm4, %ymm0
	vsubps	%ymm2, %ymm4, %ymm14
	vsubps	%ymm1, %ymm4, %ymm15
	vsubps	%ymm13, %ymm4, %ymm8
	vmulps	%ymm3, %ymm12, %ymm1
	vsubps	%ymm1, %ymm4, %ymm1
	vmulps	%ymm3, %ymm1, %ymm1
	vmulps	%ymm3, %ymm11, %ymm2
	vsubps	%ymm2, %ymm4, %ymm2
	vmulps	%ymm3, %ymm2, %ymm2
	vsubps	%ymm2, %ymm4, %ymm11
	vsubps	%ymm1, %ymm4, %ymm2
	vsubps	%ymm10, %ymm4, %ymm10
	vsubps	%ymm9, %ymm4, %ymm1
	vmulps	%ymm3, %ymm15, %ymm5
	vmulps	%ymm3, %ymm14, %ymm6
	vmulps	%ymm3, %ymm0, %ymm0
	vsubps	%ymm0, %ymm4, %ymm0
	vmulps	%ymm3, %ymm0, %ymm0
	vsubps	%ymm0, %ymm4, %ymm0
	vmulps	%ymm3, %ymm0, %ymm0
	vsubps	%ymm0, %ymm4, %ymm0
	vmulps	%ymm3, %ymm0, %ymm12
	vsubps	%ymm6, %ymm4, %ymm0
	vsubps	%ymm5, %ymm4, %ymm13
	vmulps	%ymm3, %ymm1, %ymm1
	vmulps	%ymm3, %ymm10, %ymm5
	vmulps	%ymm3, %ymm2, %ymm2
	vmulps	%ymm3, %ymm11, %ymm6
	vmulps	%ymm3, %ymm8, %ymm7
	vsubps	%ymm7, %ymm4, %ymm7
	vmulps	%ymm3, %ymm7, %ymm7
	vsubps	%ymm7, %ymm4, %ymm7
	vmulps	%ymm3, %ymm7, %ymm7
	vsubps	%ymm7, %ymm4, %ymm8
	vsubps	%ymm6, %ymm4, %ymm11
	vsubps	%ymm2, %ymm4, %ymm10
	vsubps	%ymm5, %ymm4, %ymm9
	vsubps	%ymm1, %ymm4, %ymm2
	vmulps	%ymm3, %ymm13, %ymm13
	vmulps	%ymm3, %ymm0, %ymm0
	vsubps	%ymm12, %ymm4, %ymm1
	vmulps	%ymm3, %ymm1, %ymm1
	vsubps	%ymm1, %ymm4, %ymm1
	vmulps	%ymm3, %ymm1, %ymm1
	vsubps	%ymm1, %ymm4, %ymm1
	vmulps	%ymm3, %ymm1, %ymm1
	vsubps	%ymm1, %ymm4, %ymm5
	vsubps	%ymm0, %ymm4, %ymm0
	vmulps	%ymm3, %ymm0, %ymm0
	vsubps	%ymm0, %ymm4, %ymm1
	vsubps	%ymm13, %ymm4, %ymm12
	vmulps	%ymm3, %ymm5, %ymm5
	vmulps	%ymm3, %ymm2, %ymm0
	vsubps	%ymm0, %ymm4, %ymm0
	vmulps	%ymm3, %ymm0, %ymm0
	vmulps	%ymm3, %ymm9, %ymm9
	vmulps	%ymm3, %ymm10, %ymm10
	vmulps	%ymm3, %ymm11, %ymm11
	vmulps	%ymm3, %ymm8, %ymm8
	vsubps	%ymm5, %ymm4, %ymm2
	vmulps	%ymm3, %ymm2, %ymm2
	vmulps	%ymm3, %ymm1, %ymm1
	vsubps	%ymm1, %ymm4, %ymm1
	vmulps	%ymm3, %ymm1, %ymm1
	vsubps	%ymm1, %ymm4, %ymm1
	vmulps	%ymm3, %ymm1, %ymm1
	vsubps	%ymm1, %ymm4, %ymm1
	vsubps	%ymm2, %ymm4, %ymm5
	vsubps	%ymm0, %ymm4, %ymm0
	vmulps	%ymm3, %ymm12, %ymm2
	vsubps	%ymm2, %ymm4, %ymm2
	vmulps	%ymm3, %ymm2, %ymm2
	vsubps	%ymm2, %ymm4, %ymm2
	vmulps	%ymm3, %ymm2, %ymm2
	vsubps	%ymm2, %ymm4, %ymm2
	vmulps	%ymm3, %ymm2, %ymm2
	vmulps	%ymm3, %ymm0, %ymm13
	vsubps	%ymm11, %ymm4, %ymm12
	vmulps	%ymm3, %ymm5, %ymm5
	vmulps	%ymm3, %ymm1, %ymm0
	vsubps	%ymm10, %ymm4, %ymm1
	vsubps	%ymm9, %ymm4, %ymm6
	vmulps	%ymm3, %ymm6, %ymm6
	vsubps	%ymm6, %ymm4, %ymm6
	vmulps	%ymm3, %ymm6, %ymm6
	vsubps	%ymm6, %ymm4, %ymm10
	vmulps	%ymm3, %ymm1, %ymm11
	vsubps	%ymm0, %ymm4, %ymm0
	vmulps	%ymm3, %ymm12, %ymm1
	vsubps	%ymm5, %ymm4, %ymm12
	vsubps	%ymm13, %ymm4, %ymm6
	vsubps	%ymm2, %ymm4, %ymm5
	vsubps	%ymm8, %ymm4, %ymm2
	vmulps	%ymm3, %ymm2, %ymm2
	vsubps	%ymm2, %ymm4, %ymm2
	vmulps	%ymm3, %ymm2, %ymm2
	vsubps	%ymm2, %ymm4, %ymm2
	vmulps	%ymm3, %ymm2, %ymm2
	vmulps	%ymm3, %ymm5, %ymm5
	vsubps	%ymm1, %ymm4, %ymm14
	vmulps	%ymm3, %ymm6, %ymm1
	vsubps	%ymm1, %ymm4, %ymm1
	vmulps	%ymm3, %ymm1, %ymm9
	vmulps	%ymm3, %ymm12, %ymm8
	vmulps	%ymm3, %ymm0, %ymm13
	vsubps	%ymm11, %ymm4, %ymm11
	vmulps	%ymm3, %ymm10, %ymm1
	vmulps	%ymm3, %ymm14, %ymm0
	vsubps	%ymm5, %ymm4, %ymm5
	vmulps	%ymm3, %ymm5, %ymm5
	vsubps	%ymm5, %ymm4, %ymm5
	vmulps	%ymm3, %ymm5, %ymm5
	vsubps	%ymm5, %ymm4, %ymm5
	vsubps	%ymm2, %ymm4, %ymm2
	vmulps	%ymm3, %ymm2, %ymm12
	vsubps	%ymm0, %ymm4, %ymm0
	vsubps	%ymm1, %ymm4, %ymm14
	vmulps	%ymm3, %ymm5, %ymm1
	vsubps	%ymm1, %ymm4, %ymm1
	vmulps	%ymm3, %ymm1, %ymm2
	vmulps	%ymm3, %ymm11, %ymm1
	vsubps	%ymm2, %ymm4, %ymm2
	vsubps	%ymm13, %ymm4, %ymm5
	vmulps	%ymm3, %ymm5, %ymm5
	vsubps	%ymm5, %ymm4, %ymm5
	vmulps	%ymm3, %ymm5, %ymm5
	vsubps	%ymm5, %ymm4, %ymm10
	vmulps	%ymm3, %ymm2, %ymm11
	vsubps	%ymm8, %ymm4, %ymm8
	vsubps	%ymm9, %ymm4, %ymm9
	vsubps	%ymm1, %ymm4, %ymm2
	vmulps	%ymm3, %ymm14, %ymm1
	vmulps	%ymm3, %ymm0, %ymm0
	vsubps	%ymm12, %ymm4, %ymm5
	vmulps	%ymm3, %ymm5, %ymm5
	vsubps	%ymm5, %ymm4, %ymm5
	vmulps	%ymm3, %ymm5, %ymm5
	vsubps	%ymm5, %ymm4, %ymm5
	vmulps	%ymm3, %ymm5, %ymm5
	vsubps	%ymm5, %ymm4, %ymm5
	vsubps	%ymm0, %ymm4, %ymm0
	vmulps	%ymm3, %ymm0, %ymm12
	vsubps	%ymm1, %ymm4, %ymm14
	vmulps	%ymm3, %ymm5, %ymm0
	vsubps	%ymm0, %ymm4, %ymm0
	vmulps	%ymm3, %ymm0, %ymm0
	vmulps	%ymm3, %ymm2, %ymm1
	vsubps	%ymm0, %ymm4, %ymm0
	vsubps	%ymm11, %ymm4, %ymm2
	vmulps	%ymm3, %ymm10, %ymm5
	vsubps	%ymm5, %ymm4, %ymm5
	vmulps	%ymm3, %ymm5, %ymm5
	vmulps	%ymm3, %ymm9, %ymm6
	vsubps	%ymm6, %ymm4, %ymm6
	vmulps	%ymm3, %ymm6, %ymm9
	vsubps	%ymm5, %ymm4, %ymm10
	vmulps	%ymm3, %ymm2, %ymm11
	vmulps	%ymm3, %ymm0, %ymm13
	vmulps	%ymm3, %ymm8, %ymm0
	vsubps	%ymm1, %ymm4, %ymm1
	vmulps	%ymm3, %ymm14, %ymm2
	vsubps	%ymm12, %ymm4, %ymm5
	vmulps	%ymm3, %ymm5, %ymm5
	vsubps	%ymm5, %ymm4, %ymm5
	vmulps	%ymm3, %ymm5, %ymm5
	vsubps	%ymm5, %ymm4, %ymm5
	vmulps	%ymm3, %ymm5, %ymm5
	vsubps	%ymm5, %ymm4, %ymm5
	vsubps	%ymm2, %ymm4, %ymm8
	vmulps	%ymm3, %ymm5, %ymm2
	vsubps	%ymm2, %ymm4, %ymm2
	vmulps	%ymm3, %ymm2, %ymm2
	vmulps	%ymm3, %ymm1, %ymm1
	vsubps	%ymm1, %ymm4, %ymm14
	vsubps	%ymm2, %ymm4, %ymm2
	vsubps	%ymm0, %ymm4, %ymm15
	vsubps	%ymm13, %ymm4, %ymm1
	vsubps	%ymm11, %ymm4, %ymm5
	vmulps	%ymm3, %ymm10, %ymm6
	vsubps	%ymm9, %ymm4, %ymm0
	vmulps	%ymm3, %ymm0, %ymm0
	vsubps	%ymm0, %ymm4, %ymm0
	vmulps	%ymm3, %ymm0, %ymm0
	vsubps	%ymm0, %ymm4, %ymm0
	vmulps	%ymm3, %ymm0, %ymm0
	vsubps	%ymm0, %ymm4, %ymm0
	vsubps	%ymm6, %ymm4, %ymm11
	vmulps	%ymm3, %ymm5, %ymm12
	vmulps	%ymm3, %ymm1, %ymm13
	vmulps	%ymm3, %ymm15, %ymm9
	vmulps	%ymm3, %ymm2, %ymm5
	vmulps	%ymm3, %ymm14, %ymm1
	vmulps	%ymm3, %ymm8, %ymm2
	vsubps	%ymm2, %ymm4, %ymm2
	vmulps	%ymm3, %ymm2, %ymm2
	vsubps	%ymm2, %ymm4, %ymm2
	vmulps	%ymm3, %ymm2, %ymm2
	vsubps	%ymm2, %ymm4, %ymm2
	vmulps	%ymm3, %ymm2, %ymm2
	vsubps	%ymm1, %ymm4, %ymm1
	vsubps	%ymm5, %ymm4, %ymm5
	vmulps	%ymm3, %ymm0, %ymm0
	vsubps	%ymm0, %ymm4, %ymm0
	vsubps	%ymm9, %ymm4, %ymm6
	vmulps	%ymm3, %ymm6, %ymm6
	vsubps	%ymm6, %ymm4, %ymm6
	vmulps	%ymm3, %ymm6, %ymm8
	vmulps	%ymm3, %ymm0, %ymm9
	vmulps	%ymm3, %ymm5, %ymm10
	vsubps	%ymm13, %ymm4, %ymm13
	vsubps	%ymm12, %ymm4, %ymm12
	vmulps	%ymm3, %ymm11, %ymm11
	vmulps	%ymm3, %ymm1, %ymm0
	vsubps	%ymm2, %ymm4, %ymm1
	vmulps	%ymm3, %ymm1, %ymm1
	vsubps	%ymm1, %ymm4, %ymm1
	vmulps	%ymm3, %ymm1, %ymm1
	vsubps	%ymm1, %ymm4, %ymm1
	vmulps	%ymm3, %ymm1, %ymm1
	vsubps	%ymm1, %ymm4, %ymm1
	vsubps	%ymm0, %ymm4, %ymm0
	vmulps	%ymm3, %ymm1, %ymm1
	vsubps	%ymm1, %ymm4, %ymm1
	vmulps	%ymm3, %ymm1, %ymm1
	vsubps	%ymm1, %ymm4, %ymm1
	vsubps	%ymm11, %ymm4, %ymm2
	vmulps	%ymm3, %ymm2, %ymm2
	vsubps	%ymm2, %ymm4, %ymm5
	vmulps	%ymm3, %ymm1, %ymm1
	vmulps	%ymm3, %ymm12, %ymm2
	vsubps	%ymm2, %ymm4, %ymm11
	vmulps	%ymm3, %ymm13, %ymm12
	vsubps	%ymm1, %ymm4, %ymm2
	vsubps	%ymm10, %ymm4, %ymm10
	vsubps	%ymm9, %ymm4, %ymm9
	vsubps	%ymm8, %ymm4, %ymm1
	vmulps	%ymm3, %ymm5, %ymm5
	vmulps	%ymm3, %ymm0, %ymm0
	vsubps	%ymm0, %ymm4, %ymm0
	vmulps	%ymm3, %ymm0, %ymm0
	vsubps	%ymm0, %ymm4, %ymm0
	vmulps	%ymm3, %ymm0, %ymm0
	vsubps	%ymm0, %ymm4, %ymm0
	vmulps	%ymm3, %ymm0, %ymm0
	vsubps	%ymm5, %ymm4, %ymm13
	vmulps	%ymm3, %ymm1, %ymm1
	vmulps	%ymm3, %ymm9, %ymm5
	vmulps	%ymm3, %ymm10, %ymm6
	vsubps	%ymm12, %ymm4, %ymm8
	vmulps	%ymm3, %ymm2, %ymm2
	vmulps	%ymm3, %ymm11, %ymm7
	vsubps	%ymm7, %ymm4, %ymm7
	vmulps	%ymm3, %ymm7, %ymm7
	vsubps	%ymm7, %ymm4, %ymm7
	vmulps	%ymm3, %ymm7, %ymm9
	vsubps	%ymm2, %ymm4, %ymm10
	vsubps	%ymm6, %ymm4, %ymm11
	vsubps	%ymm5, %ymm4, %ymm14
	vsubps	%ymm1, %ymm4, %ymm1
	vmulps	%ymm3, %ymm13, %ymm2
	vsubps	%ymm0, %ymm4, %ymm0
	vmulps	%ymm3, %ymm0, %ymm0
	vsubps	%ymm0, %ymm4, %ymm0
	vmulps	%ymm3, %ymm0, %ymm0
	vsubps	%ymm0, %ymm4, %ymm0
	vmulps	%ymm3, %ymm0, %ymm0
	vsubps	%ymm0, %ymm4, %ymm0
	vsubps	%ymm2, %ymm4, %ymm2
	vmulps	%ymm3, %ymm2, %ymm2
	vmulps	%ymm3, %ymm1, %ymm1
	vsubps	%ymm1, %ymm4, %ymm1
	vmulps	%ymm3, %ymm1, %ymm1
	vsubps	%ymm1, %ymm4, %ymm12
	vsubps	%ymm2, %ymm4, %ymm13
	vmulps	%ymm3, %ymm0, %ymm0
	vmulps	%ymm3, %ymm14, %ymm2
	vmulps	%ymm3, %ymm11, %ymm1
	vmulps	%ymm3, %ymm10, %ymm5
	vsubps	%ymm9, %ymm4, %ymm6
	vmulps	%ymm3, %ymm8, %ymm7
	vsubps	%ymm7, %ymm4, %ymm7
	vmulps	%ymm3, %ymm7, %ymm7
	vsubps	%ymm7, %ymm4, %ymm7
	vmulps	%ymm3, %ymm7, %ymm7
	vsubps	%ymm7, %ymm4, %ymm7
	vmulps	%ymm3, %ymm7, %ymm8
	vmulps	%ymm3, %ymm6, %ymm10
	vsubps	%ymm5, %ymm4, %ymm11
	vsubps	%ymm1, %ymm4, %ymm9
	vsubps	%ymm2, %ymm4, %ymm1
	vsubps	%ymm0, %ymm4, %ymm0
	vmulps	%ymm3, %ymm13, %ymm5
	vmulps	%ymm3, %ymm12, %ymm2
	vsubps	%ymm2, %ymm4, %ymm2
	vmulps	%ymm3, %ymm2, %ymm2
	vsubps	%ymm2, %ymm4, %ymm2
	vmulps	%ymm3, %ymm2, %ymm2
	vsubps	%ymm2, %ymm4, %ymm2
	vmulps	%ymm3, %ymm2, %ymm2
	vsubps	%ymm5, %ymm4, %ymm5
	vmulps	%ymm3, %ymm0, %ymm6
	vmulps	%ymm3, %ymm1, %ymm0
	vsubps	%ymm0, %ymm4, %ymm0
	vmulps	%ymm3, %ymm0, %ymm0
	vsubps	%ymm0, %ymm4, %ymm0
	vmulps	%ymm3, %ymm0, %ymm0
	vmulps	%ymm3, %ymm9, %ymm9
	vsubps	%ymm6, %ymm4, %ymm13
	vmulps	%ymm3, %ymm11, %ymm1
	vmulps	%ymm3, %ymm5, %ymm5
	vsubps	%ymm5, %ymm4, %ymm5
	vmulps	%ymm3, %ymm5, %ymm5
	vsubps	%ymm5, %ymm4, %ymm11
	vsubps	%ymm2, %ymm4, %ymm12
	vsubps	%ymm10, %ymm4, %ymm2
	vsubps	%ymm8, %ymm4, %ymm8
	vsubps	%ymm1, %ymm4, %ymm1
	vmulps	%ymm3, %ymm1, %ymm1
	vsubps	%ymm1, %ymm4, %ymm1
	vmulps	%ymm3, %ymm1, %ymm1
	vsubps	%ymm1, %ymm4, %ymm1
	vmulps	%ymm3, %ymm13, %ymm5
	vsubps	%ymm0, %ymm4, %ymm6
	vmulps	%ymm3, %ymm8, %ymm0
	vsubps	%ymm0, %ymm4, %ymm0
	vmulps	%ymm3, %ymm0, %ymm0
	vsubps	%ymm0, %ymm4, %ymm0
	vmulps	%ymm3, %ymm0, %ymm0
	vsubps	%ymm0, %ymm4, %ymm0
	vmulps	%ymm3, %ymm2, %ymm2
	vmulps	%ymm3, %ymm6, %ymm8
	vsubps	%ymm5, %ymm4, %ymm10
	vmulps	%ymm3, %ymm1, %ymm13
	vmulps	%ymm3, %ymm12, %ymm12
	vsubps	%ymm9, %ymm4, %ymm9
	vmulps	%ymm3, %ymm11, %ymm1
	vsubps	%ymm1, %ymm4, %ymm1
	vmulps	%ymm3, %ymm1, %ymm1
	vsubps	%ymm1, %ymm4, %ymm1
	vsubps	%ymm2, %ymm4, %ymm2
	vmulps	%ymm3, %ymm1, %ymm1
	vsubps	%ymm1, %ymm4, %ymm1
	vmulps	%ymm3, %ymm1, %ymm1
	vmulps	%ymm3, %ymm0, %ymm0
	vsubps	%ymm0, %ymm4, %ymm0
	vmulps	%ymm3, %ymm0, %ymm0
	vsubps	%ymm0, %ymm4, %ymm0
	vsubps	%ymm12, %ymm4, %ymm5
	vmulps	%ymm3, %ymm5, %ymm11
	vmulps	%ymm3, %ymm0, %ymm14
	vsubps	%ymm1, %ymm4, %ymm0
	vsubps	%ymm13, %ymm4, %ymm13
	vmulps	%ymm3, %ymm10, %ymm1
	vsubps	%ymm8, %ymm4, %ymm5
	vmulps	%ymm3, %ymm2, %ymm2
	vmulps	%ymm3, %ymm9, %ymm6
	vsubps	%ymm6, %ymm4, %ymm6
	vmulps	%ymm3, %ymm6, %ymm6
	vsubps	%ymm6, %ymm4, %ymm6
	vmulps	%ymm3, %ymm6, %ymm6
	vsubps	%ymm6, %ymm4, %ymm6
	vmulps	%ymm3, %ymm6, %ymm12
	vsubps	%ymm2, %ymm4, %ymm2
	vmulps	%ymm3, %ymm5, %ymm15
	vsubps	%ymm1, %ymm4, %ymm1
	vmulps	%ymm3, %ymm13, %ymm5
	vmulps	%ymm3, %ymm0, %ymm0
	vsubps	%ymm14, %ymm4, %ymm6
	vsubps	%ymm11, %ymm4, %ymm7
	vmulps	%ymm3, %ymm7, %ymm7
	vsubps	%ymm7, %ymm4, %ymm7
	vmulps	%ymm3, %ymm7, %ymm7
	vsubps	%ymm7, %ymm4, %ymm7
	vmulps	%ymm3, %ymm7, %ymm8
	vmulps	%ymm3, %ymm6, %ymm9
	vsubps	%ymm0, %ymm4, %ymm10
	vsubps	%ymm5, %ymm4, %ymm0
	vmulps	%ymm3, %ymm1, %ymm13
	vsubps	%ymm15, %ymm4, %ymm11
	vmulps	%ymm3, %ymm2, %ymm1
	vsubps	%ymm12, %ymm4, %ymm2
	vmulps	%ymm3, %ymm2, %ymm2
	vsubps	%ymm2, %ymm4, %ymm2
	vmulps	%ymm3, %ymm2, %ymm2
	vsubps	%ymm2, %ymm4, %ymm2
	vmulps	%ymm3, %ymm2, %ymm2
	vsubps	%ymm2, %ymm4, %ymm2
	vsubps	%ymm1, %ymm4, %ymm1
	vmulps	%ymm3, %ymm1, %ymm1
	vmulps	%ymm3, %ymm2, %ymm6
	vmulps	%ymm3, %ymm11, %ymm2
	vsubps	%ymm2, %ymm4, %ymm11
	vsubps	%ymm13, %ymm4, %ymm13
	vmulps	%ymm3, %ymm0, %ymm2
	vmulps	%ymm3, %ymm10, %ymm10
	vsubps	%ymm9, %ymm4, %ymm5
	vsubps	%ymm6, %ymm4, %ymm6
	vsubps	%ymm8, %ymm4, %ymm0
	vmulps	%ymm3, %ymm0, %ymm0
	vsubps	%ymm0, %ymm4, %ymm7
	vsubps	%ymm1, %ymm4, %ymm0
	vmulps	%ymm3, %ymm0, %ymm0
	vsubps	%ymm0, %ymm4, %ymm0
	vmulps	%ymm3, %ymm7, %ymm14
	vmulps	%ymm3, %ymm6, %ymm1
	vmulps	%ymm3, %ymm5, %ymm5
	vsubps	%ymm5, %ymm4, %ymm5
	vmulps	%ymm3, %ymm5, %ymm12
	vsubps	%ymm10, %ymm4, %ymm9
	vsubps	%ymm2, %ymm4, %ymm10
	vmulps	%ymm3, %ymm13, %ymm2
	vmulps	%ymm3, %ymm11, %ymm8
	vsubps	%ymm1, %ymm4, %ymm1
	vmulps	%ymm3, %ymm1, %ymm1
	vsubps	%ymm1, %ymm4, %ymm1
	vmulps	%ymm3, %ymm1, %ymm1
	vsubps	%ymm1, %ymm4, %ymm1
	vsubps	%ymm14, %ymm4, %ymm5
	vmulps	%ymm3, %ymm5, %ymm5
	vmulps	%ymm3, %ymm0, %ymm0
	vsubps	%ymm0, %ymm4, %ymm0
	vmulps	%ymm3, %ymm0, %ymm0
	vsubps	%ymm0, %ymm4, %ymm13
	vsubps	%ymm5, %ymm4, %ymm14
	vmulps	%ymm3, %ymm1, %ymm1
	vsubps	%ymm12, %ymm4, %ymm0
	vsubps	%ymm2, %ymm4, %ymm2
	vmulps	%ymm3, %ymm2, %ymm2
	vsubps	%ymm2, %ymm4, %ymm2
	vmulps	%ymm3, %ymm2, %ymm2
	vsubps	%ymm2, %ymm4, %ymm11
	vmulps	%ymm3, %ymm0, %ymm0
	vmulps	%ymm3, %ymm10, %ymm12
	vsubps	%ymm1, %ymm4, %ymm1
	vmulps	%ymm3, %ymm9, %ymm5
	vmulps	%ymm3, %ymm14, %ymm2
	vmulps	%ymm3, %ymm13, %ymm6
	vsubps	%ymm6, %ymm4, %ymm6
	vsubps	%ymm8, %ymm4, %ymm7
	vmulps	%ymm3, %ymm7, %ymm7
	vsubps	%ymm7, %ymm4, %ymm7
	vmulps	%ymm3, %ymm7, %ymm9
	vmulps	%ymm3, %ymm6, %ymm10
	vsubps	%ymm2, %ymm4, %ymm2
	vsubps	%ymm5, %ymm4, %ymm13
	vsubps	%ymm12, %ymm4, %ymm8
	vmulps	%ymm3, %ymm1, %ymm1
	vsubps	%ymm1, %ymm4, %ymm1
	vsubps	%ymm0, %ymm4, %ymm0
	vmulps	%ymm3, %ymm11, %ymm5
	vsubps	%ymm5, %ymm4, %ymm5
	vmulps	%ymm3, %ymm5, %ymm5
	vsubps	%ymm5, %ymm4, %ymm5
	vmulps	%ymm3, %ymm5, %ymm5
	vsubps	%ymm5, %ymm4, %ymm5
	vmulps	%ymm3, %ymm5, %ymm12
	vmulps	%ymm3, %ymm0, %ymm0
	vmulps	%ymm3, %ymm1, %ymm11
	vmulps	%ymm3, %ymm13, %ymm13
	vmulps	%ymm3, %ymm2, %ymm5
	vsubps	%ymm10, %ymm4, %ymm2
	vsubps	%ymm9, %ymm4, %ymm1
	vmulps	%ymm3, %ymm1, %ymm1
	vsubps	%ymm1, %ymm4, %ymm1
	vmulps	%ymm3, %ymm1, %ymm1
	vsubps	%ymm1, %ymm4, %ymm1
	vmulps	%ymm3, %ymm1, %ymm1
	vsubps	%ymm1, %ymm4, %ymm1
	vmulps	%ymm3, %ymm2, %ymm2
	vsubps	%ymm5, %ymm4, %ymm5
	vsubps	%ymm13, %ymm4, %ymm9
	vsubps	%ymm11, %ymm4, %ymm10
	vsubps	%ymm0, %ymm4, %ymm11
	vmulps	%ymm3, %ymm8, %ymm8
	vsubps	%ymm12, %ymm4, %ymm0
	vmulps	%ymm3, %ymm0, %ymm0
	vsubps	%ymm0, %ymm4, %ymm0
	vmulps	%ymm3, %ymm0, %ymm0
	vmulps	%ymm3, %ymm5, %ymm13
	vsubps	%ymm2, %ymm4, %ymm2
	vmulps	%ymm3, %ymm1, %ymm1
	vsubps	%ymm1, %ymm4, %ymm1
	vmulps	%ymm3, %ymm1, %ymm1
	vsubps	%ymm1, %ymm4, %ymm1
	vmulps	%ymm3, %ymm1, %ymm1
	vsubps	%ymm1, %ymm4, %ymm1
	vmulps	%ymm3, %ymm1, %ymm1
	vmulps	%ymm3, %ymm2, %ymm2
	vsubps	%ymm2, %ymm4, %ymm12
	vsubps	%ymm1, %ymm4, %ymm2
	vsubps	%ymm13, %ymm4, %ymm13
	vsubps	%ymm0, %ymm4, %ymm1
	vmulps	%ymm3, %ymm11, %ymm0
	vmulps	%ymm3, %ymm10, %ymm5
	vmulps	%ymm3, %ymm9, %ymm6
	vsubps	%ymm6, %ymm4, %ymm6
	vmulps	%ymm3, %ymm6, %ymm6
	vsubps	%ymm6, %ymm4, %ymm6
	vmulps	%ymm3, %ymm6, %ymm6
	vsubps	%ymm6, %ymm4, %ymm6
	vmulps	%ymm3, %ymm6, %ymm10
	vsubps	%ymm5, %ymm4, %ymm11
	vsubps	%ymm0, %ymm4, %ymm0
	vmulps	%ymm3, %ymm1, %ymm9
	vmulps	%ymm3, %ymm13, %ymm13
	vmulps	%ymm3, %ymm2, %ymm5
	vmulps	%ymm3, %ymm12, %ymm1
	vsubps	%ymm8, %ymm4, %ymm2
	vmulps	%ymm3, %ymm2, %ymm2
	vsubps	%ymm2, %ymm4, %ymm2
	vmulps	%ymm3, %ymm2, %ymm2
	vsubps	%ymm2, %ymm4, %ymm2
	vmulps	%ymm3, %ymm2, %ymm2
	vsubps	%ymm2, %ymm4, %ymm2
	vsubps	%ymm1, %ymm4, %ymm1
	vsubps	%ymm5, %ymm4, %ymm6
	vsubps	%ymm13, %ymm4, %ymm8
	vsubps	%ymm9, %ymm4, %ymm5
	vmulps	%ymm3, %ymm5, %ymm5
	vmulps	%ymm3, %ymm0, %ymm9
	vsubps	%ymm5, %ymm4, %ymm0
	vmulps	%ymm3, %ymm0, %ymm5
	vmulps	%ymm3, %ymm11, %ymm12
	vsubps	%ymm10, %ymm4, %ymm0
	vmulps	%ymm3, %ymm8, %ymm10
	vmulps	%ymm3, %ymm6, %ymm6
	vmulps	%ymm3, %ymm1, %ymm8
	vmulps	%ymm3, %ymm2, %ymm11
	vsubps	%ymm6, %ymm4, %ymm1
	vmulps	%ymm3, %ymm1, %ymm1
	vsubps	%ymm1, %ymm4, %ymm1
	vmulps	%ymm3, %ymm1, %ymm2
	vsubps	%ymm5, %ymm4, %ymm5
	vsubps	%ymm10, %ymm4, %ymm1
	vmulps	%ymm3, %ymm1, %ymm1
	vsubps	%ymm1, %ymm4, %ymm1
	vmulps	%ymm3, %ymm1, %ymm1
	vmulps	%ymm3, %ymm0, %ymm6
	vmulps	%ymm3, %ymm5, %ymm0
	vsubps	%ymm0, %ymm4, %ymm5
	vsubps	%ymm2, %ymm4, %ymm2
	vsubps	%ymm12, %ymm4, %ymm0
	vmulps	%ymm3, %ymm0, %ymm0
	vsubps	%ymm0, %ymm4, %ymm0
	vsubps	%ymm9, %ymm4, %ymm10
	vsubps	%ymm6, %ymm4, %ymm9
	vmulps	%ymm3, %ymm2, %ymm2
	vmulps	%ymm3, %ymm5, %ymm5
	vsubps	%ymm1, %ymm4, %ymm6
	vsubps	%ymm11, %ymm4, %ymm1
	vmulps	%ymm3, %ymm1, %ymm1
	vsubps	%ymm1, %ymm4, %ymm1
	vmulps	%ymm3, %ymm1, %ymm1
	vsubps	%ymm1, %ymm4, %ymm1
	vmulps	%ymm3, %ymm1, %ymm1
	vsubps	%ymm8, %ymm4, %ymm8
	vmulps	%ymm3, %ymm6, %ymm6
	vsubps	%ymm5, %ymm4, %ymm5
	vsubps	%ymm2, %ymm4, %ymm2
	vmulps	%ymm3, %ymm2, %ymm7
	vmulps	%ymm3, %ymm0, %ymm0
	vsubps	%ymm0, %ymm4, %ymm0
	vmulps	%ymm3, %ymm0, %ymm0
	vsubps	%ymm0, %ymm4, %ymm2
	vsubps	%ymm7, %ymm4, %ymm12
	vmulps	%ymm3, %ymm5, %ymm5
	vsubps	%ymm6, %ymm4, %ymm6
	vsubps	%ymm1, %ymm4, %ymm0
	vmulps	%ymm3, %ymm0, %ymm1
	vmulps	%ymm3, %ymm10, %ymm0
	vsubps	%ymm0, %ymm4, %ymm0
	vmulps	%ymm3, %ymm0, %ymm0
	vsubps	%ymm0, %ymm4, %ymm0
	vsubps	%ymm1, %ymm4, %ymm11
	vmulps	%ymm3, %ymm6, %ymm1
	vsubps	%ymm5, %ymm4, %ymm5
	vmulps	%ymm3, %ymm12, %ymm6
	vmulps	%ymm3, %ymm2, %ymm2
	vmulps	%ymm3, %ymm9, %ymm7
	vsubps	%ymm7, %ymm4, %ymm7
	vmulps	%ymm3, %ymm7, %ymm7
	vsubps	%ymm7, %ymm4, %ymm7
	vmulps	%ymm3, %ymm7, %ymm7
	vsubps	%ymm7, %ymm4, %ymm9
	vsubps	%ymm2, %ymm4, %ymm10
	vsubps	%ymm6, %ymm4, %ymm2
	vmulps	%ymm3, %ymm5, %ymm13
	vsubps	%ymm1, %ymm4, %ymm1
	vmulps	%ymm3, %ymm11, %ymm5
	vmulps	%ymm3, %ymm0, %ymm0
	vmulps	%ymm3, %ymm8, %ymm6
	vsubps	%ymm6, %ymm4, %ymm6
	vmulps	%ymm3, %ymm6, %ymm6
	vsubps	%ymm6, %ymm4, %ymm6
	vmulps	%ymm3, %ymm6, %ymm6
	vsubps	%ymm6, %ymm4, %ymm6
	vmulps	%ymm3, %ymm6, %ymm12
	vsubps	%ymm0, %ymm4, %ymm0
	vsubps	%ymm5, %ymm4, %ymm14
	vmulps	%ymm3, %ymm1, %ymm1
	vsubps	%ymm13, %ymm4, %ymm5
	vmulps	%ymm3, %ymm2, %ymm2
	vmulps	%ymm3, %ymm10, %ymm6
	vsubps	%ymm6, %ymm4, %ymm6
	vmulps	%ymm3, %ymm6, %ymm6
	vsubps	%ymm6, %ymm4, %ymm6
	vmulps	%ymm3, %ymm6, %ymm6
	vmulps	%ymm3, %ymm9, %ymm11
	vsubps	%ymm6, %ymm4, %ymm10
	vsubps	%ymm2, %ymm4, %ymm8
	vmulps	%ymm3, %ymm5, %ymm9
	vsubps	%ymm1, %ymm4, %ymm13
	vmulps	%ymm3, %ymm14, %ymm2
	vmulps	%ymm3, %ymm0, %ymm0
	vsubps	%ymm12, %ymm4, %ymm1
	vmulps	%ymm3, %ymm1, %ymm1
	vsubps	%ymm1, %ymm4, %ymm1
	vmulps	%ymm3, %ymm1, %ymm1
	vsubps	%ymm1, %ymm4, %ymm1
	vmulps	%ymm3, %ymm1, %ymm1
	vsubps	%ymm1, %ymm4, %ymm5
	vsubps	%ymm0, %ymm4, %ymm0
	vmulps	%ymm3, %ymm0, %ymm0
	vsubps	%ymm0, %ymm4, %ymm0
	vmulps	%ymm3, %ymm0, %ymm0
	vsubps	%ymm0, %ymm4, %ymm1
	vmulps	%ymm3, %ymm5, %ymm14
	vsubps	%ymm2, %ymm4, %ymm12
	vsubps	%ymm11, %ymm4, %ymm11
	vmulps	%ymm3, %ymm10, %ymm0
	vmulps	%ymm3, %ymm13, %ymm2
	vsubps	%ymm2, %ymm4, %ymm2
	vmulps	%ymm3, %ymm2, %ymm2
	vsubps	%ymm2, %ymm4, %ymm13
	vsubps	%ymm0, %ymm4, %ymm0
	vsubps	%ymm9, %ymm4, %ymm2
	vmulps	%ymm3, %ymm8, %ymm5
	vsubps	%ymm14, %ymm4, %ymm8
	vmulps	%ymm3, %ymm1, %ymm1
	vsubps	%ymm1, %ymm4, %ymm1
	vmulps	%ymm3, %ymm1, %ymm1
	vsubps	%ymm1, %ymm4, %ymm1
	vmulps	%ymm3, %ymm1, %ymm1
	vsubps	%ymm1, %ymm4, %ymm1
	vmulps	%ymm3, %ymm1, %ymm6
	vmulps	%ymm3, %ymm8, %ymm15
	vmulps	%ymm3, %ymm12, %ymm10
	vsubps	%ymm5, %ymm4, %ymm1
	vmulps	%ymm3, %ymm1, %ymm1
	vsubps	%ymm1, %ymm4, %ymm1
	vmulps	%ymm3, %ymm2, %ymm12
	vmulps	%ymm3, %ymm0, %ymm14
	vmulps	%ymm3, %ymm13, %ymm9
	vmulps	%ymm3, %ymm11, %ymm8
	vsubps	%ymm6, %ymm4, %ymm0
	vmulps	%ymm3, %ymm0, %ymm0
	vsubps	%ymm0, %ymm4, %ymm0
	vmulps	%ymm3, %ymm0, %ymm0
	vsubps	%ymm0, %ymm4, %ymm0
	vmulps	%ymm3, %ymm0, %ymm0
	vsubps	%ymm0, %ymm4, %ymm2
	vmulps	%ymm3, %ymm1, %ymm0
	vsubps	%ymm0, %ymm4, %ymm1
	vsubps	%ymm15, %ymm4, %ymm0
	vmulps	%ymm3, %ymm0, %ymm0
	vsubps	%ymm0, %ymm4, %ymm0
	vmulps	%ymm3, %ymm0, %ymm0
	vmulps	%ymm3, %ymm1, %ymm1
	vmulps	%ymm3, %ymm2, %ymm5
	vsubps	%ymm14, %ymm4, %ymm6
	vsubps	%ymm12, %ymm4, %ymm2
	vsubps	%ymm10, %ymm4, %ymm7
	vmulps	%ymm3, %ymm7, %ymm7
	vsubps	%ymm7, %ymm4, %ymm7
	vmulps	%ymm3, %ymm7, %ymm7
	vsubps	%ymm7, %ymm4, %ymm7
	vmulps	%ymm3, %ymm7, %ymm10
	vmulps	%ymm3, %ymm2, %ymm2
	vmulps	%ymm3, %ymm6, %ymm11
	vsubps	%ymm5, %ymm4, %ymm13
	vsubps	%ymm1, %ymm4, %ymm1
	vsubps	%ymm0, %ymm4, %ymm0
	vsubps	%ymm9, %ymm4, %ymm5
	vmulps	%ymm3, %ymm5, %ymm5
	vsubps	%ymm5, %ymm4, %ymm5
	vmulps	%ymm3, %ymm5, %ymm5
	vsubps	%ymm5, %ymm4, %ymm5
	vmulps	%ymm3, %ymm5, %ymm5
	vsubps	%ymm5, %ymm4, %ymm9
	vmulps	%ymm3, %ymm0, %ymm0
	vmulps	%ymm3, %ymm1, %ymm12
	vmulps	%ymm3, %ymm13, %ymm1
	vsubps	%ymm11, %ymm4, %ymm5
	vsubps	%ymm2, %ymm4, %ymm2
	vsubps	%ymm10, %ymm4, %ymm6
	vsubps	%ymm8, %ymm4, %ymm7
	vmulps	%ymm3, %ymm7, %ymm7
	vsubps	%ymm7, %ymm4, %ymm7
	vmulps	%ymm3, %ymm7, %ymm7
	vsubps	%ymm7, %ymm4, %ymm10
	vmulps	%ymm3, %ymm6, %ymm11
	vmulps	%ymm3, %ymm2, %ymm2
	vmulps	%ymm3, %ymm5, %ymm13
	vsubps	%ymm1, %ymm4, %ymm1
	vsubps	%ymm12, %ymm4, %ymm5
	vsubps	%ymm0, %ymm4, %ymm6
	vmulps	%ymm3, %ymm9, %ymm0
	vsubps	%ymm0, %ymm4, %ymm0
	vmulps	%ymm3, %ymm0, %ymm0
	vsubps	%ymm0, %ymm4, %ymm0
	vmulps	%ymm3, %ymm0, %ymm0
	vsubps	%ymm0, %ymm4, %ymm0
	vmulps	%ymm3, %ymm0, %ymm0
	vmulps	%ymm3, %ymm6, %ymm8
	vmulps	%ymm3, %ymm5, %ymm9
	vmulps	%ymm3, %ymm1, %ymm12
	vsubps	%ymm13, %ymm4, %ymm13
	vsubps	%ymm2, %ymm4, %ymm1
	vsubps	%ymm11, %ymm4, %ymm5
	vmulps	%ymm3, %ymm10, %ymm2
	vsubps	%ymm2, %ymm4, %ymm2
	vmulps	%ymm3, %ymm2, %ymm2
	vsubps	%ymm2, %ymm4, %ymm2
	vmulps	%ymm3, %ymm2, %ymm2
	vsubps	%ymm2, %ymm4, %ymm2
	vmulps	%ymm3, %ymm2, %ymm2
	vmulps	%ymm3, %ymm5, %ymm10
	vmulps	%ymm3, %ymm1, %ymm11
	vsubps	%ymm0, %ymm4, %ymm0
	vmulps	%ymm3, %ymm0, %ymm1
	vmulps	%ymm3, %ymm13, %ymm0
	vsubps	%ymm0, %ymm4, %ymm0
	vmulps	%ymm3, %ymm0, %ymm0
	vsubps	%ymm1, %ymm4, %ymm1
	vsubps	%ymm12, %ymm4, %ymm6
	vsubps	%ymm2, %ymm4, %ymm2
	vmulps	%ymm3, %ymm2, %ymm2
	vsubps	%ymm2, %ymm4, %ymm2
	vmulps	%ymm3, %ymm2, %ymm2
	vsubps	%ymm9, %ymm4, %ymm9
	vsubps	%ymm8, %ymm4, %ymm5
	vmulps	%ymm3, %ymm6, %ymm6
	vsubps	%ymm6, %ymm4, %ymm6
	vmulps	%ymm3, %ymm6, %ymm12
	vmulps	%ymm3, %ymm1, %ymm1
	vsubps	%ymm0, %ymm4, %ymm0
	vmulps	%ymm3, %ymm0, %ymm0
	vsubps	%ymm11, %ymm4, %ymm6
	vsubps	%ymm10, %ymm4, %ymm10
	vmulps	%ymm3, %ymm5, %ymm5
	vsubps	%ymm5, %ymm4, %ymm5
	vmulps	%ymm3, %ymm5, %ymm8
	vsubps	%ymm1, %ymm4, %ymm5
	vsubps	%ymm12, %ymm4, %ymm11
	vmulps	%ymm3, %ymm9, %ymm9
	vsubps	%ymm2, %ymm4, %ymm1
	vmulps	%ymm3, %ymm10, %ymm10
	vmulps	%ymm3, %ymm6, %ymm2
	vsubps	%ymm2, %ymm4, %ymm2
	vmulps	%ymm3, %ymm2, %ymm2
	vsubps	%ymm2, %ymm4, %ymm14
	vmulps	%ymm3, %ymm11, %ymm11
	vmulps	%ymm3, %ymm5, %ymm13
	vsubps	%ymm0, %ymm4, %ymm2
	vsubps	%ymm10, %ymm4, %ymm5
	vmulps	%ymm3, %ymm1, %ymm0
	vsubps	%ymm0, %ymm4, %ymm0
	vmulps	%ymm3, %ymm0, %ymm0
	vsubps	%ymm0, %ymm4, %ymm0
	vmulps	%ymm3, %ymm0, %ymm10
	vsubps	%ymm9, %ymm4, %ymm0
	vsubps	%ymm8, %ymm4, %ymm1
	vmulps	%ymm3, %ymm5, %ymm5
	vsubps	%ymm5, %ymm4, %ymm5
	vmulps	%ymm3, %ymm5, %ymm5
	vsubps	%ymm5, %ymm4, %ymm5
	vmulps	%ymm3, %ymm5, %ymm9
	vmulps	%ymm3, %ymm2, %ymm12
	vmulps	%ymm3, %ymm14, %ymm2
	vmulps	%ymm3, %ymm1, %ymm8
	vsubps	%ymm13, %ymm4, %ymm1
	vmulps	%ymm3, %ymm1, %ymm1
	vsubps	%ymm1, %ymm4, %ymm1
	vsubps	%ymm11, %ymm4, %ymm5
	vmulps	%ymm3, %ymm5, %ymm5
	vmulps	%ymm3, %ymm0, %ymm0
	vsubps	%ymm0, %ymm4, %ymm0
	vmulps	%ymm3, %ymm0, %ymm0
	vsubps	%ymm0, %ymm4, %ymm0
	vsubps	%ymm5, %ymm4, %ymm13
	vmulps	%ymm3, %ymm1, %ymm5
	vsubps	%ymm10, %ymm4, %ymm1
	vsubps	%ymm2, %ymm4, %ymm2
	vmulps	%ymm3, %ymm2, %ymm2
	vsubps	%ymm2, %ymm4, %ymm2
	vmulps	%ymm3, %ymm2, %ymm2
	vsubps	%ymm2, %ymm4, %ymm2
	vmulps	%ymm3, %ymm2, %ymm11
	vsubps	%ymm12, %ymm4, %ymm10
	vmulps	%ymm3, %ymm1, %ymm1
	vsubps	%ymm5, %ymm4, %ymm2
	vmulps	%ymm3, %ymm13, %ymm5
	vmulps	%ymm3, %ymm0, %ymm0
	vsubps	%ymm0, %ymm4, %ymm0
	vsubps	%ymm9, %ymm4, %ymm6
	vmulps	%ymm3, %ymm6, %ymm6
	vsubps	%ymm6, %ymm4, %ymm6
	vmulps	%ymm3, %ymm6, %ymm9
	vmulps	%ymm3, %ymm0, %ymm12
	vsubps	%ymm5, %ymm4, %ymm0
	vmulps	%ymm3, %ymm2, %ymm2
	vsubps	%ymm1, %ymm4, %ymm1
	vmulps	%ymm3, %ymm10, %ymm5
	vsubps	%ymm5, %ymm4, %ymm5
	vmulps	%ymm3, %ymm5, %ymm5
	vsubps	%ymm5, %ymm4, %ymm5
	vmulps	%ymm3, %ymm5, %ymm10
	vsubps	%ymm11, %ymm4, %ymm11
	vsubps	%ymm8, %ymm4, %ymm8
	vmulps	%ymm3, %ymm1, %ymm1
	vsubps	%ymm1, %ymm4, %ymm1
	vmulps	%ymm3, %ymm1, %ymm1
	vsubps	%ymm1, %ymm4, %ymm1
	vmulps	%ymm3, %ymm1, %ymm13
	vsubps	%ymm2, %ymm4, %ymm1
	vmulps	%ymm3, %ymm0, %ymm0
	vsubps	%ymm12, %ymm4, %ymm2
	vmulps	%ymm3, %ymm2, %ymm2
	vsubps	%ymm2, %ymm4, %ymm2
	vsubps	%ymm9, %ymm4, %ymm5
	vmulps	%ymm3, %ymm5, %ymm5
	vsubps	%ymm5, %ymm4, %ymm12
	vmulps	%ymm3, %ymm2, %ymm2
	vsubps	%ymm0, %ymm4, %ymm14
	vmulps	%ymm3, %ymm1, %ymm1
	vsubps	%ymm13, %ymm4, %ymm0
	vmulps	%ymm3, %ymm11, %ymm5
	vsubps	%ymm10, %ymm4, %ymm6
	vmulps	%ymm3, %ymm6, %ymm6
	vsubps	%ymm6, %ymm4, %ymm6
	vmulps	%ymm3, %ymm6, %ymm6
	vsubps	%ymm6, %ymm4, %ymm6
	vmulps	%ymm3, %ymm6, %ymm6
	vsubps	%ymm6, %ymm4, %ymm9
	vsubps	%ymm5, %ymm4, %ymm10
	vmulps	%ymm3, %ymm0, %ymm0
	vsubps	%ymm1, %ymm4, %ymm13
	vmulps	%ymm3, %ymm14, %ymm1
	vsubps	%ymm2, %ymm4, %ymm5
	vmulps	%ymm3, %ymm12, %ymm6
	vmulps	%ymm3, %ymm8, %ymm2
	vsubps	%ymm2, %ymm4, %ymm2
	vmulps	%ymm3, %ymm2, %ymm2
	vsubps	%ymm2, %ymm4, %ymm2
	vmulps	%ymm3, %ymm2, %ymm2
	vsubps	%ymm2, %ymm4, %ymm2
	vmulps	%ymm3, %ymm2, %ymm2
	vsubps	%ymm6, %ymm4, %ymm11
	vmulps	%ymm3, %ymm5, %ymm12
	vsubps	%ymm1, %ymm4, %ymm6
	vmulps	%ymm3, %ymm13, %ymm5
	vsubps	%ymm0, %ymm4, %ymm0
	vmulps	%ymm3, %ymm0, %ymm0
	vmulps	%ymm3, %ymm10, %ymm8
	vsubps	%ymm0, %ymm4, %ymm0
	vmulps	%ymm3, %ymm0, %ymm0
	vsubps	%ymm0, %ymm4, %ymm0
	vmulps	%ymm3, %ymm9, %ymm1
	vsubps	%ymm5, %ymm4, %ymm5
	vmulps	%ymm3, %ymm6, %ymm9
	vsubps	%ymm12, %ymm4, %ymm6
	vmulps	%ymm3, %ymm6, %ymm13
	vmulps	%ymm3, %ymm11, %ymm6
	vsubps	%ymm2, %ymm4, %ymm2
	vmulps	%ymm3, %ymm2, %ymm2
	vsubps	%ymm2, %ymm4, %ymm2
	vmulps	%ymm3, %ymm2, %ymm10
	vsubps	%ymm9, %ymm4, %ymm12
	vmulps	%ymm3, %ymm5, %ymm2
	vsubps	%ymm1, %ymm4, %ymm1
	vsubps	%ymm6, %ymm4, %ymm5
	vmulps	%ymm3, %ymm5, %ymm5
	vsubps	%ymm5, %ymm4, %ymm9
	vmulps	%ymm3, %ymm0, %ymm0
	vsubps	%ymm0, %ymm4, %ymm0
	vsubps	%ymm13, %ymm4, %ymm11
	vsubps	%ymm8, %ymm4, %ymm8
	vmulps	%ymm3, %ymm1, %ymm1
	vsubps	%ymm1, %ymm4, %ymm1
	vmulps	%ymm3, %ymm1, %ymm1
	vsubps	%ymm1, %ymm4, %ymm1
	vmulps	%ymm3, %ymm1, %ymm1
	vsubps	%ymm1, %ymm4, %ymm14
	vsubps	%ymm2, %ymm4, %ymm1
	vmulps	%ymm3, %ymm0, %ymm2
	vmulps	%ymm3, %ymm12, %ymm0
	vsubps	%ymm0, %ymm4, %ymm0
	vsubps	%ymm10, %ymm4, %ymm5
	vmulps	%ymm3, %ymm5, %ymm5
	vsubps	%ymm5, %ymm4, %ymm5
	vmulps	%ymm3, %ymm5, %ymm10
	vmulps	%ymm3, %ymm0, %ymm0
	vsubps	%ymm2, %ymm4, %ymm13
	vmulps	%ymm3, %ymm1, %ymm1
	vmulps	%ymm3, %ymm14, %ymm5
	vmulps	%ymm3, %ymm11, %ymm2
	vmulps	%ymm3, %ymm9, %ymm6
	vsubps	%ymm6, %ymm4, %ymm6
	vmulps	%ymm3, %ymm6, %ymm6
	vsubps	%ymm6, %ymm4, %ymm6
	vmulps	%ymm3, %ymm6, %ymm6
	vsubps	%ymm6, %ymm4, %ymm6
	vmulps	%ymm3, %ymm6, %ymm9
	vsubps	%ymm2, %ymm4, %ymm2
	vsubps	%ymm5, %ymm4, %ymm12
	vsubps	%ymm1, %ymm4, %ymm1
	vmulps	%ymm3, %ymm13, %ymm5
	vsubps	%ymm0, %ymm4, %ymm0
	vsubps	%ymm10, %ymm4, %ymm6
	vmulps	%ymm3, %ymm6, %ymm6
	vmulps	%ymm3, %ymm8, %ymm7
	vsubps	%ymm7, %ymm4, %ymm7
	vmulps	%ymm3, %ymm7, %ymm7
	vsubps	%ymm7, %ymm4, %ymm8
	vsubps	%ymm6, %ymm4, %ymm11
	vmulps	%ymm3, %ymm0, %ymm0
	vsubps	%ymm5, %ymm4, %ymm13
	vmulps	%ymm3, %ymm1, %ymm1
	vmulps	%ymm3, %ymm12, %ymm5
	vmulps	%ymm3, %ymm2, %ymm2
	vsubps	%ymm9, %ymm4, %ymm6
	vmulps	%ymm3, %ymm6, %ymm6
	vsubps	%ymm6, %ymm4, %ymm6
	vmulps	%ymm3, %ymm6, %ymm6
	vsubps	%ymm6, %ymm4, %ymm6
	vmulps	%ymm3, %ymm6, %ymm6
	vsubps	%ymm6, %ymm4, %ymm10
	vsubps	%ymm2, %ymm4, %ymm9
	vsubps	%ymm5, %ymm4, %ymm2
	vsubps	%ymm1, %ymm4, %ymm12
	vmulps	%ymm3, %ymm13, %ymm14
	vsubps	%ymm0, %ymm4, %ymm1
	vmulps	%ymm3, %ymm11, %ymm5
	vmulps	%ymm3, %ymm8, %ymm0
	vsubps	%ymm0, %ymm4, %ymm0
	vmulps	%ymm3, %ymm0, %ymm0
	vsubps	%ymm0, %ymm4, %ymm0
	vmulps	%ymm3, %ymm0, %ymm0
	vsubps	%ymm0, %ymm4, %ymm0
	vmulps	%ymm3, %ymm0, %ymm0
	vsubps	%ymm5, %ymm4, %ymm13
	vmulps	%ymm3, %ymm1, %ymm1
	vsubps	%ymm14, %ymm4, %ymm5
	vmulps	%ymm3, %ymm12, %ymm6
	vmulps	%ymm3, %ymm2, %ymm2
	vmulps	%ymm3, %ymm9, %ymm7
	vsubps	%ymm7, %ymm4, %ymm7
	vmulps	%ymm3, %ymm7, %ymm7
	vsubps	%ymm7, %ymm4, %ymm7
	vmulps	%ymm3, %ymm7, %ymm8
	vsubps	%ymm2, %ymm4, %ymm9
	vmulps	%ymm3, %ymm10, %ymm10
	vsubps	%ymm6, %ymm4, %ymm11
	vmulps	%ymm3, %ymm5, %ymm12
	vsubps	%ymm1, %ymm4, %ymm1
	vmulps	%ymm3, %ymm13, %ymm2
	vsubps	%ymm0, %ymm4, %ymm0
	vmulps	%ymm3, %ymm0, %ymm0
	vsubps	%ymm0, %ymm4, %ymm0
	vmulps	%ymm3, %ymm0, %ymm0
	vsubps	%ymm0, %ymm4, %ymm0
	vmulps	%ymm3, %ymm0, %ymm0
	vsubps	%ymm0, %ymm4, %ymm5
	vsubps	%ymm2, %ymm4, %ymm0
	vmulps	%ymm3, %ymm5, %ymm2
	vsubps	%ymm2, %ymm4, %ymm2
	vmulps	%ymm3, %ymm2, %ymm2
	vmulps	%ymm3, %ymm1, %ymm1
	vsubps	%ymm1, %ymm4, %ymm1
	vmulps	%ymm3, %ymm1, %ymm13
	vsubps	%ymm2, %ymm4, %ymm2
	vsubps	%ymm12, %ymm4, %ymm5
	vmulps	%ymm3, %ymm11, %ymm1
	vsubps	%ymm1, %ymm4, %ymm1
	vmulps	%ymm3, %ymm1, %ymm1
	vsubps	%ymm1, %ymm4, %ymm1
	vmulps	%ymm3, %ymm1, %ymm12
	vsubps	%ymm10, %ymm4, %ymm11
	vmulps	%ymm3, %ymm9, %ymm1
	vmulps	%ymm3, %ymm5, %ymm5
	vmulps	%ymm3, %ymm0, %ymm0
	vsubps	%ymm0, %ymm4, %ymm0
	vmulps	%ymm3, %ymm0, %ymm0
	vsubps	%ymm5, %ymm4, %ymm10
	vsubps	%ymm8, %ymm4, %ymm8
	vmulps	%ymm3, %ymm2, %ymm2
	vsubps	%ymm2, %ymm4, %ymm2
	vsubps	%ymm13, %ymm4, %ymm9
	vmulps	%ymm3, %ymm2, %ymm2
	vsubps	%ymm1, %ymm4, %ymm1
	vmulps	%ymm3, %ymm1, %ymm1
	vsubps	%ymm1, %ymm4, %ymm1
	vmulps	%ymm3, %ymm1, %ymm1
	vsubps	%ymm1, %ymm4, %ymm1
	vmulps	%ymm3, %ymm1, %ymm1
	vmulps	%ymm3, %ymm11, %ymm11
	vsubps	%ymm2, %ymm4, %ymm2
	vsubps	%ymm12, %ymm4, %ymm5
	vsubps	%ymm0, %ymm4, %ymm0
	vmulps	%ymm3, %ymm0, %ymm0
	vsubps	%ymm0, %ymm4, %ymm0
	vmulps	%ymm3, %ymm0, %ymm0
	vsubps	%ymm0, %ymm4, %ymm0
	vmulps	%ymm3, %ymm0, %ymm0
	vsubps	%ymm0, %ymm4, %ymm13
	vmulps	%ymm3, %ymm5, %ymm0
	vmulps	%ymm3, %ymm2, %ymm2
	vsubps	%ymm1, %ymm4, %ymm1
	vmulps	%ymm3, %ymm1, %ymm1
	vmulps	%ymm3, %ymm10, %ymm5
	vsubps	%ymm5, %ymm4, %ymm5
	vmulps	%ymm3, %ymm5, %ymm5
	vsubps	%ymm5, %ymm4, %ymm10
	vsubps	%ymm1, %ymm4, %ymm12
	vsubps	%ymm2, %ymm4, %ymm2
	vsubps	%ymm0, %ymm4, %ymm0
	vmulps	%ymm3, %ymm9, %ymm1
	vsubps	%ymm11, %ymm4, %ymm5
	vmulps	%ymm3, %ymm13, %ymm6
	vmulps	%ymm3, %ymm8, %ymm7
	vsubps	%ymm7, %ymm4, %ymm7
	vmulps	%ymm3, %ymm7, %ymm7
	vsubps	%ymm7, %ymm4, %ymm7
	vmulps	%ymm3, %ymm7, %ymm7
	vsubps	%ymm7, %ymm4, %ymm9
	vsubps	%ymm6, %ymm4, %ymm6
	vmulps	%ymm3, %ymm5, %ymm11
	vsubps	%ymm1, %ymm4, %ymm1
	vmulps	%ymm3, %ymm1, %ymm1
	vsubps	%ymm1, %ymm4, %ymm8
	vmulps	%ymm3, %ymm0, %ymm0
	vmulps	%ymm3, %ymm2, %ymm13
	vmulps	%ymm3, %ymm12, %ymm1
	vmulps	%ymm3, %ymm10, %ymm5
	vsubps	%ymm11, %ymm4, %ymm2
	vmulps	%ymm3, %ymm6, %ymm6
	vsubps	%ymm6, %ymm4, %ymm6
	vmulps	%ymm3, %ymm6, %ymm6
	vsubps	%ymm6, %ymm4, %ymm6
	vmulps	%ymm3, %ymm6, %ymm6
	vmulps	%ymm3, %ymm9, %ymm7
	vsubps	%ymm7, %ymm4, %ymm9
	vmulps	%ymm3, %ymm2, %ymm11
	vsubps	%ymm6, %ymm4, %ymm2
	vsubps	%ymm5, %ymm4, %ymm12
	vsubps	%ymm1, %ymm4, %ymm1
	vsubps	%ymm13, %ymm4, %ymm5
	vsubps	%ymm0, %ymm4, %ymm0
	vmulps	%ymm3, %ymm8, %ymm6
	vsubps	%ymm6, %ymm4, %ymm6
	vmulps	%ymm3, %ymm6, %ymm6
	vsubps	%ymm6, %ymm4, %ymm6
	vmulps	%ymm3, %ymm6, %ymm6
	vsubps	%ymm6, %ymm4, %ymm6
	vmulps	%ymm3, %ymm6, %ymm10
	vmulps	%ymm3, %ymm0, %ymm0
	vmulps	%ymm3, %ymm5, %ymm13
	vmulps	%ymm3, %ymm1, %ymm1
	vmulps	%ymm3, %ymm12, %ymm8
	vsubps	%ymm11, %ymm4, %ymm12
	vmulps	%ymm3, %ymm2, %ymm2
	vmulps	%ymm3, %ymm9, %ymm5
	vsubps	%ymm5, %ymm4, %ymm5
	vmulps	%ymm3, %ymm5, %ymm5
	vsubps	%ymm5, %ymm4, %ymm5
	vmulps	%ymm3, %ymm5, %ymm5
	vsubps	%ymm5, %ymm4, %ymm5
	vsubps	%ymm2, %ymm4, %ymm2
	vmulps	%ymm3, %ymm2, %ymm2
	vsubps	%ymm2, %ymm4, %ymm9
	vsubps	%ymm1, %ymm4, %ymm11
	vsubps	%ymm13, %ymm4, %ymm2
	vsubps	%ymm0, %ymm4, %ymm1
	vsubps	%ymm10, %ymm4, %ymm6
	vmulps	%ymm3, %ymm5, %ymm5
	vmulps	%ymm3, %ymm12, %ymm0
	vsubps	%ymm0, %ymm4, %ymm0
	vmulps	%ymm3, %ymm0, %ymm0
	vsubps	%ymm0, %ymm4, %ymm0
	vmulps	%ymm3, %ymm0, %ymm0
	vsubps	%ymm8, %ymm4, %ymm12
	vsubps	%ymm5, %ymm4, %ymm5
	vmulps	%ymm3, %ymm6, %ymm13
	vmulps	%ymm3, %ymm1, %ymm1
	vsubps	%ymm1, %ymm4, %ymm1
	vmulps	%ymm3, %ymm1, %ymm1
	vsubps	%ymm1, %ymm4, %ymm8
	vmulps	%ymm3, %ymm2, %ymm10
	vmulps	%ymm3, %ymm11, %ymm11
	vmulps	%ymm3, %ymm9, %ymm6
	vsubps	%ymm13, %ymm4, %ymm9
	vmulps	%ymm3, %ymm5, %ymm1
	vsubps	%ymm1, %ymm4, %ymm1
	vmulps	%ymm3, %ymm1, %ymm5
	vmulps	%ymm3, %ymm12, %ymm1
	vsubps	%ymm1, %ymm4, %ymm2
	vsubps	%ymm0, %ymm4, %ymm1
	vsubps	%ymm5, %ymm4, %ymm5
	vmulps	%ymm3, %ymm9, %ymm12
	vsubps	%ymm6, %ymm4, %ymm0
	vmulps	%ymm3, %ymm0, %ymm0
	vsubps	%ymm0, %ymm4, %ymm0
	vmulps	%ymm3, %ymm0, %ymm9
	vsubps	%ymm11, %ymm4, %ymm0
	vsubps	%ymm10, %ymm4, %ymm10
	vmulps	%ymm3, %ymm8, %ymm6
	vsubps	%ymm12, %ymm4, %ymm8
	vmulps	%ymm3, %ymm5, %ymm12
	vmulps	%ymm3, %ymm1, %ymm1
	vsubps	%ymm1, %ymm4, %ymm1
	vmulps	%ymm3, %ymm1, %ymm1
	vsubps	%ymm1, %ymm4, %ymm11
	vmulps	%ymm3, %ymm2, %ymm5
	vsubps	%ymm12, %ymm4, %ymm1
	vmulps	%ymm3, %ymm8, %ymm12
	vsubps	%ymm6, %ymm4, %ymm2
	vmulps	%ymm3, %ymm2, %ymm2
	vsubps	%ymm2, %ymm4, %ymm2
	vmulps	%ymm3, %ymm2, %ymm8
	vmulps	%ymm3, %ymm10, %ymm10
	vmulps	%ymm3, %ymm0, %ymm0
	vsubps	%ymm9, %ymm4, %ymm2
	vsubps	%ymm12, %ymm4, %ymm6
	vsubps	%ymm5, %ymm4, %ymm9
	vmulps	%ymm3, %ymm1, %ymm1
	vsubps	%ymm1, %ymm4, %ymm1
	vmulps	%ymm3, %ymm1, %ymm5
	vmulps	%ymm3, %ymm11, %ymm1
	vsubps	%ymm1, %ymm4, %ymm1
	vmulps	%ymm3, %ymm1, %ymm1
	vsubps	%ymm1, %ymm4, %ymm1
	vsubps	%ymm5, %ymm4, %ymm13
	vmulps	%ymm3, %ymm6, %ymm5
	vmulps	%ymm3, %ymm2, %ymm2
	vsubps	%ymm2, %ymm4, %ymm2
	vsubps	%ymm0, %ymm4, %ymm0
	vmulps	%ymm3, %ymm0, %ymm0
	vsubps	%ymm0, %ymm4, %ymm11
	vsubps	%ymm10, %ymm4, %ymm12
	vmulps	%ymm3, %ymm2, %ymm10
	vsubps	%ymm5, %ymm4, %ymm5
	vsubps	%ymm8, %ymm4, %ymm8
	vmulps	%ymm3, %ymm13, %ymm2
	vmulps	%ymm3, %ymm1, %ymm0
	vmulps	%ymm3, %ymm9, %ymm1
	vsubps	%ymm1, %ymm4, %ymm1
	vmulps	%ymm3, %ymm1, %ymm1
	vsubps	%ymm1, %ymm4, %ymm1
	vmulps	%ymm3, %ymm1, %ymm13
	vsubps	%ymm0, %ymm4, %ymm0
	vsubps	%ymm2, %ymm4, %ymm2
	vmulps	%ymm3, %ymm5, %ymm1
	vmulps	%ymm3, %ymm12, %ymm12
	vsubps	%ymm10, %ymm4, %ymm5
	vmulps	%ymm3, %ymm5, %ymm5
	vmulps	%ymm3, %ymm11, %ymm6
	vsubps	%ymm6, %ymm4, %ymm6
	vmulps	%ymm3, %ymm6, %ymm6
	vsubps	%ymm6, %ymm4, %ymm6
	vmulps	%ymm3, %ymm6, %ymm6
	vsubps	%ymm6, %ymm4, %ymm6
	vmulps	%ymm3, %ymm6, %ymm9
	vsubps	%ymm5, %ymm4, %ymm10
	vsubps	%ymm1, %ymm4, %ymm11
	vmulps	%ymm3, %ymm2, %ymm14
	vmulps	%ymm3, %ymm0, %ymm0
	vmulps	%ymm3, %ymm8, %ymm1
	vsubps	%ymm13, %ymm4, %ymm2
	vmulps	%ymm3, %ymm2, %ymm2
	vsubps	%ymm2, %ymm4, %ymm2
	vmulps	%ymm3, %ymm2, %ymm2
	vsubps	%ymm2, %ymm4, %ymm2
	vmulps	%ymm3, %ymm2, %ymm2
	vsubps	%ymm2, %ymm4, %ymm2
	vsubps	%ymm1, %ymm4, %ymm1
	vmulps	%ymm3, %ymm1, %ymm13
	vsubps	%ymm12, %ymm4, %ymm8
	vmulps	%ymm3, %ymm2, %ymm1
	vsubps	%ymm1, %ymm4, %ymm5
	vsubps	%ymm0, %ymm4, %ymm0
	vmulps	%ymm3, %ymm0, %ymm0
	vsubps	%ymm0, %ymm4, %ymm0
	vmulps	%ymm3, %ymm0, %ymm0
	vsubps	%ymm0, %ymm4, %ymm0
	vmulps	%ymm3, %ymm0, %ymm1
	vsubps	%ymm14, %ymm4, %ymm2
	vmulps	%ymm3, %ymm5, %ymm5
	vmulps	%ymm3, %ymm11, %ymm0
	vsubps	%ymm0, %ymm4, %ymm0
	vmulps	%ymm3, %ymm0, %ymm0
	vsubps	%ymm0, %ymm4, %ymm0
	vmulps	%ymm3, %ymm0, %ymm0
	vsubps	%ymm5, %ymm4, %ymm11
	vmulps	%ymm3, %ymm10, %ymm14
	vmulps	%ymm3, %ymm2, %ymm5
	vsubps	%ymm1, %ymm4, %ymm1
	vsubps	%ymm9, %ymm4, %ymm2
	vsubps	%ymm13, %ymm4, %ymm6
	vmulps	%ymm3, %ymm6, %ymm6
	vsubps	%ymm6, %ymm4, %ymm6
	vmulps	%ymm3, %ymm6, %ymm6
	vsubps	%ymm6, %ymm4, %ymm12
	vmulps	%ymm3, %ymm2, %ymm2
	vmulps	%ymm3, %ymm1, %ymm10
	vsubps	%ymm5, %ymm4, %ymm1
	vsubps	%ymm14, %ymm4, %ymm5
	vmulps	%ymm3, %ymm11, %ymm6
	vsubps	%ymm0, %ymm4, %ymm0
	vmulps	%ymm3, %ymm0, %ymm0
	vsubps	%ymm0, %ymm4, %ymm0
	vmulps	%ymm3, %ymm0, %ymm0
	vsubps	%ymm0, %ymm4, %ymm0
	vmulps	%ymm3, %ymm0, %ymm0
	vsubps	%ymm0, %ymm4, %ymm11
	vsubps	%ymm6, %ymm4, %ymm0
	vmulps	%ymm3, %ymm5, %ymm5
	vmulps	%ymm3, %ymm1, %ymm9
	vsubps	%ymm10, %ymm4, %ymm10
	vsubps	%ymm2, %ymm4, %ymm2
	vmulps	%ymm3, %ymm12, %ymm6
	vmulps	%ymm3, %ymm8, %ymm1
	vsubps	%ymm1, %ymm4, %ymm1
	vmulps	%ymm3, %ymm1, %ymm1
	vsubps	%ymm1, %ymm4, %ymm1
	vmulps	%ymm3, %ymm1, %ymm12
	vsubps	%ymm5, %ymm4, %ymm1
	vmulps	%ymm3, %ymm1, %ymm1
	vsubps	%ymm6, %ymm4, %ymm5
	vmulps	%ymm3, %ymm5, %ymm5
	vsubps	%ymm5, %ymm4, %ymm5
	vmulps	%ymm3, %ymm5, %ymm8
	vmulps	%ymm3, %ymm0, %ymm14
	vmulps	%ymm3, %ymm11, %ymm0
	vmulps	%ymm3, %ymm2, %ymm5
	vsubps	%ymm1, %ymm4, %ymm1
	vmulps	%ymm3, %ymm1, %ymm1
	vsubps	%ymm1, %ymm4, %ymm1
	vmulps	%ymm3, %ymm1, %ymm1
	vsubps	%ymm1, %ymm4, %ymm13
	vmulps	%ymm3, %ymm10, %ymm2
	vsubps	%ymm9, %ymm4, %ymm1
	vsubps	%ymm5, %ymm4, %ymm5
	vsubps	%ymm12, %ymm4, %ymm6
	vmulps	%ymm3, %ymm6, %ymm6
	vsubps	%ymm6, %ymm4, %ymm6
	vmulps	%ymm3, %ymm6, %ymm6
	vsubps	%ymm6, %ymm4, %ymm11
	vsubps	%ymm0, %ymm4, %ymm12
	vmulps	%ymm3, %ymm5, %ymm0
	vsubps	%ymm14, %ymm4, %ymm6
	vmulps	%ymm3, %ymm1, %ymm1
	vsubps	%ymm1, %ymm4, %ymm1
	vmulps	%ymm3, %ymm1, %ymm1
	vsubps	%ymm1, %ymm4, %ymm9
	vsubps	%ymm2, %ymm4, %ymm10
	vsubps	%ymm8, %ymm4, %ymm8
	vmulps	%ymm3, %ymm13, %ymm5
	vmulps	%ymm3, %ymm6, %ymm1
	vsubps	%ymm1, %ymm4, %ymm1
	vmulps	%ymm3, %ymm1, %ymm1
	vsubps	%ymm1, %ymm4, %ymm1
	vmulps	%ymm3, %ymm1, %ymm1
	vsubps	%ymm1, %ymm4, %ymm2
	vsubps	%ymm0, %ymm4, %ymm1
	vsubps	%ymm5, %ymm4, %ymm6
	vmulps	%ymm3, %ymm12, %ymm5
	vmulps	%ymm3, %ymm11, %ymm0
	vsubps	%ymm0, %ymm4, %ymm0
	vmulps	%ymm3, %ymm0, %ymm0
	vsubps	%ymm0, %ymm4, %ymm0
	vmulps	%ymm3, %ymm0, %ymm0
	vsubps	%ymm0, %ymm4, %ymm0
	vsubps	%ymm5, %ymm4, %ymm5
	vmulps	%ymm3, %ymm6, %ymm6
	vmulps	%ymm3, %ymm1, %ymm1
	vsubps	%ymm1, %ymm4, %ymm11
	vmulps	%ymm3, %ymm2, %ymm14
	vmulps	%ymm3, %ymm10, %ymm1
	vsubps	%ymm6, %ymm4, %ymm2
	vmulps	%ymm3, %ymm2, %ymm10
	vmulps	%ymm3, %ymm9, %ymm6
	vmulps	%ymm3, %ymm5, %ymm2
	vsubps	%ymm2, %ymm4, %ymm2
	vmulps	%ymm3, %ymm2, %ymm2
	vsubps	%ymm2, %ymm4, %ymm2
	vmulps	%ymm3, %ymm2, %ymm13
	vmulps	%ymm3, %ymm0, %ymm2
	vmulps	%ymm3, %ymm8, %ymm5
	vsubps	%ymm6, %ymm4, %ymm8
	vsubps	%ymm1, %ymm4, %ymm0
	vmulps	%ymm3, %ymm0, %ymm0
	vsubps	%ymm0, %ymm4, %ymm0
	vmulps	%ymm3, %ymm0, %ymm9
	vsubps	%ymm10, %ymm4, %ymm12
	vsubps	%ymm14, %ymm4, %ymm0
	vmulps	%ymm3, %ymm11, %ymm6
	vmulps	%ymm3, %ymm8, %ymm8
	vsubps	%ymm5, %ymm4, %ymm1
	vmulps	%ymm3, %ymm1, %ymm1
	vsubps	%ymm1, %ymm4, %ymm1
	vmulps	%ymm3, %ymm1, %ymm1
	vsubps	%ymm1, %ymm4, %ymm10
	vsubps	%ymm2, %ymm4, %ymm1
	vsubps	%ymm13, %ymm4, %ymm5
	vsubps	%ymm8, %ymm4, %ymm2
	vsubps	%ymm6, %ymm4, %ymm6
	vmulps	%ymm3, %ymm6, %ymm6
	vsubps	%ymm6, %ymm4, %ymm6
	vmulps	%ymm3, %ymm6, %ymm6
	vsubps	%ymm6, %ymm4, %ymm8
	vmulps	%ymm3, %ymm0, %ymm11
	vmulps	%ymm3, %ymm12, %ymm0
	vmulps	%ymm3, %ymm2, %ymm2
	vsubps	%ymm9, %ymm4, %ymm6
	vmulps	%ymm3, %ymm5, %ymm5
	vmulps	%ymm3, %ymm1, %ymm1
	vsubps	%ymm1, %ymm4, %ymm1
	vmulps	%ymm3, %ymm1, %ymm1
	vsubps	%ymm1, %ymm4, %ymm1
	vmulps	%ymm3, %ymm1, %ymm9
	vmulps	%ymm3, %ymm10, %ymm12
	vsubps	%ymm5, %ymm4, %ymm1
	vmulps	%ymm3, %ymm6, %ymm5
	vsubps	%ymm2, %ymm4, %ymm6
	vsubps	%ymm0, %ymm4, %ymm0
	vmulps	%ymm3, %ymm0, %ymm0
	vsubps	%ymm0, %ymm4, %ymm0
	vmulps	%ymm3, %ymm0, %ymm0
	vsubps	%ymm0, %ymm4, %ymm10
	vsubps	%ymm11, %ymm4, %ymm0
	vmulps	%ymm3, %ymm8, %ymm2
	vmulps	%ymm3, %ymm6, %ymm13
	vsubps	%ymm5, %ymm4, %ymm11
	vsubps	%ymm12, %ymm4, %ymm8
	vmulps	%ymm3, %ymm1, %ymm1
	vsubps	%ymm1, %ymm4, %ymm1
	vmulps	%ymm3, %ymm1, %ymm1
	vsubps	%ymm1, %ymm4, %ymm1
	vsubps	%ymm9, %ymm4, %ymm5
	vmulps	%ymm3, %ymm5, %ymm5
	vsubps	%ymm5, %ymm4, %ymm5
	vmulps	%ymm3, %ymm5, %ymm5
	vsubps	%ymm5, %ymm4, %ymm6
	vsubps	%ymm13, %ymm4, %ymm9
	vsubps	%ymm2, %ymm4, %ymm12
	vmulps	%ymm3, %ymm1, %ymm5
	vmulps	%ymm3, %ymm0, %ymm0
	vsubps	%ymm0, %ymm4, %ymm0
	vmulps	%ymm3, %ymm0, %ymm0
	vsubps	%ymm0, %ymm4, %ymm2
	vmulps	%ymm3, %ymm10, %ymm1
	vsubps	%ymm5, %ymm4, %ymm5
	vmulps	%ymm3, %ymm6, %ymm0
	vmulps	%ymm3, %ymm11, %ymm6
	vsubps	%ymm6, %ymm4, %ymm6
	vmulps	%ymm3, %ymm6, %ymm6
	vsubps	%ymm6, %ymm4, %ymm6
	vmulps	%ymm3, %ymm6, %ymm6
	vsubps	%ymm6, %ymm4, %ymm6
	vmulps	%ymm3, %ymm6, %ymm10
	vsubps	%ymm0, %ymm4, %ymm0
	vmulps	%ymm3, %ymm5, %ymm11
	vsubps	%ymm1, %ymm4, %ymm1
	vmulps	%ymm3, %ymm2, %ymm2
	vmulps	%ymm3, %ymm12, %ymm6
	vmulps	%ymm3, %ymm9, %ymm5
	vsubps	%ymm5, %ymm4, %ymm5
	vmulps	%ymm3, %ymm5, %ymm7
	vmulps	%ymm3, %ymm8, %ymm5
	vsubps	%ymm5, %ymm4, %ymm5
	vmulps	%ymm3, %ymm5, %ymm5
	vsubps	%ymm7, %ymm4, %ymm9
	vsubps	%ymm6, %ymm4, %ymm6
	vmulps	%ymm3, %ymm6, %ymm8
	vsubps	%ymm2, %ymm4, %ymm2
	vmulps	%ymm3, %ymm1, %ymm13
	vsubps	%ymm11, %ymm4, %ymm11
	vmulps	%ymm3, %ymm0, %ymm1
	vsubps	%ymm10, %ymm4, %ymm6
	vmulps	%ymm3, %ymm9, %ymm0
	vsubps	%ymm0, %ymm4, %ymm0
	vsubps	%ymm5, %ymm4, %ymm5
	vmulps	%ymm3, %ymm5, %ymm5
	vsubps	%ymm5, %ymm4, %ymm5
	vmulps	%ymm3, %ymm5, %ymm9
	vmulps	%ymm3, %ymm0, %ymm0
	vmulps	%ymm3, %ymm6, %ymm12
	vsubps	%ymm1, %ymm4, %ymm1
	vmulps	%ymm3, %ymm11, %ymm5
	vsubps	%ymm13, %ymm4, %ymm6
	vmulps	%ymm3, %ymm2, %ymm2
	vsubps	%ymm2, %ymm4, %ymm2
	vmulps	%ymm3, %ymm2, %ymm2
	vsubps	%ymm2, %ymm4, %ymm2
	vsubps	%ymm8, %ymm4, %ymm7
	vmulps	%ymm3, %ymm7, %ymm8
	vmulps	%ymm3, %ymm2, %ymm10
	vmulps	%ymm3, %ymm6, %ymm2
	vsubps	%ymm5, %ymm4, %ymm11
	vmulps	%ymm3, %ymm1, %ymm1
	vsubps	%ymm12, %ymm4, %ymm5
	vsubps	%ymm0, %ymm4, %ymm0
	vsubps	%ymm9, %ymm4, %ymm6
	vmulps	%ymm3, %ymm6, %ymm6
	vsubps	%ymm6, %ymm4, %ymm6
	vmulps	%ymm3, %ymm6, %ymm6
	vsubps	%ymm6, %ymm4, %ymm6
	vmulps	%ymm3, %ymm6, %ymm6
	vsubps	%ymm6, %ymm4, %ymm9
	vmulps	%ymm3, %ymm0, %ymm0
	vmulps	%ymm3, %ymm5, %ymm14
	vsubps	%ymm1, %ymm4, %ymm1
	vmulps	%ymm3, %ymm11, %ymm5
	vsubps	%ymm2, %ymm4, %ymm2
	vsubps	%ymm10, %ymm4, %ymm6
	vsubps	%ymm8, %ymm4, %ymm7
	vmulps	%ymm3, %ymm7, %ymm7
	vsubps	%ymm7, %ymm4, %ymm7
	vmulps	%ymm3, %ymm7, %ymm7
	vsubps	%ymm7, %ymm4, %ymm7
	vmulps	%ymm3, %ymm7, %ymm8
	vmulps	%ymm3, %ymm6, %ymm11
	vmulps	%ymm3, %ymm2, %ymm13
	vsubps	%ymm5, %ymm4, %ymm12
	vmulps	%ymm3, %ymm1, %ymm2
	vsubps	%ymm14, %ymm4, %ymm5
	vsubps	%ymm0, %ymm4, %ymm0
	vmulps	%ymm3, %ymm9, %ymm1
	vsubps	%ymm1, %ymm4, %ymm1
	vmulps	%ymm3, %ymm1, %ymm1
	vsubps	%ymm1, %ymm4, %ymm1
	vmulps	%ymm3, %ymm1, %ymm1
	vsubps	%ymm1, %ymm4, %ymm1
	vmulps	%ymm3, %ymm1, %ymm6
	vmulps	%ymm3, %ymm0, %ymm0
	vsubps	%ymm0, %ymm4, %ymm1
	vmulps	%ymm3, %ymm5, %ymm5
	vsubps	%ymm6, %ymm4, %ymm0
	vsubps	%ymm2, %ymm4, %ymm2
	vmulps	%ymm3, %ymm2, %ymm2
	vsubps	%ymm2, %ymm4, %ymm9
	vmulps	%ymm3, %ymm0, %ymm10
	vmulps	%ymm3, %ymm12, %ymm12
	vsubps	%ymm13, %ymm4, %ymm13
	vsubps	%ymm11, %ymm4, %ymm0
	vsubps	%ymm8, %ymm4, %ymm2
	vsubps	%ymm5, %ymm4, %ymm5
	vmulps	%ymm3, %ymm1, %ymm1
	vsubps	%ymm1, %ymm4, %ymm1
	vmulps	%ymm3, %ymm1, %ymm1
	vsubps	%ymm1, %ymm4, %ymm1
	vmulps	%ymm3, %ymm1, %ymm1
	vsubps	%ymm1, %ymm4, %ymm1
	vmulps	%ymm3, %ymm1, %ymm6
	vmulps	%ymm3, %ymm5, %ymm1
	vsubps	%ymm1, %ymm4, %ymm1
	vmulps	%ymm3, %ymm2, %ymm5
	vsubps	%ymm6, %ymm4, %ymm2
	vmulps	%ymm3, %ymm2, %ymm2
	vmulps	%ymm3, %ymm0, %ymm0
	vsubps	%ymm0, %ymm4, %ymm8
	vmulps	%ymm3, %ymm13, %ymm13
	vsubps	%ymm2, %ymm4, %ymm11
	vsubps	%ymm12, %ymm4, %ymm2
	vsubps	%ymm10, %ymm4, %ymm12
	vmulps	%ymm3, %ymm9, %ymm0
	vsubps	%ymm5, %ymm4, %ymm5
	vmulps	%ymm3, %ymm1, %ymm1
	vsubps	%ymm1, %ymm4, %ymm1
	vmulps	%ymm3, %ymm1, %ymm1
	vsubps	%ymm1, %ymm4, %ymm1
	vmulps	%ymm3, %ymm1, %ymm1
	vsubps	%ymm1, %ymm4, %ymm1
	vmulps	%ymm3, %ymm1, %ymm1
	vmulps	%ymm3, %ymm5, %ymm10
	vsubps	%ymm1, %ymm4, %ymm1
	vsubps	%ymm0, %ymm4, %ymm0
	vmulps	%ymm3, %ymm0, %ymm0
	vsubps	%ymm0, %ymm4, %ymm0
	vmulps	%ymm3, %ymm12, %ymm14
	vmulps	%ymm3, %ymm2, %ymm2
	vsubps	%ymm13, %ymm4, %ymm9
	vmulps	%ymm3, %ymm1, %ymm1
	vsubps	%ymm1, %ymm4, %ymm5
	vmulps	%ymm3, %ymm11, %ymm6
	vmulps	%ymm3, %ymm8, %ymm1
	vsubps	%ymm1, %ymm4, %ymm1
	vmulps	%ymm3, %ymm1, %ymm1
	vsubps	%ymm1, %ymm4, %ymm1
	vmulps	%ymm3, %ymm1, %ymm1
	vsubps	%ymm1, %ymm4, %ymm1
	vsubps	%ymm6, %ymm4, %ymm11
	vsubps	%ymm2, %ymm4, %ymm8
	vmulps	%ymm3, %ymm5, %ymm12
	vsubps	%ymm14, %ymm4, %ymm6
	vmulps	%ymm3, %ymm0, %ymm0
	vsubps	%ymm10, %ymm4, %ymm2
	vmulps	%ymm3, %ymm2, %ymm2
	vsubps	%ymm2, %ymm4, %ymm2
	vmulps	%ymm3, %ymm2, %ymm2
	vsubps	%ymm2, %ymm4, %ymm2
	vmulps	%ymm3, %ymm2, %ymm2
	vmulps	%ymm3, %ymm1, %ymm5
	vsubps	%ymm0, %ymm4, %ymm10
	vmulps	%ymm3, %ymm6, %ymm1
	vmulps	%ymm3, %ymm9, %ymm0
	vsubps	%ymm0, %ymm4, %ymm0
	vmulps	%ymm3, %ymm0, %ymm0
	vsubps	%ymm0, %ymm4, %ymm9
	vsubps	%ymm12, %ymm4, %ymm0
	vmulps	%ymm3, %ymm11, %ymm12
	vsubps	%ymm1, %ymm4, %ymm1
	vmulps	%ymm3, %ymm10, %ymm6
	vsubps	%ymm5, %ymm4, %ymm5
	vmulps	%ymm3, %ymm5, %ymm5
	vsubps	%ymm5, %ymm4, %ymm5
	vmulps	%ymm3, %ymm5, %ymm5
	vsubps	%ymm5, %ymm4, %ymm5
	vsubps	%ymm2, %ymm4, %ymm2
	vmulps	%ymm3, %ymm2, %ymm10
	vsubps	%ymm6, %ymm4, %ymm2
	vmulps	%ymm3, %ymm5, %ymm11
	vmulps	%ymm3, %ymm1, %ymm1
	vmulps	%ymm3, %ymm8, %ymm8
	vsubps	%ymm12, %ymm4, %ymm5
	vmulps	%ymm3, %ymm5, %ymm5
	vmulps	%ymm3, %ymm0, %ymm0
	vmulps	%ymm3, %ymm9, %ymm6
	vsubps	%ymm6, %ymm4, %ymm6
	vmulps	%ymm3, %ymm6, %ymm6
	vsubps	%ymm6, %ymm4, %ymm6
	vmulps	%ymm3, %ymm6, %ymm6
	vsubps	%ymm6, %ymm4, %ymm9
	vsubps	%ymm0, %ymm4, %ymm0
	vsubps	%ymm5, %ymm4, %ymm13
	vsubps	%ymm1, %ymm4, %ymm1
	vmulps	%ymm3, %ymm2, %ymm2
	vsubps	%ymm11, %ymm4, %ymm6
	vsubps	%ymm10, %ymm4, %ymm5
	vmulps	%ymm3, %ymm5, %ymm5
	vsubps	%ymm5, %ymm4, %ymm5
	vmulps	%ymm3, %ymm5, %ymm5
	vmulps	%ymm3, %ymm6, %ymm6
	vsubps	%ymm6, %ymm4, %ymm6
	vmulps	%ymm3, %ymm6, %ymm6
	vmulps	%ymm3, %ymm1, %ymm1
	vsubps	%ymm1, %ymm4, %ymm11
	vsubps	%ymm6, %ymm4, %ymm12
	vmulps	%ymm3, %ymm13, %ymm13
	vsubps	%ymm5, %ymm4, %ymm15
	vmulps	%ymm3, %ymm0, %ymm0
	vmulps	%ymm3, %ymm9, %ymm1
	vsubps	%ymm2, %ymm4, %ymm2
	vmulps	%ymm3, %ymm2, %ymm2
	vsubps	%ymm2, %ymm4, %ymm2
	vsubps	%ymm8, %ymm4, %ymm5
	vmulps	%ymm3, %ymm5, %ymm5
	vsubps	%ymm5, %ymm4, %ymm10
	vmulps	%ymm3, %ymm2, %ymm2
	vsubps	%ymm1, %ymm4, %ymm14
	vsubps	%ymm0, %ymm4, %ymm1
	vmulps	%ymm3, %ymm15, %ymm5
	vsubps	%ymm13, %ymm4, %ymm6
	vmulps	%ymm3, %ymm12, %ymm8
	vmulps	%ymm3, %ymm11, %ymm0
	vsubps	%ymm0, %ymm4, %ymm0
	vmulps	%ymm3, %ymm0, %ymm0
	vsubps	%ymm0, %ymm4, %ymm0
	vmulps	%ymm3, %ymm0, %ymm0
	vsubps	%ymm8, %ymm4, %ymm13
	vmulps	%ymm3, %ymm6, %ymm6
	vsubps	%ymm5, %ymm4, %ymm8
	vmulps	%ymm3, %ymm1, %ymm9
	vmulps	%ymm3, %ymm14, %ymm12
	vsubps	%ymm2, %ymm4, %ymm1
	vmulps	%ymm3, %ymm10, %ymm2
	vsubps	%ymm2, %ymm4, %ymm2
	vmulps	%ymm3, %ymm2, %ymm11
	vsubps	%ymm6, %ymm4, %ymm2
	vmulps	%ymm3, %ymm2, %ymm2
	vsubps	%ymm2, %ymm4, %ymm2
	vmulps	%ymm3, %ymm2, %ymm2
	vmulps	%ymm3, %ymm1, %ymm14
	vsubps	%ymm2, %ymm4, %ymm1
	vmulps	%ymm3, %ymm13, %ymm2
	vsubps	%ymm0, %ymm4, %ymm0
	vmulps	%ymm3, %ymm0, %ymm0
	vsubps	%ymm0, %ymm4, %ymm0
	vsubps	%ymm12, %ymm4, %ymm5
	vmulps	%ymm3, %ymm5, %ymm5
	vsubps	%ymm5, %ymm4, %ymm10
	vmulps	%ymm3, %ymm0, %ymm13
	vsubps	%ymm2, %ymm4, %ymm2
	vmulps	%ymm3, %ymm1, %ymm15
	vsubps	%ymm9, %ymm4, %ymm1
	vmulps	%ymm3, %ymm8, %ymm0
	vsubps	%ymm14, %ymm4, %ymm5
	vsubps	%ymm11, %ymm4, %ymm6
	vmulps	%ymm3, %ymm6, %ymm6
	vsubps	%ymm6, %ymm4, %ymm6
	vmulps	%ymm3, %ymm6, %ymm6
	vsubps	%ymm6, %ymm4, %ymm6
	vmulps	%ymm3, %ymm6, %ymm6
	vsubps	%ymm6, %ymm4, %ymm9
	vmulps	%ymm3, %ymm5, %ymm12
	vsubps	%ymm0, %ymm4, %ymm0
	vmulps	%ymm3, %ymm1, %ymm14
	vsubps	%ymm15, %ymm4, %ymm1
	vmulps	%ymm3, %ymm2, %ymm2
	vsubps	%ymm13, %ymm4, %ymm5
	vmulps	%ymm3, %ymm10, %ymm6
	vsubps	%ymm6, %ymm4, %ymm6
	vmulps	%ymm3, %ymm6, %ymm6
	vsubps	%ymm6, %ymm4, %ymm6
	vmulps	%ymm3, %ymm6, %ymm6
	vsubps	%ymm6, %ymm4, %ymm6
	vmulps	%ymm3, %ymm6, %ymm8
	vmulps	%ymm3, %ymm5, %ymm10
	vsubps	%ymm2, %ymm4, %ymm11
	vmulps	%ymm3, %ymm1, %ymm13
	vsubps	%ymm14, %ymm4, %ymm2
	vmulps	%ymm3, %ymm0, %ymm0
	vsubps	%ymm12, %ymm4, %ymm1
	vmulps	%ymm3, %ymm9, %ymm5
	vsubps	%ymm5, %ymm4, %ymm5
	vmulps	%ymm3, %ymm5, %ymm5
	vsubps	%ymm5, %ymm4, %ymm5
	vmulps	%ymm3, %ymm5, %ymm5
	vsubps	%ymm5, %ymm4, %ymm5
	vmulps	%ymm3, %ymm5, %ymm5
	vmulps	%ymm3, %ymm1, %ymm1
	vsubps	%ymm5, %ymm4, %ymm5
	vsubps	%ymm0, %ymm4, %ymm6
	vmulps	%ymm3, %ymm5, %ymm0
	vmulps	%ymm3, %ymm2, %ymm2
	vsubps	%ymm0, %ymm4, %ymm0
	vsubps	%ymm13, %ymm4, %ymm9
	vmulps	%ymm3, %ymm11, %ymm11
	vsubps	%ymm10, %ymm4, %ymm13
	vsubps	%ymm8, %ymm4, %ymm5
	vmulps	%ymm3, %ymm6, %ymm6
	vsubps	%ymm1, %ymm4, %ymm1
	vmulps	%ymm3, %ymm1, %ymm1
	vsubps	%ymm1, %ymm4, %ymm1
	vmulps	%ymm3, %ymm1, %ymm1
	vsubps	%ymm1, %ymm4, %ymm1
	vmulps	%ymm3, %ymm1, %ymm1
	vsubps	%ymm1, %ymm4, %ymm12
	vsubps	%ymm6, %ymm4, %ymm6
	vmulps	%ymm3, %ymm5, %ymm1
	vsubps	%ymm1, %ymm4, %ymm10
	vsubps	%ymm2, %ymm4, %ymm8
	vmulps	%ymm3, %ymm0, %ymm1
	vmulps	%ymm3, %ymm13, %ymm0
	vsubps	%ymm0, %ymm4, %ymm0
	vmulps	%ymm3, %ymm0, %ymm0
	vmulps	%ymm3, %ymm6, %ymm13
	vsubps	%ymm0, %ymm4, %ymm0
	vmulps	%ymm3, %ymm0, %ymm2
	vsubps	%ymm11, %ymm4, %ymm0
	vsubps	%ymm1, %ymm4, %ymm5
	vmulps	%ymm3, %ymm9, %ymm6
	vmulps	%ymm3, %ymm12, %ymm1
	vsubps	%ymm1, %ymm4, %ymm1
	vmulps	%ymm3, %ymm1, %ymm1
	vsubps	%ymm1, %ymm4, %ymm1
	vmulps	%ymm3, %ymm1, %ymm1
	vsubps	%ymm1, %ymm4, %ymm1
	vmulps	%ymm3, %ymm1, %ymm1
	vsubps	%ymm6, %ymm4, %ymm11
	vmulps	%ymm3, %ymm5, %ymm12
	vmulps	%ymm3, %ymm0, %ymm0
	vsubps	%ymm2, %ymm4, %ymm14
	vmulps	%ymm3, %ymm10, %ymm2
	vsubps	%ymm13, %ymm4, %ymm5
	vmulps	%ymm3, %ymm5, %ymm5
	vsubps	%ymm5, %ymm4, %ymm5
	vmulps	%ymm3, %ymm5, %ymm9
	vsubps	%ymm1, %ymm4, %ymm1
	vmulps	%ymm3, %ymm1, %ymm1
	vsubps	%ymm1, %ymm4, %ymm1
	vsubps	%ymm2, %ymm4, %ymm2
	vmulps	%ymm3, %ymm2, %ymm2
	vsubps	%ymm2, %ymm4, %ymm2
	vmulps	%ymm3, %ymm2, %ymm2
	vmulps	%ymm3, %ymm1, %ymm13
	vmulps	%ymm3, %ymm14, %ymm14
	vsubps	%ymm0, %ymm4, %ymm1
	vsubps	%ymm12, %ymm4, %ymm5
	vmulps	%ymm3, %ymm11, %ymm0
	vmulps	%ymm3, %ymm8, %ymm6
	vsubps	%ymm6, %ymm4, %ymm6
	vmulps	%ymm3, %ymm6, %ymm6
	vsubps	%ymm6, %ymm4, %ymm6
	vmulps	%ymm3, %ymm6, %ymm6
	vsubps	%ymm6, %ymm4, %ymm10
	vsubps	%ymm0, %ymm4, %ymm0
	vmulps	%ymm3, %ymm5, %ymm11
	vmulps	%ymm3, %ymm1, %ymm1
	vsubps	%ymm14, %ymm4, %ymm5
	vsubps	%ymm13, %ymm4, %ymm8
	vsubps	%ymm2, %ymm4, %ymm6
	vsubps	%ymm9, %ymm4, %ymm2
	vmulps	%ymm3, %ymm2, %ymm2
	vsubps	%ymm2, %ymm4, %ymm2
	vmulps	%ymm3, %ymm2, %ymm2
	vsubps	%ymm2, %ymm4, %ymm2
	vmulps	%ymm3, %ymm6, %ymm6
	vmulps	%ymm3, %ymm8, %ymm7
	vsubps	%ymm7, %ymm4, %ymm9
	vmulps	%ymm3, %ymm5, %ymm12
	vsubps	%ymm1, %ymm4, %ymm8
	vsubps	%ymm11, %ymm4, %ymm11
	vmulps	%ymm3, %ymm0, %ymm0
	vmulps	%ymm3, %ymm10, %ymm10
	vsubps	%ymm6, %ymm4, %ymm1
	vmulps	%ymm3, %ymm1, %ymm5
	vmulps	%ymm3, %ymm2, %ymm1
	vsubps	%ymm1, %ymm4, %ymm1
	vmulps	%ymm3, %ymm1, %ymm1
	vsubps	%ymm1, %ymm4, %ymm1
	vmulps	%ymm3, %ymm1, %ymm1
	vsubps	%ymm1, %ymm4, %ymm1
	vmulps	%ymm3, %ymm1, %ymm1
	vsubps	%ymm5, %ymm4, %ymm5
	vsubps	%ymm0, %ymm4, %ymm0
	vmulps	%ymm3, %ymm0, %ymm0
	vsubps	%ymm0, %ymm4, %ymm0
	vmulps	%ymm3, %ymm0, %ymm2
	vmulps	%ymm3, %ymm5, %ymm13
	vmulps	%ymm3, %ymm11, %ymm11
	vmulps	%ymm3, %ymm8, %ymm8
	vsubps	%ymm1, %ymm4, %ymm0
	vmulps	%ymm3, %ymm0, %ymm0
	vsubps	%ymm0, %ymm4, %ymm1
	vsubps	%ymm12, %ymm4, %ymm0
	vmulps	%ymm3, %ymm0, %ymm0
	vsubps	%ymm0, %ymm4, %ymm0
	vmulps	%ymm3, %ymm0, %ymm0
	vsubps	%ymm0, %ymm4, %ymm0
	vmulps	%ymm3, %ymm1, %ymm1
	vmulps	%ymm3, %ymm9, %ymm5
	vsubps	%ymm13, %ymm4, %ymm6
	vsubps	%ymm2, %ymm4, %ymm2
	vsubps	%ymm10, %ymm4, %ymm7
	vmulps	%ymm3, %ymm7, %ymm7
	vsubps	%ymm7, %ymm4, %ymm7
	vmulps	%ymm3, %ymm7, %ymm7
	vsubps	%ymm7, %ymm4, %ymm7
	vmulps	%ymm3, %ymm7, %ymm9
	vmulps	%ymm3, %ymm2, %ymm2
	vmulps	%ymm3, %ymm6, %ymm13
	vsubps	%ymm5, %ymm4, %ymm12
	vsubps	%ymm1, %ymm4, %ymm1
	vmulps	%ymm3, %ymm0, %ymm0
	vsubps	%ymm11, %ymm4, %ymm5
	vmulps	%ymm3, %ymm5, %ymm5
	vsubps	%ymm5, %ymm4, %ymm5
	vmulps	%ymm3, %ymm5, %ymm5
	vsubps	%ymm5, %ymm4, %ymm5
	vmulps	%ymm3, %ymm5, %ymm5
	vsubps	%ymm5, %ymm4, %ymm10
	vsubps	%ymm0, %ymm4, %ymm14
	vmulps	%ymm3, %ymm1, %ymm0
	vmulps	%ymm3, %ymm12, %ymm12
	vsubps	%ymm13, %ymm4, %ymm1
	vsubps	%ymm2, %ymm4, %ymm2
	vsubps	%ymm9, %ymm4, %ymm5
	vsubps	%ymm8, %ymm4, %ymm6
	vmulps	%ymm3, %ymm6, %ymm6
	vsubps	%ymm6, %ymm4, %ymm6
	vmulps	%ymm3, %ymm6, %ymm6
	vsubps	%ymm6, %ymm4, %ymm6
	vmulps	%ymm3, %ymm6, %ymm6
	vsubps	%ymm6, %ymm4, %ymm8
	vmulps	%ymm3, %ymm5, %ymm5
	vmulps	%ymm3, %ymm2, %ymm2
	vsubps	%ymm2, %ymm4, %ymm9
	vmulps	%ymm3, %ymm1, %ymm11
	vsubps	%ymm12, %ymm4, %ymm12
	vsubps	%ymm0, %ymm4, %ymm13
	vmulps	%ymm3, %ymm14, %ymm0
	vmulps	%ymm3, %ymm10, %ymm1
	vsubps	%ymm5, %ymm4, %ymm2
	vmulps	%ymm3, %ymm2, %ymm2
	vsubps	%ymm2, %ymm4, %ymm2
	vmulps	%ymm3, %ymm2, %ymm2
	vsubps	%ymm2, %ymm4, %ymm2
	vmulps	%ymm3, %ymm2, %ymm2
	vmulps	%ymm3, %ymm8, %ymm5
	vsubps	%ymm1, %ymm4, %ymm1
	vmulps	%ymm3, %ymm1, %ymm1
	vsubps	%ymm1, %ymm4, %ymm1
	vmulps	%ymm3, %ymm1, %ymm1
	vsubps	%ymm1, %ymm4, %ymm1
	vmulps	%ymm3, %ymm1, %ymm14
	vsubps	%ymm0, %ymm4, %ymm1
	vsubps	%ymm5, %ymm4, %ymm0
	vmulps	%ymm3, %ymm0, %ymm8
	vmulps	%ymm3, %ymm13, %ymm10
	vmulps	%ymm3, %ymm12, %ymm12
	vsubps	%ymm11, %ymm4, %ymm0
	vmulps	%ymm3, %ymm9, %ymm5
	vsubps	%ymm2, %ymm4, %ymm6
	vmulps	%ymm3, %ymm1, %ymm1
	vsubps	%ymm1, %ymm4, %ymm1
	vmulps	%ymm3, %ymm1, %ymm1
	vsubps	%ymm1, %ymm4, %ymm1
	vmulps	%ymm3, %ymm1, %ymm1
	vsubps	%ymm1, %ymm4, %ymm2
	vsubps	%ymm14, %ymm4, %ymm1
	vmulps	%ymm3, %ymm6, %ymm6
	vsubps	%ymm5, %ymm4, %ymm5
	vmulps	%ymm3, %ymm5, %ymm5
	vsubps	%ymm5, %ymm4, %ymm5
	vmulps	%ymm3, %ymm5, %ymm5
	vsubps	%ymm5, %ymm4, %ymm13
	vmulps	%ymm3, %ymm0, %ymm0
	vsubps	%ymm12, %ymm4, %ymm11
	vsubps	%ymm6, %ymm4, %ymm5
	vmulps	%ymm3, %ymm1, %ymm1
	vsubps	%ymm1, %ymm4, %ymm1
	vmulps	%ymm3, %ymm1, %ymm12
	vsubps	%ymm10, %ymm4, %ymm9
	vsubps	%ymm8, %ymm4, %ymm8
	vmulps	%ymm3, %ymm2, %ymm1
	vsubps	%ymm1, %ymm4, %ymm1
	vmulps	%ymm3, %ymm5, %ymm2
	vsubps	%ymm2, %ymm4, %ymm2
	vmulps	%ymm3, %ymm2, %ymm2
	vsubps	%ymm2, %ymm4, %ymm2
	vmulps	%ymm3, %ymm2, %ymm14
	vmulps	%ymm3, %ymm11, %ymm5
	vsubps	%ymm0, %ymm4, %ymm11
	vmulps	%ymm3, %ymm1, %ymm1
	vmulps	%ymm3, %ymm13, %ymm0
	vsubps	%ymm0, %ymm4, %ymm0
	vmulps	%ymm3, %ymm0, %ymm0
	vsubps	%ymm0, %ymm4, %ymm0
	vmulps	%ymm3, %ymm0, %ymm0
	vsubps	%ymm0, %ymm4, %ymm0
	vsubps	%ymm12, %ymm4, %ymm2
	vsubps	%ymm1, %ymm4, %ymm1
	vsubps	%ymm5, %ymm4, %ymm10
	vmulps	%ymm3, %ymm8, %ymm8
	vsubps	%ymm14, %ymm4, %ymm5
	vmulps	%ymm3, %ymm5, %ymm5
	vsubps	%ymm5, %ymm4, %ymm5
	vmulps	%ymm3, %ymm5, %ymm5
	vmulps	%ymm3, %ymm9, %ymm6
	vsubps	%ymm6, %ymm4, %ymm6
	vmulps	%ymm3, %ymm6, %ymm6
	vsubps	%ymm6, %ymm4, %ymm9
	vsubps	%ymm5, %ymm4, %ymm13
	vmulps	%ymm3, %ymm1, %ymm1
	vmulps	%ymm3, %ymm2, %ymm5
	vmulps	%ymm3, %ymm0, %ymm0
	vmulps	%ymm3, %ymm11, %ymm2
	vsubps	%ymm2, %ymm4, %ymm2
	vmulps	%ymm3, %ymm2, %ymm2
	vsubps	%ymm2, %ymm4, %ymm2
	vmulps	%ymm3, %ymm2, %ymm11
	vsubps	%ymm0, %ymm4, %ymm2
	vsubps	%ymm5, %ymm4, %ymm12
	vsubps	%ymm1, %ymm4, %ymm1
	vmulps	%ymm3, %ymm13, %ymm5
	vmulps	%ymm3, %ymm9, %ymm0
	vmulps	%ymm3, %ymm10, %ymm6
	vsubps	%ymm6, %ymm4, %ymm6
	vmulps	%ymm3, %ymm6, %ymm6
	vsubps	%ymm6, %ymm4, %ymm6
	vmulps	%ymm3, %ymm6, %ymm6
	vsubps	%ymm6, %ymm4, %ymm6
	vmulps	%ymm3, %ymm6, %ymm9
	vsubps	%ymm0, %ymm4, %ymm0
	vsubps	%ymm5, %ymm4, %ymm10
	vmulps	%ymm3, %ymm1, %ymm1
	vmulps	%ymm3, %ymm12, %ymm5
	vmulps	%ymm3, %ymm2, %ymm2
	vsubps	%ymm11, %ymm4, %ymm6
	vsubps	%ymm8, %ymm4, %ymm7
	vmulps	%ymm3, %ymm7, %ymm7
	vsubps	%ymm7, %ymm4, %ymm7
	vmulps	%ymm3, %ymm7, %ymm7
	vsubps	%ymm7, %ymm4, %ymm7
	vmulps	%ymm3, %ymm7, %ymm8
	vmulps	%ymm3, %ymm6, %ymm12
	vsubps	%ymm2, %ymm4, %ymm2
	vsubps	%ymm5, %ymm4, %ymm13
	vsubps	%ymm1, %ymm4, %ymm1
	vmulps	%ymm3, %ymm10, %ymm5
	vmulps	%ymm3, %ymm0, %ymm0
	vsubps	%ymm9, %ymm4, %ymm6
	vmulps	%ymm3, %ymm6, %ymm6
	vsubps	%ymm6, %ymm4, %ymm6
	vmulps	%ymm3, %ymm6, %ymm6
	vsubps	%ymm6, %ymm4, %ymm6
	vmulps	%ymm3, %ymm6, %ymm6
	vsubps	%ymm6, %ymm4, %ymm9
	vsubps	%ymm0, %ymm4, %ymm10
	vsubps	%ymm5, %ymm4, %ymm11
	vmulps	%ymm3, %ymm1, %ymm0
	vmulps	%ymm3, %ymm13, %ymm13
	vmulps	%ymm3, %ymm2, %ymm2
	vsubps	%ymm12, %ymm4, %ymm5
	vsubps	%ymm8, %ymm4, %ymm1
	vmulps	%ymm3, %ymm1, %ymm1
	vsubps	%ymm1, %ymm4, %ymm1
	vmulps	%ymm3, %ymm1, %ymm1
	vsubps	%ymm1, %ymm4, %ymm1
	vmulps	%ymm3, %ymm1, %ymm1
	vsubps	%ymm1, %ymm4, %ymm1
	vmulps	%ymm3, %ymm5, %ymm5
	vsubps	%ymm2, %ymm4, %ymm2
	vmulps	%ymm3, %ymm2, %ymm2
	vsubps	%ymm2, %ymm4, %ymm12
	vsubps	%ymm13, %ymm4, %ymm2
	vsubps	%ymm0, %ymm4, %ymm8
	vmulps	%ymm3, %ymm11, %ymm11
	vmulps	%ymm3, %ymm10, %ymm0
	vsubps	%ymm5, %ymm4, %ymm10
	vmulps	%ymm3, %ymm9, %ymm5
	vsubps	%ymm5, %ymm4, %ymm5
	vmulps	%ymm3, %ymm5, %ymm5
	vmulps	%ymm3, %ymm1, %ymm1
	vsubps	%ymm1, %ymm4, %ymm1
	vmulps	%ymm3, %ymm1, %ymm1
	vsubps	%ymm1, %ymm4, %ymm1
	vmulps	%ymm3, %ymm1, %ymm1
	vsubps	%ymm1, %ymm4, %ymm1
	vsubps	%ymm5, %ymm4, %ymm5
	vmulps	%ymm3, %ymm2, %ymm2
	vsubps	%ymm2, %ymm4, %ymm14
	vmulps	%ymm3, %ymm12, %ymm2
	vmulps	%ymm3, %ymm10, %ymm9
	vsubps	%ymm0, %ymm4, %ymm0
	vmulps	%ymm3, %ymm0, %ymm0
	vsubps	%ymm0, %ymm4, %ymm10
	vmulps	%ymm3, %ymm5, %ymm6
	vmulps	%ymm3, %ymm1, %ymm13
	vsubps	%ymm11, %ymm4, %ymm0
	vmulps	%ymm3, %ymm8, %ymm5
	vsubps	%ymm9, %ymm4, %ymm1
	vmulps	%ymm3, %ymm1, %ymm1
	vsubps	%ymm1, %ymm4, %ymm1
	vmulps	%ymm3, %ymm1, %ymm12
	vsubps	%ymm6, %ymm4, %ymm6
	vsubps	%ymm2, %ymm4, %ymm1
	vmulps	%ymm3, %ymm1, %ymm1
	vsubps	%ymm5, %ymm4, %ymm9
	vmulps	%ymm3, %ymm6, %ymm2
	vmulps	%ymm3, %ymm14, %ymm5
	vsubps	%ymm5, %ymm4, %ymm5
	vmulps	%ymm3, %ymm5, %ymm5
	vsubps	%ymm5, %ymm4, %ymm11
	vmulps	%ymm3, %ymm0, %ymm8
	vsubps	%ymm2, %ymm4, %ymm0
	vmulps	%ymm3, %ymm0, %ymm0
	vsubps	%ymm0, %ymm4, %ymm14
	vsubps	%ymm13, %ymm4, %ymm0
	vmulps	%ymm3, %ymm10, %ymm2
	vsubps	%ymm1, %ymm4, %ymm1
	vmulps	%ymm3, %ymm1, %ymm1
	vsubps	%ymm1, %ymm4, %ymm1
	vmulps	%ymm3, %ymm1, %ymm1
	vsubps	%ymm1, %ymm4, %ymm1
	vsubps	%ymm12, %ymm4, %ymm5
	vmulps	%ymm3, %ymm5, %ymm10
	vsubps	%ymm2, %ymm4, %ymm12
	vmulps	%ymm3, %ymm1, %ymm1
	vsubps	%ymm1, %ymm4, %ymm1
	vmulps	%ymm3, %ymm1, %ymm1
	vsubps	%ymm1, %ymm4, %ymm1
	vmulps	%ymm3, %ymm1, %ymm1
	vmulps	%ymm3, %ymm0, %ymm0
	vsubps	%ymm0, %ymm4, %ymm0
	vsubps	%ymm1, %ymm4, %ymm1
	vmulps	%ymm3, %ymm14, %ymm2
	vmulps	%ymm3, %ymm11, %ymm5
	vmulps	%ymm3, %ymm9, %ymm6
	vsubps	%ymm6, %ymm4, %ymm6
	vmulps	%ymm3, %ymm6, %ymm6
	vsubps	%ymm6, %ymm4, %ymm6
	vmulps	%ymm3, %ymm6, %ymm6
	vsubps	%ymm6, %ymm4, %ymm6
	vmulps	%ymm3, %ymm6, %ymm9
	vsubps	%ymm5, %ymm4, %ymm11
	vsubps	%ymm2, %ymm4, %ymm13
	vmulps	%ymm3, %ymm1, %ymm14
	vmulps	%ymm3, %ymm0, %ymm15
	vsubps	%ymm8, %ymm4, %ymm0
	vmulps	%ymm3, %ymm12, %ymm1
	vsubps	%ymm10, %ymm4, %ymm2
	vmulps	%ymm3, %ymm2, %ymm2
	vsubps	%ymm2, %ymm4, %ymm2
	vmulps	%ymm3, %ymm2, %ymm2
	vsubps	%ymm2, %ymm4, %ymm2
	vmulps	%ymm3, %ymm2, %ymm2
	vsubps	%ymm2, %ymm4, %ymm2
	vsubps	%ymm1, %ymm4, %ymm8
	vmulps	%ymm3, %ymm2, %ymm1
	vmulps	%ymm3, %ymm0, %ymm0
	vsubps	%ymm0, %ymm4, %ymm0
	vmulps	%ymm3, %ymm0, %ymm0
	vsubps	%ymm0, %ymm4, %ymm0
	vmulps	%ymm3, %ymm0, %ymm12
	vsubps	%ymm1, %ymm4, %ymm0
	vsubps	%ymm15, %ymm4, %ymm2
	vsubps	%ymm14, %ymm4, %ymm1
	vmulps	%ymm3, %ymm13, %ymm5
	vmulps	%ymm3, %ymm11, %ymm6
	vsubps	%ymm9, %ymm4, %ymm7
	vmulps	%ymm3, %ymm7, %ymm7
	vsubps	%ymm7, %ymm4, %ymm7
	vmulps	%ymm3, %ymm7, %ymm7
	vsubps	%ymm7, %ymm4, %ymm7
	vmulps	%ymm3, %ymm7, %ymm7
	vsubps	%ymm7, %ymm4, %ymm13
	vsubps	%ymm6, %ymm4, %ymm9
	vsubps	%ymm5, %ymm4, %ymm10
	vmulps	%ymm3, %ymm1, %ymm11
	vmulps	%ymm3, %ymm2, %ymm2
	vmulps	%ymm3, %ymm0, %ymm1
	vsubps	%ymm12, %ymm4, %ymm0
	vmulps	%ymm3, %ymm8, %ymm5
	vsubps	%ymm5, %ymm4, %ymm5
	vmulps	%ymm3, %ymm5, %ymm5
	vsubps	%ymm5, %ymm4, %ymm5
	vmulps	%ymm3, %ymm5, %ymm5
	vsubps	%ymm5, %ymm4, %ymm8
	vmulps	%ymm3, %ymm13, %ymm5
	vmulps	%ymm3, %ymm0, %ymm0
	vsubps	%ymm0, %ymm4, %ymm0
	vmulps	%ymm3, %ymm0, %ymm0
	vsubps	%ymm0, %ymm4, %ymm0
	vsubps	%ymm1, %ymm4, %ymm13
	vsubps	%ymm5, %ymm4, %ymm1
	vsubps	%ymm2, %ymm4, %ymm2
	vsubps	%ymm11, %ymm4, %ymm5
	vmulps	%ymm3, %ymm10, %ymm6
	vmulps	%ymm3, %ymm9, %ymm7
	vsubps	%ymm7, %ymm4, %ymm7
	vmulps	%ymm3, %ymm7, %ymm7
	vsubps	%ymm7, %ymm4, %ymm7
	vmulps	%ymm3, %ymm7, %ymm7
	vsubps	%ymm7, %ymm4, %ymm10
	vsubps	%ymm6, %ymm4, %ymm11
	vmulps	%ymm3, %ymm5, %ymm12
	vmulps	%ymm3, %ymm2, %ymm2
	vmulps	%ymm3, %ymm1, %ymm1
	vmulps	%ymm3, %ymm13, %ymm6
	vmulps	%ymm3, %ymm0, %ymm0
	vmulps	%ymm3, %ymm8, %ymm5
	vsubps	%ymm5, %ymm4, %ymm5
	vmulps	%ymm3, %ymm5, %ymm5
	vsubps	%ymm5, %ymm4, %ymm5
	vmulps	%ymm3, %ymm5, %ymm5
	vsubps	%ymm5, %ymm4, %ymm5
	vmulps	%ymm3, %ymm5, %ymm14
	vsubps	%ymm0, %ymm4, %ymm5
	vsubps	%ymm6, %ymm4, %ymm6
	vsubps	%ymm1, %ymm4, %ymm0
	vsubps	%ymm2, %ymm4, %ymm1
	vmulps	%ymm3, %ymm1, %ymm8
	vmulps	%ymm3, %ymm0, %ymm9
	vsubps	%ymm12, %ymm4, %ymm13
	vmulps	%ymm3, %ymm11, %ymm0
	vmulps	%ymm3, %ymm10, %ymm1
	vmulps	%ymm3, %ymm6, %ymm2
	vmulps	%ymm3, %ymm5, %ymm5
	vsubps	%ymm14, %ymm4, %ymm6
	vmulps	%ymm3, %ymm6, %ymm6
	vsubps	%ymm6, %ymm4, %ymm6
	vmulps	%ymm3, %ymm6, %ymm6
	vsubps	%ymm6, %ymm4, %ymm6
	vmulps	%ymm3, %ymm6, %ymm6
	vsubps	%ymm6, %ymm4, %ymm6
	vsubps	%ymm5, %ymm4, %ymm5
	vmulps	%ymm3, %ymm5, %ymm10
	vsubps	%ymm2, %ymm4, %ymm11
	vsubps	%ymm1, %ymm4, %ymm12
	vmulps	%ymm3, %ymm6, %ymm1
	vsubps	%ymm1, %ymm4, %ymm1
	vsubps	%ymm0, %ymm4, %ymm0
	vmulps	%ymm3, %ymm1, %ymm2
	vmulps	%ymm3, %ymm13, %ymm1
	vsubps	%ymm1, %ymm4, %ymm1
	vmulps	%ymm3, %ymm1, %ymm1
	vsubps	%ymm2, %ymm4, %ymm2
	vsubps	%ymm9, %ymm4, %ymm5
	vsubps	%ymm8, %ymm4, %ymm6
	vmulps	%ymm3, %ymm6, %ymm6
	vsubps	%ymm6, %ymm4, %ymm6
	vmulps	%ymm3, %ymm6, %ymm6
	vsubps	%ymm6, %ymm4, %ymm6
	vmulps	%ymm3, %ymm6, %ymm6
	vsubps	%ymm6, %ymm4, %ymm14
	vmulps	%ymm3, %ymm5, %ymm8
	vmulps	%ymm3, %ymm2, %ymm9
	vsubps	%ymm1, %ymm4, %ymm13
	vmulps	%ymm3, %ymm0, %ymm0
	vmulps	%ymm3, %ymm12, %ymm1
	vmulps	%ymm3, %ymm11, %ymm2
	vsubps	%ymm10, %ymm4, %ymm5
	vmulps	%ymm3, %ymm5, %ymm5
	vsubps	%ymm5, %ymm4, %ymm5
	vmulps	%ymm3, %ymm5, %ymm5
	vsubps	%ymm5, %ymm4, %ymm5
	vmulps	%ymm3, %ymm5, %ymm5
	vsubps	%ymm5, %ymm4, %ymm5
	vsubps	%ymm2, %ymm4, %ymm2
	vmulps	%ymm3, %ymm2, %ymm11
	vsubps	%ymm1, %ymm4, %ymm12
	vmulps	%ymm3, %ymm5, %ymm1
	vsubps	%ymm1, %ymm4, %ymm1
	vsubps	%ymm0, %ymm4, %ymm15
	vmulps	%ymm3, %ymm1, %ymm1
	vmulps	%ymm3, %ymm14, %ymm0
	vsubps	%ymm1, %ymm4, %ymm1
	vmulps	%ymm3, %ymm1, %ymm2
	vmulps	%ymm3, %ymm13, %ymm1
	vsubps	%ymm1, %ymm4, %ymm1
	vsubps	%ymm2, %ymm4, %ymm2
	vsubps	%ymm9, %ymm4, %ymm5
	vsubps	%ymm8, %ymm4, %ymm6
	vmulps	%ymm3, %ymm6, %ymm6
	vsubps	%ymm6, %ymm4, %ymm6
	vmulps	%ymm3, %ymm6, %ymm6
	vsubps	%ymm6, %ymm4, %ymm14
	vmulps	%ymm3, %ymm5, %ymm8
	vmulps	%ymm3, %ymm2, %ymm9
	vmulps	%ymm3, %ymm1, %ymm10
	vsubps	%ymm0, %ymm4, %ymm13
	vmulps	%ymm3, %ymm15, %ymm0
	vmulps	%ymm3, %ymm12, %ymm1
	vsubps	%ymm11, %ymm4, %ymm2
	vmulps	%ymm3, %ymm2, %ymm2
	vsubps	%ymm2, %ymm4, %ymm2
	vmulps	%ymm3, %ymm2, %ymm2
	vsubps	%ymm2, %ymm4, %ymm2
	vmulps	%ymm3, %ymm2, %ymm2
	vsubps	%ymm2, %ymm4, %ymm2
	vsubps	%ymm1, %ymm4, %ymm12
	vmulps	%ymm3, %ymm2, %ymm1
	vsubps	%ymm1, %ymm4, %ymm1
	vmulps	%ymm3, %ymm1, %ymm5
	vmulps	%ymm3, %ymm14, %ymm1
	vsubps	%ymm1, %ymm4, %ymm1
	vsubps	%ymm0, %ymm4, %ymm0
	vmulps	%ymm3, %ymm0, %ymm0
	vsubps	%ymm0, %ymm4, %ymm0
	vmulps	%ymm3, %ymm1, %ymm1
	vmulps	%ymm3, %ymm13, %ymm2
	vsubps	%ymm5, %ymm4, %ymm5
	vmulps	%ymm3, %ymm5, %ymm5
	vsubps	%ymm5, %ymm4, %ymm5
	vsubps	%ymm10, %ymm4, %ymm6
	vmulps	%ymm3, %ymm6, %ymm6
	vsubps	%ymm6, %ymm4, %ymm6
	vmulps	%ymm3, %ymm6, %ymm11
	vmulps	%ymm3, %ymm5, %ymm13
	vsubps	%ymm9, %ymm4, %ymm14
	vsubps	%ymm8, %ymm4, %ymm8
	vsubps	%ymm2, %ymm4, %ymm2
	vsubps	%ymm1, %ymm4, %ymm5
	vmulps	%ymm3, %ymm0, %ymm0
	vmulps	%ymm3, %ymm12, %ymm1
	vsubps	%ymm1, %ymm4, %ymm1
	vmulps	%ymm3, %ymm1, %ymm1
	vsubps	%ymm1, %ymm4, %ymm1
	vmulps	%ymm3, %ymm1, %ymm1
	vsubps	%ymm1, %ymm4, %ymm1
	vmulps	%ymm3, %ymm1, %ymm15
	vsubps	%ymm0, %ymm4, %ymm1
	vmulps	%ymm3, %ymm5, %ymm5
	vmulps	%ymm3, %ymm2, %ymm0
	vsubps	%ymm0, %ymm4, %ymm0
	vmulps	%ymm3, %ymm0, %ymm0
	vsubps	%ymm0, %ymm4, %ymm0
	vmulps	%ymm3, %ymm0, %ymm0
	vsubps	%ymm5, %ymm4, %ymm9
	vmulps	%ymm3, %ymm8, %ymm10
	vmulps	%ymm3, %ymm14, %ymm12
	vsubps	%ymm13, %ymm4, %ymm8
	vsubps	%ymm11, %ymm4, %ymm2
	vmulps	%ymm3, %ymm1, %ymm1
	vsubps	%ymm15, %ymm4, %ymm5
	vmulps	%ymm3, %ymm5, %ymm5
	vsubps	%ymm5, %ymm4, %ymm5
	vmulps	%ymm3, %ymm5, %ymm5
	vsubps	%ymm5, %ymm4, %ymm5
	vmulps	%ymm3, %ymm5, %ymm5
	vsubps	%ymm5, %ymm4, %ymm6
	vsubps	%ymm1, %ymm4, %ymm13
	vsubps	%ymm0, %ymm4, %ymm5
	vmulps	%ymm3, %ymm6, %ymm0
	vsubps	%ymm0, %ymm4, %ymm0
	vmulps	%ymm3, %ymm0, %ymm1
	vmulps	%ymm3, %ymm2, %ymm0
	vsubps	%ymm0, %ymm4, %ymm0
	vsubps	%ymm1, %ymm4, %ymm14
	vmulps	%ymm3, %ymm8, %ymm1
	vmulps	%ymm3, %ymm5, %ymm2
	vsubps	%ymm2, %ymm4, %ymm2
	vmulps	%ymm3, %ymm2, %ymm8
	vsubps	%ymm12, %ymm4, %ymm11
	vsubps	%ymm10, %ymm4, %ymm10
	vmulps	%ymm3, %ymm9, %ymm2
	vmulps	%ymm3, %ymm13, %ymm6
	vsubps	%ymm1, %ymm4, %ymm1
	vmulps	%ymm3, %ymm1, %ymm1
	vsubps	%ymm1, %ymm4, %ymm1
	vmulps	%ymm3, %ymm1, %ymm1
	vsubps	%ymm1, %ymm4, %ymm12
	vmulps	%ymm3, %ymm14, %ymm1
	vmulps	%ymm3, %ymm0, %ymm5
	vsubps	%ymm6, %ymm4, %ymm0
	vmulps	%ymm3, %ymm0, %ymm0
	vsubps	%ymm0, %ymm4, %ymm0
	vmulps	%ymm3, %ymm0, %ymm0
	vsubps	%ymm0, %ymm4, %ymm0
	vmulps	%ymm3, %ymm0, %ymm0
	vsubps	%ymm2, %ymm4, %ymm2
	vsubps	%ymm5, %ymm4, %ymm9
	vmulps	%ymm3, %ymm10, %ymm10
	vsubps	%ymm1, %ymm4, %ymm1
	vmulps	%ymm3, %ymm1, %ymm5
	vmulps	%ymm3, %ymm12, %ymm6
	vmulps	%ymm3, %ymm11, %ymm1
	vsubps	%ymm1, %ymm4, %ymm1
	vmulps	%ymm3, %ymm1, %ymm1
	vsubps	%ymm1, %ymm4, %ymm1
	vmulps	%ymm3, %ymm1, %ymm1
	vsubps	%ymm8, %ymm4, %ymm11
	vmulps	%ymm3, %ymm2, %ymm8
	vsubps	%ymm6, %ymm4, %ymm2
	vsubps	%ymm5, %ymm4, %ymm5
	vsubps	%ymm0, %ymm4, %ymm0
	vmulps	%ymm3, %ymm0, %ymm0
	vsubps	%ymm0, %ymm4, %ymm0
	vmulps	%ymm3, %ymm0, %ymm0
	vsubps	%ymm0, %ymm4, %ymm0
	vmulps	%ymm3, %ymm0, %ymm12
	vmulps	%ymm3, %ymm5, %ymm13
	vmulps	%ymm3, %ymm2, %ymm0
	vsubps	%ymm1, %ymm4, %ymm1
	vsubps	%ymm10, %ymm4, %ymm2
	vmulps	%ymm3, %ymm2, %ymm2
	vsubps	%ymm2, %ymm4, %ymm2
	vmulps	%ymm3, %ymm2, %ymm2
	vmulps	%ymm3, %ymm9, %ymm6
	vmulps	%ymm3, %ymm1, %ymm5
	vmulps	%ymm3, %ymm11, %ymm1
	vsubps	%ymm1, %ymm4, %ymm1
	vmulps	%ymm3, %ymm1, %ymm1
	vsubps	%ymm5, %ymm4, %ymm9
	vsubps	%ymm0, %ymm4, %ymm0
	vsubps	%ymm13, %ymm4, %ymm5
	vsubps	%ymm12, %ymm4, %ymm10
	vsubps	%ymm6, %ymm4, %ymm6
	vmulps	%ymm3, %ymm6, %ymm6
	vsubps	%ymm6, %ymm4, %ymm6
	vmulps	%ymm3, %ymm6, %ymm6
	vsubps	%ymm6, %ymm4, %ymm13
	vmulps	%ymm3, %ymm10, %ymm10
	vsubps	%ymm2, %ymm4, %ymm12
	vsubps	%ymm8, %ymm4, %ymm11
	vsubps	%ymm1, %ymm4, %ymm8
	vmulps	%ymm3, %ymm5, %ymm1
	vsubps	%ymm1, %ymm4, %ymm1
	vmulps	%ymm3, %ymm1, %ymm1
	vsubps	%ymm1, %ymm4, %ymm1
	vmulps	%ymm3, %ymm1, %ymm2
	vmulps	%ymm3, %ymm0, %ymm1
	vmulps	%ymm3, %ymm9, %ymm0
	vmulps	%ymm3, %ymm13, %ymm5
	vsubps	%ymm5, %ymm4, %ymm5
	vmulps	%ymm3, %ymm5, %ymm5
	vmulps	%ymm3, %ymm11, %ymm6
	vsubps	%ymm6, %ymm4, %ymm6
	vmulps	%ymm3, %ymm6, %ymm6
	vsubps	%ymm5, %ymm4, %ymm11
	vsubps	%ymm0, %ymm4, %ymm0
	vmulps	%ymm3, %ymm12, %ymm9
	vsubps	%ymm1, %ymm4, %ymm1
	vmulps	%ymm3, %ymm1, %ymm1
	vsubps	%ymm1, %ymm4, %ymm1
	vsubps	%ymm2, %ymm4, %ymm5
	vsubps	%ymm10, %ymm4, %ymm2
	vsubps	%ymm6, %ymm4, %ymm6
	vmulps	%ymm3, %ymm6, %ymm6
	vsubps	%ymm6, %ymm4, %ymm6
	vmulps	%ymm3, %ymm6, %ymm6
	vsubps	%ymm6, %ymm4, %ymm6
	vmulps	%ymm3, %ymm6, %ymm6
	vsubps	%ymm6, %ymm4, %ymm12
	vmulps	%ymm3, %ymm2, %ymm2
	vmulps	%ymm3, %ymm5, %ymm13
	vmulps	%ymm3, %ymm1, %ymm10
	vmulps	%ymm3, %ymm0, %ymm5
	vmulps	%ymm3, %ymm11, %ymm1
	vmulps	%ymm3, %ymm8, %ymm0
	vsubps	%ymm0, %ymm4, %ymm0
	vmulps	%ymm3, %ymm0, %ymm0
	vsubps	%ymm0, %ymm4, %ymm0
	vmulps	%ymm3, %ymm0, %ymm0
	vsubps	%ymm0, %ymm4, %ymm0
	vmulps	%ymm3, %ymm0, %ymm0
	vsubps	%ymm1, %ymm4, %ymm1
	vsubps	%ymm5, %ymm4, %ymm8
	vsubps	%ymm10, %ymm4, %ymm10
	vsubps	%ymm13, %ymm4, %ymm11
	vsubps	%ymm2, %ymm4, %ymm13
	vsubps	%ymm9, %ymm4, %ymm2
	vmulps	%ymm3, %ymm12, %ymm5
	vsubps	%ymm5, %ymm4, %ymm5
	vmulps	%ymm3, %ymm5, %ymm5
	vsubps	%ymm5, %ymm4, %ymm5
	vmulps	%ymm3, %ymm5, %ymm5
	vsubps	%ymm5, %ymm4, %ymm5
	vmulps	%ymm3, %ymm5, %ymm5
	vmulps	%ymm3, %ymm1, %ymm1
	vsubps	%ymm0, %ymm4, %ymm0
	vmulps	%ymm3, %ymm0, %ymm0
	vmulps	%ymm3, %ymm2, %ymm2
	vsubps	%ymm2, %ymm4, %ymm2
	vmulps	%ymm3, %ymm2, %ymm2
	vsubps	%ymm2, %ymm4, %ymm9
	vsubps	%ymm0, %ymm4, %ymm12
	vsubps	%ymm1, %ymm4, %ymm2
	vmulps	%ymm3, %ymm13, %ymm1
	vsubps	%ymm5, %ymm4, %ymm13
	vmulps	%ymm3, %ymm11, %ymm0
	vmulps	%ymm3, %ymm10, %ymm5
	vmulps	%ymm3, %ymm8, %ymm6
	vsubps	%ymm6, %ymm4, %ymm6
	vmulps	%ymm3, %ymm6, %ymm6
	vsubps	%ymm6, %ymm4, %ymm6
	vmulps	%ymm3, %ymm6, %ymm6
	vsubps	%ymm6, %ymm4, %ymm6
	vmulps	%ymm3, %ymm6, %ymm8
	vsubps	%ymm5, %ymm4, %ymm10
	vsubps	%ymm0, %ymm4, %ymm0
	vsubps	%ymm1, %ymm4, %ymm1
	vmulps	%ymm3, %ymm13, %ymm13
	vmulps	%ymm3, %ymm2, %ymm2
	vmulps	%ymm3, %ymm12, %ymm5
	vmulps	%ymm3, %ymm9, %ymm6
	vsubps	%ymm6, %ymm4, %ymm6
	vmulps	%ymm3, %ymm6, %ymm6
	vsubps	%ymm6, %ymm4, %ymm6
	vmulps	%ymm3, %ymm6, %ymm6
	vsubps	%ymm6, %ymm4, %ymm6
	vmulps	%ymm3, %ymm6, %ymm11
	vsubps	%ymm5, %ymm4, %ymm12
	vsubps	%ymm2, %ymm4, %ymm2
	vmulps	%ymm3, %ymm1, %ymm1
	vsubps	%ymm13, %ymm4, %ymm14
	vmulps	%ymm3, %ymm0, %ymm0
	vmulps	%ymm3, %ymm10, %ymm5
	vsubps	%ymm8, %ymm4, %ymm6
	vmulps	%ymm3, %ymm6, %ymm6
	vsubps	%ymm6, %ymm4, %ymm6
	vmulps	%ymm3, %ymm6, %ymm6
	vsubps	%ymm6, %ymm4, %ymm6
	vmulps	%ymm3, %ymm6, %ymm6
	vsubps	%ymm6, %ymm4, %ymm9
	vsubps	%ymm5, %ymm4, %ymm8
	vsubps	%ymm0, %ymm4, %ymm10
	vsubps	%ymm1, %ymm4, %ymm13
	vmulps	%ymm3, %ymm2, %ymm0
	vmulps	%ymm3, %ymm14, %ymm1
	vmulps	%ymm3, %ymm12, %ymm2
	vsubps	%ymm11, %ymm4, %ymm5
	vmulps	%ymm3, %ymm5, %ymm5
	vsubps	%ymm5, %ymm4, %ymm5
	vmulps	%ymm3, %ymm5, %ymm5
	vsubps	%ymm5, %ymm4, %ymm5
	vmulps	%ymm3, %ymm5, %ymm5
	vsubps	%ymm5, %ymm4, %ymm6
	vsubps	%ymm2, %ymm4, %ymm5
	vmulps	%ymm3, %ymm6, %ymm2
	vsubps	%ymm1, %ymm4, %ymm1
	vsubps	%ymm0, %ymm4, %ymm0
	vmulps	%ymm3, %ymm0, %ymm0
	vsubps	%ymm0, %ymm4, %ymm11
	vmulps	%ymm3, %ymm1, %ymm12
	vmulps	%ymm3, %ymm8, %ymm0
	vmulps	%ymm3, %ymm13, %ymm6
	vmulps	%ymm3, %ymm5, %ymm8
	vsubps	%ymm2, %ymm4, %ymm1
	vmulps	%ymm3, %ymm1, %ymm1
	vsubps	%ymm1, %ymm4, %ymm1
	vmulps	%ymm3, %ymm9, %ymm5
	vmulps	%ymm3, %ymm10, %ymm2
	vsubps	%ymm2, %ymm4, %ymm7
	vsubps	%ymm6, %ymm4, %ymm2
	vmulps	%ymm3, %ymm2, %ymm2
	vsubps	%ymm2, %ymm4, %ymm2
	vmulps	%ymm3, %ymm2, %ymm2
	vmulps	%ymm3, %ymm7, %ymm10
	vsubps	%ymm5, %ymm4, %ymm13
	vsubps	%ymm0, %ymm4, %ymm9
	vmulps	%ymm3, %ymm1, %ymm0
	vsubps	%ymm0, %ymm4, %ymm0
	vmulps	%ymm3, %ymm0, %ymm0
	vsubps	%ymm0, %ymm4, %ymm14
	vsubps	%ymm12, %ymm4, %ymm1
	vmulps	%ymm3, %ymm11, %ymm0
	vsubps	%ymm2, %ymm4, %ymm2
	vmulps	%ymm3, %ymm2, %ymm2
	vsubps	%ymm2, %ymm4, %ymm2
	vmulps	%ymm3, %ymm2, %ymm2
	vsubps	%ymm2, %ymm4, %ymm2
	vmulps	%ymm3, %ymm2, %ymm2
	vsubps	%ymm2, %ymm4, %ymm2
	vsubps	%ymm0, %ymm4, %ymm0
	vmulps	%ymm3, %ymm0, %ymm11
	vmulps	%ymm3, %ymm2, %ymm0
	vmulps	%ymm3, %ymm1, %ymm2
	vmulps	%ymm3, %ymm14, %ymm1
	vmulps	%ymm3, %ymm13, %ymm5
	vsubps	%ymm10, %ymm4, %ymm6
	vsubps	%ymm8, %ymm4, %ymm7
	vmulps	%ymm3, %ymm7, %ymm7
	vsubps	%ymm7, %ymm4, %ymm7
	vmulps	%ymm3, %ymm7, %ymm7
	vsubps	%ymm7, %ymm4, %ymm7
	vmulps	%ymm3, %ymm7, %ymm7
	vsubps	%ymm7, %ymm4, %ymm10
	vmulps	%ymm3, %ymm6, %ymm12
	vsubps	%ymm5, %ymm4, %ymm13
	vsubps	%ymm1, %ymm4, %ymm14
	vsubps	%ymm2, %ymm4, %ymm1
	vmulps	%ymm3, %ymm9, %ymm9
	vsubps	%ymm0, %ymm4, %ymm2
	vsubps	%ymm11, %ymm4, %ymm0
	vmulps	%ymm3, %ymm0, %ymm0
	vsubps	%ymm0, %ymm4, %ymm0
	vmulps	%ymm3, %ymm0, %ymm0
	vsubps	%ymm0, %ymm4, %ymm0
	vmulps	%ymm3, %ymm0, %ymm0
	vmulps	%ymm3, %ymm2, %ymm2
	vsubps	%ymm2, %ymm4, %ymm2
	vmulps	%ymm3, %ymm2, %ymm8
	vmulps	%ymm3, %ymm1, %ymm2
	vmulps	%ymm3, %ymm14, %ymm14
	vmulps	%ymm3, %ymm13, %ymm1
	vsubps	%ymm12, %ymm4, %ymm5
	vsubps	%ymm0, %ymm4, %ymm6
	vmulps	%ymm3, %ymm10, %ymm0
	vsubps	%ymm0, %ymm4, %ymm0
	vmulps	%ymm3, %ymm0, %ymm0
	vsubps	%ymm0, %ymm4, %ymm7
	vsubps	%ymm9, %ymm4, %ymm0
	vmulps	%ymm3, %ymm0, %ymm0
	vmulps	%ymm3, %ymm7, %ymm11
	vmulps	%ymm3, %ymm6, %ymm12
	vmulps	%ymm3, %ymm5, %ymm5
	vsubps	%ymm1, %ymm4, %ymm1
	vsubps	%ymm14, %ymm4, %ymm6
	vsubps	%ymm2, %ymm4, %ymm2
	vmulps	%ymm3, %ymm2, %ymm2
	vsubps	%ymm2, %ymm4, %ymm2
	vmulps	%ymm3, %ymm2, %ymm9
	vmulps	%ymm3, %ymm6, %ymm10
	vsubps	%ymm8, %ymm4, %ymm2
	vmulps	%ymm3, %ymm1, %ymm8
	vsubps	%ymm5, %ymm4, %ymm1
	vsubps	%ymm12, %ymm4, %ymm5
	vsubps	%ymm11, %ymm4, %ymm6
	vsubps	%ymm0, %ymm4, %ymm0
	vmulps	%ymm3, %ymm0, %ymm0
	vsubps	%ymm0, %ymm4, %ymm0
	vmulps	%ymm3, %ymm0, %ymm0
	vsubps	%ymm0, %ymm4, %ymm0
	vmulps	%ymm3, %ymm0, %ymm0
	vsubps	%ymm0, %ymm4, %ymm11
	vmulps	%ymm3, %ymm6, %ymm13
	vmulps	%ymm3, %ymm5, %ymm0
	vmulps	%ymm3, %ymm1, %ymm14
	vsubps	%ymm8, %ymm4, %ymm1
	vmulps	%ymm3, %ymm2, %ymm2
	vsubps	%ymm10, %ymm4, %ymm5
	vsubps	%ymm9, %ymm4, %ymm6
	vmulps	%ymm3, %ymm6, %ymm6
	vsubps	%ymm6, %ymm4, %ymm6
	vmulps	%ymm3, %ymm6, %ymm6
	vsubps	%ymm6, %ymm4, %ymm6
	vmulps	%ymm3, %ymm6, %ymm6
	vsubps	%ymm6, %ymm4, %ymm9
	vmulps	%ymm3, %ymm5, %ymm10
	vsubps	%ymm2, %ymm4, %ymm8
	vmulps	%ymm3, %ymm1, %ymm12
	vsubps	%ymm14, %ymm4, %ymm1
	vsubps	%ymm0, %ymm4, %ymm2
	vsubps	%ymm13, %ymm4, %ymm5
	vmulps	%ymm3, %ymm11, %ymm0
	vsubps	%ymm0, %ymm4, %ymm0
	vmulps	%ymm3, %ymm0, %ymm0
	vsubps	%ymm0, %ymm4, %ymm0
	vmulps	%ymm3, %ymm0, %ymm0
	vsubps	%ymm0, %ymm4, %ymm0
	vmulps	%ymm3, %ymm0, %ymm0
	vmulps	%ymm3, %ymm5, %ymm13
	vmulps	%ymm3, %ymm2, %ymm6
	vmulps	%ymm3, %ymm1, %ymm1
	vsubps	%ymm1, %ymm4, %ymm1
	vmulps	%ymm3, %ymm1, %ymm1
	vsubps	%ymm1, %ymm4, %ymm1
	vmulps	%ymm3, %ymm1, %ymm11
	vsubps	%ymm12, %ymm4, %ymm2
	vmulps	%ymm3, %ymm8, %ymm5
	vsubps	%ymm6, %ymm4, %ymm1
	vmulps	%ymm3, %ymm1, %ymm1
	vsubps	%ymm1, %ymm4, %ymm8
	vsubps	%ymm10, %ymm4, %ymm10
	vmulps	%ymm3, %ymm9, %ymm9
	vsubps	%ymm13, %ymm4, %ymm1
	vsubps	%ymm0, %ymm4, %ymm0
	vsubps	%ymm5, %ymm4, %ymm5
	vmulps	%ymm3, %ymm5, %ymm5
	vsubps	%ymm5, %ymm4, %ymm5
	vmulps	%ymm3, %ymm5, %ymm5
	vsubps	%ymm5, %ymm4, %ymm5
	vmulps	%ymm3, %ymm5, %ymm6
	vmulps	%ymm3, %ymm2, %ymm2
	vmulps	%ymm3, %ymm0, %ymm0
	vsubps	%ymm0, %ymm4, %ymm0
	vmulps	%ymm3, %ymm0, %ymm5
	vmulps	%ymm3, %ymm1, %ymm0
	vsubps	%ymm0, %ymm4, %ymm12
	vsubps	%ymm11, %ymm4, %ymm0
	vsubps	%ymm5, %ymm4, %ymm13
	vsubps	%ymm2, %ymm4, %ymm5
	vsubps	%ymm6, %ymm4, %ymm1
	vsubps	%ymm9, %ymm4, %ymm2
	vmulps	%ymm3, %ymm2, %ymm2
	vsubps	%ymm2, %ymm4, %ymm2
	vmulps	%ymm3, %ymm2, %ymm2
	vsubps	%ymm2, %ymm4, %ymm2
	vmulps	%ymm3, %ymm10, %ymm9
	vmulps	%ymm3, %ymm8, %ymm11
	vmulps	%ymm3, %ymm1, %ymm1
	vmulps	%ymm3, %ymm5, %ymm5
	vmulps	%ymm3, %ymm13, %ymm6
	vmulps	%ymm3, %ymm0, %ymm0
	vsubps	%ymm0, %ymm4, %ymm0
	vmulps	%ymm3, %ymm0, %ymm0
	vsubps	%ymm0, %ymm4, %ymm8
	vmulps	%ymm3, %ymm12, %ymm10
	vsubps	%ymm6, %ymm4, %ymm0
	vsubps	%ymm5, %ymm4, %ymm5
	vmulps	%ymm3, %ymm0, %ymm0
	vmulps	%ymm3, %ymm2, %ymm2
	vsubps	%ymm1, %ymm4, %ymm6
	vsubps	%ymm11, %ymm4, %ymm1
	vmulps	%ymm3, %ymm1, %ymm1
	vsubps	%ymm1, %ymm4, %ymm1
	vmulps	%ymm3, %ymm1, %ymm1
	vsubps	%ymm1, %ymm4, %ymm11
	vsubps	%ymm9, %ymm4, %ymm1
	vmulps	%ymm3, %ymm6, %ymm6
	vmulps	%ymm3, %ymm5, %ymm12
	vsubps	%ymm10, %ymm4, %ymm5
	vmulps	%ymm3, %ymm5, %ymm5
	vsubps	%ymm5, %ymm4, %ymm5
	vmulps	%ymm3, %ymm5, %ymm9
	vsubps	%ymm2, %ymm4, %ymm10
	vsubps	%ymm0, %ymm4, %ymm0
	vmulps	%ymm3, %ymm8, %ymm5
	vsubps	%ymm12, %ymm4, %ymm8
	vsubps	%ymm6, %ymm4, %ymm2
	vmulps	%ymm3, %ymm2, %ymm6
	vmulps	%ymm3, %ymm1, %ymm1
	vsubps	%ymm1, %ymm4, %ymm1
	vmulps	%ymm3, %ymm1, %ymm1
	vsubps	%ymm1, %ymm4, %ymm2
	vmulps	%ymm3, %ymm11, %ymm1
	vmulps	%ymm3, %ymm8, %ymm11
	vsubps	%ymm6, %ymm4, %ymm6
	vsubps	%ymm5, %ymm4, %ymm5
	vmulps	%ymm3, %ymm5, %ymm5
	vsubps	%ymm5, %ymm4, %ymm5
	vmulps	%ymm3, %ymm5, %ymm14
	vmulps	%ymm3, %ymm0, %ymm0
	vmulps	%ymm3, %ymm10, %ymm10
	vsubps	%ymm9, %ymm4, %ymm13
	vmulps	%ymm3, %ymm6, %ymm5
	vsubps	%ymm5, %ymm4, %ymm5
	vsubps	%ymm1, %ymm4, %ymm1
	vmulps	%ymm3, %ymm1, %ymm1
	vsubps	%ymm1, %ymm4, %ymm1
	vmulps	%ymm3, %ymm5, %ymm5
	vmulps	%ymm3, %ymm2, %ymm2
	vsubps	%ymm2, %ymm4, %ymm2
	vmulps	%ymm3, %ymm2, %ymm2
	vsubps	%ymm2, %ymm4, %ymm2
	vmulps	%ymm3, %ymm2, %ymm2
	vsubps	%ymm2, %ymm4, %ymm8
	vsubps	%ymm5, %ymm4, %ymm9
	vsubps	%ymm10, %ymm4, %ymm10
	vsubps	%ymm0, %ymm4, %ymm12
	vsubps	%ymm14, %ymm4, %ymm0
	vsubps	%ymm11, %ymm4, %ymm2
	vmulps	%ymm3, %ymm1, %ymm1
	vsubps	%ymm1, %ymm4, %ymm1
	vmulps	%ymm3, %ymm1, %ymm5
	vmulps	%ymm3, %ymm13, %ymm1
	vsubps	%ymm1, %ymm4, %ymm1
	vmulps	%ymm3, %ymm1, %ymm1
	vsubps	%ymm1, %ymm4, %ymm1
	vmulps	%ymm3, %ymm2, %ymm11
	vsubps	%ymm5, %ymm4, %ymm2
	vmulps	%ymm3, %ymm2, %ymm2
	vsubps	%ymm2, %ymm4, %ymm2
	vmulps	%ymm3, %ymm2, %ymm2
	vmulps	%ymm3, %ymm0, %ymm0
	vsubps	%ymm0, %ymm4, %ymm0
	vmulps	%ymm3, %ymm0, %ymm0
	vmulps	%ymm3, %ymm1, %ymm5
	vsubps	%ymm2, %ymm4, %ymm1
	vmulps	%ymm3, %ymm1, %ymm1
	vmulps	%ymm3, %ymm12, %ymm2
	vsubps	%ymm2, %ymm4, %ymm2
	vmulps	%ymm3, %ymm2, %ymm12
	vmulps	%ymm3, %ymm10, %ymm13
	vsubps	%ymm1, %ymm4, %ymm2
	vmulps	%ymm3, %ymm9, %ymm9
	vmulps	%ymm3, %ymm8, %ymm1
	vsubps	%ymm5, %ymm4, %ymm5
	vsubps	%ymm0, %ymm4, %ymm0
	vsubps	%ymm11, %ymm4, %ymm6
	vmulps	%ymm3, %ymm6, %ymm6
	vsubps	%ymm6, %ymm4, %ymm6
	vmulps	%ymm3, %ymm6, %ymm6
	vsubps	%ymm6, %ymm4, %ymm6
	vmulps	%ymm3, %ymm6, %ymm10
	vmulps	%ymm3, %ymm0, %ymm0
	vmulps	%ymm3, %ymm5, %ymm14
	vsubps	%ymm1, %ymm4, %ymm1
	vsubps	%ymm9, %ymm4, %ymm5
	vsubps	%ymm13, %ymm4, %ymm8
	vmulps	%ymm3, %ymm2, %ymm6
	vsubps	%ymm12, %ymm4, %ymm2
	vmulps	%ymm3, %ymm2, %ymm2
	vsubps	%ymm2, %ymm4, %ymm2
	vmulps	%ymm3, %ymm2, %ymm2
	vsubps	%ymm2, %ymm4, %ymm2
	vmulps	%ymm3, %ymm2, %ymm2
	vmulps	%ymm3, %ymm8, %ymm9
	vsubps	%ymm6, %ymm4, %ymm8
	vmulps	%ymm3, %ymm5, %ymm11
	vmulps	%ymm3, %ymm1, %ymm12
	vsubps	%ymm14, %ymm4, %ymm5
	vsubps	%ymm0, %ymm4, %ymm1
	vsubps	%ymm10, %ymm4, %ymm0
	vmulps	%ymm3, %ymm0, %ymm0
	vsubps	%ymm0, %ymm4, %ymm0
	vmulps	%ymm3, %ymm0, %ymm0
	vsubps	%ymm0, %ymm4, %ymm0
	vmulps	%ymm3, %ymm0, %ymm0
	vsubps	%ymm0, %ymm4, %ymm0
	vmulps	%ymm3, %ymm1, %ymm1
	vmulps	%ymm3, %ymm5, %ymm10
	vsubps	%ymm2, %ymm4, %ymm2
	vmulps	%ymm3, %ymm2, %ymm2
	vsubps	%ymm2, %ymm4, %ymm5
	vsubps	%ymm12, %ymm4, %ymm2
	vmulps	%ymm3, %ymm2, %ymm2
	vsubps	%ymm2, %ymm4, %ymm2
	vmulps	%ymm3, %ymm2, %ymm13
	vsubps	%ymm11, %ymm4, %ymm11
	vsubps	%ymm9, %ymm4, %ymm2
	vsubps	%ymm1, %ymm4, %ymm9
	vmulps	%ymm3, %ymm5, %ymm1
	vsubps	%ymm1, %ymm4, %ymm1
	vmulps	%ymm3, %ymm1, %ymm1
	vmulps	%ymm3, %ymm8, %ymm5
	vmulps	%ymm3, %ymm0, %ymm0
	vsubps	%ymm0, %ymm4, %ymm0
	vmulps	%ymm3, %ymm0, %ymm0
	vmulps	%ymm3, %ymm2, %ymm2
	vsubps	%ymm2, %ymm4, %ymm2
	vmulps	%ymm3, %ymm2, %ymm12
	vsubps	%ymm0, %ymm4, %ymm2
	vsubps	%ymm5, %ymm4, %ymm15
	vmulps	%ymm3, %ymm11, %ymm5
	vsubps	%ymm1, %ymm4, %ymm1
	vsubps	%ymm13, %ymm4, %ymm0
	vsubps	%ymm10, %ymm4, %ymm6
	vmulps	%ymm3, %ymm6, %ymm6
	vsubps	%ymm6, %ymm4, %ymm6
	vmulps	%ymm3, %ymm6, %ymm6
	vsubps	%ymm6, %ymm4, %ymm6
	vmulps	%ymm3, %ymm6, %ymm6
	vsubps	%ymm6, %ymm4, %ymm13
	vmulps	%ymm3, %ymm0, %ymm0
	vsubps	%ymm5, %ymm4, %ymm8
	vmulps	%ymm3, %ymm1, %ymm14
	vmulps	%ymm3, %ymm15, %ymm11
	vmulps	%ymm3, %ymm9, %ymm9
	vmulps	%ymm3, %ymm2, %ymm1
	vsubps	%ymm12, %ymm4, %ymm2
	vmulps	%ymm3, %ymm2, %ymm2
	vsubps	%ymm2, %ymm4, %ymm2
	vmulps	%ymm3, %ymm2, %ymm2
	vsubps	%ymm2, %ymm4, %ymm2
	vmulps	%ymm3, %ymm2, %ymm2
	vsubps	%ymm2, %ymm4, %ymm2
	vsubps	%ymm1, %ymm4, %ymm1
	vmulps	%ymm3, %ymm1, %ymm1
	vsubps	%ymm1, %ymm4, %ymm10
	vsubps	%ymm14, %ymm4, %ymm12
	vsubps	%ymm0, %ymm4, %ymm0
	vmulps	%ymm3, %ymm13, %ymm1
	vsubps	%ymm9, %ymm4, %ymm9
	vmulps	%ymm3, %ymm2, %ymm2
	vsubps	%ymm2, %ymm4, %ymm2
	vmulps	%ymm3, %ymm2, %ymm2
	vsubps	%ymm2, %ymm4, %ymm2
	vsubps	%ymm11, %ymm4, %ymm5
	vmulps	%ymm3, %ymm5, %ymm5
	vsubps	%ymm5, %ymm4, %ymm5
	vmulps	%ymm3, %ymm5, %ymm5
	vsubps	%ymm5, %ymm4, %ymm5
	vsubps	%ymm1, %ymm4, %ymm11
	vmulps	%ymm3, %ymm5, %ymm5
	vmulps	%ymm3, %ymm2, %ymm1
	vmulps	%ymm3, %ymm0, %ymm0
	vsubps	%ymm0, %ymm4, %ymm0
	vmulps	%ymm3, %ymm0, %ymm0
	vsubps	%ymm0, %ymm4, %ymm2
	vsubps	%ymm1, %ymm4, %ymm13
	vmulps	%ymm3, %ymm12, %ymm1
	vsubps	%ymm5, %ymm4, %ymm5
	vmulps	%ymm3, %ymm10, %ymm0
	vmulps	%ymm3, %ymm8, %ymm6
	vsubps	%ymm6, %ymm4, %ymm6
	vmulps	%ymm3, %ymm6, %ymm6
	vsubps	%ymm6, %ymm4, %ymm6
	vmulps	%ymm3, %ymm6, %ymm10
	vsubps	%ymm0, %ymm4, %ymm0
	vmulps	%ymm3, %ymm5, %ymm12
	vsubps	%ymm1, %ymm4, %ymm1
	vmulps	%ymm3, %ymm13, %ymm5
	vmulps	%ymm3, %ymm2, %ymm2
	vmulps	%ymm3, %ymm11, %ymm6
	vsubps	%ymm6, %ymm4, %ymm6
	vmulps	%ymm3, %ymm6, %ymm7
	vmulps	%ymm3, %ymm9, %ymm6
	vsubps	%ymm6, %ymm4, %ymm6
	vmulps	%ymm3, %ymm6, %ymm6
	vsubps	%ymm7, %ymm4, %ymm8
	vsubps	%ymm2, %ymm4, %ymm2
	vsubps	%ymm5, %ymm4, %ymm9
	vmulps	%ymm3, %ymm1, %ymm1
	vsubps	%ymm12, %ymm4, %ymm5
	vmulps	%ymm3, %ymm0, %ymm0
	vsubps	%ymm10, %ymm4, %ymm7
	vmulps	%ymm3, %ymm7, %ymm7
	vsubps	%ymm7, %ymm4, %ymm7
	vsubps	%ymm6, %ymm4, %ymm6
	vmulps	%ymm3, %ymm6, %ymm6
	vsubps	%ymm6, %ymm4, %ymm10
	vmulps	%ymm3, %ymm7, %ymm12
	vsubps	%ymm0, %ymm4, %ymm0
	vmulps	%ymm3, %ymm5, %ymm13
	vsubps	%ymm1, %ymm4, %ymm1
	vmulps	%ymm3, %ymm9, %ymm6
	vmulps	%ymm3, %ymm2, %ymm2
	vmulps	%ymm3, %ymm8, %ymm5
	vsubps	%ymm5, %ymm4, %ymm5
	vmulps	%ymm3, %ymm5, %ymm5
	vsubps	%ymm5, %ymm4, %ymm5
	vmulps	%ymm3, %ymm5, %ymm5
	vsubps	%ymm5, %ymm4, %ymm5
	vmulps	%ymm3, %ymm5, %ymm5
	vsubps	%ymm2, %ymm4, %ymm8
	vsubps	%ymm6, %ymm4, %ymm9
	vmulps	%ymm3, %ymm1, %ymm11
	vsubps	%ymm13, %ymm4, %ymm2
	vmulps	%ymm3, %ymm0, %ymm1
	vsubps	%ymm12, %ymm4, %ymm6
	vmulps	%ymm3, %ymm10, %ymm0
	vsubps	%ymm0, %ymm4, %ymm0
	vmulps	%ymm3, %ymm0, %ymm0
	vsubps	%ymm5, %ymm4, %ymm5
	vmulps	%ymm3, %ymm5, %ymm5
	vsubps	%ymm5, %ymm4, %ymm5
	vmulps	%ymm3, %ymm5, %ymm5
	vmulps	%ymm3, %ymm6, %ymm6
	vsubps	%ymm6, %ymm4, %ymm6
	vmulps	%ymm3, %ymm6, %ymm6
	vsubps	%ymm5, %ymm4, %ymm5
	vsubps	%ymm1, %ymm4, %ymm1
	vmulps	%ymm3, %ymm1, %ymm10
	vmulps	%ymm3, %ymm5, %ymm12
	vmulps	%ymm3, %ymm2, %ymm13
	vsubps	%ymm11, %ymm4, %ymm2
	vmulps	%ymm3, %ymm9, %ymm1
	vmulps	%ymm3, %ymm8, %ymm5
	vsubps	%ymm6, %ymm4, %ymm6
	vsubps	%ymm0, %ymm4, %ymm0
	vmulps	%ymm3, %ymm0, %ymm0
	vsubps	%ymm0, %ymm4, %ymm0
	vmulps	%ymm3, %ymm0, %ymm0
	vsubps	%ymm0, %ymm4, %ymm0
	vmulps	%ymm3, %ymm0, %ymm0
	vmulps	%ymm3, %ymm6, %ymm6
	vsubps	%ymm5, %ymm4, %ymm5
	vmulps	%ymm3, %ymm5, %ymm8
	vsubps	%ymm1, %ymm4, %ymm11
	vmulps	%ymm3, %ymm2, %ymm2
	vsubps	%ymm13, %ymm4, %ymm9
	vsubps	%ymm12, %ymm4, %ymm1
	vsubps	%ymm10, %ymm4, %ymm5
	vsubps	%ymm6, %ymm4, %ymm6
	vmulps	%ymm3, %ymm6, %ymm6
	vsubps	%ymm6, %ymm4, %ymm6
	vmulps	%ymm3, %ymm6, %ymm6
	vsubps	%ymm6, %ymm4, %ymm6
	vsubps	%ymm0, %ymm4, %ymm13
	vmulps	%ymm3, %ymm6, %ymm0
	vmulps	%ymm3, %ymm5, %ymm5
	vsubps	%ymm5, %ymm4, %ymm5
	vsubps	%ymm0, %ymm4, %ymm0
	vmulps	%ymm3, %ymm0, %ymm0
	vmulps	%ymm3, %ymm1, %ymm10
	vmulps	%ymm3, %ymm9, %ymm9
	vsubps	%ymm2, %ymm4, %ymm12
	vmulps	%ymm3, %ymm11, %ymm11
	vsubps	%ymm8, %ymm4, %ymm1
	vmulps	%ymm3, %ymm5, %ymm2
	vsubps	%ymm2, %ymm4, %ymm2
	vmulps	%ymm3, %ymm2, %ymm2
	vsubps	%ymm2, %ymm4, %ymm2
	vmulps	%ymm3, %ymm2, %ymm5
	vmulps	%ymm3, %ymm13, %ymm2
	vsubps	%ymm2, %ymm4, %ymm13
	vmulps	%ymm3, %ymm1, %ymm2
	vsubps	%ymm5, %ymm4, %ymm1
	vmulps	%ymm3, %ymm1, %ymm1
	vsubps	%ymm1, %ymm4, %ymm1
	vsubps	%ymm0, %ymm4, %ymm0
	vsubps	%ymm11, %ymm4, %ymm5
	vmulps	%ymm3, %ymm5, %ymm5
	vsubps	%ymm5, %ymm4, %ymm5
	vmulps	%ymm3, %ymm5, %ymm5
	vsubps	%ymm5, %ymm4, %ymm11
	vmulps	%ymm3, %ymm12, %ymm8
	vsubps	%ymm9, %ymm4, %ymm9
	vmulps	%ymm3, %ymm0, %ymm0
	vsubps	%ymm0, %ymm4, %ymm0
	vmulps	%ymm3, %ymm1, %ymm12
	vsubps	%ymm10, %ymm4, %ymm1
	vsubps	%ymm2, %ymm4, %ymm2
	vmulps	%ymm3, %ymm13, %ymm5
	vsubps	%ymm5, %ymm4, %ymm5
	vmulps	%ymm3, %ymm5, %ymm5
	vsubps	%ymm5, %ymm4, %ymm5
	vmulps	%ymm3, %ymm5, %ymm5
	vsubps	%ymm5, %ymm4, %ymm5
	vmulps	%ymm3, %ymm5, %ymm5
	vmulps	%ymm3, %ymm2, %ymm2
	vsubps	%ymm2, %ymm4, %ymm13
	vsubps	%ymm5, %ymm4, %ymm2
	vmulps	%ymm3, %ymm1, %ymm1
	vsubps	%ymm12, %ymm4, %ymm5
	vmulps	%ymm3, %ymm0, %ymm0
	vmulps	%ymm3, %ymm11, %ymm6
	vsubps	%ymm6, %ymm4, %ymm6
	vmulps	%ymm3, %ymm6, %ymm6
	vsubps	%ymm6, %ymm4, %ymm6
	vmulps	%ymm3, %ymm6, %ymm6
	vsubps	%ymm6, %ymm4, %ymm6
	vmulps	%ymm3, %ymm6, %ymm10
	vsubps	%ymm0, %ymm4, %ymm11
	vmulps	%ymm3, %ymm5, %ymm12
	vsubps	%ymm1, %ymm4, %ymm0
	vmulps	%ymm3, %ymm9, %ymm1
	vsubps	%ymm8, %ymm4, %ymm8
	vmulps	%ymm3, %ymm2, %ymm5
	vmulps	%ymm3, %ymm13, %ymm2
	vsubps	%ymm2, %ymm4, %ymm2
	vmulps	%ymm3, %ymm2, %ymm2
	vsubps	%ymm2, %ymm4, %ymm2
	vmulps	%ymm3, %ymm2, %ymm2
	vsubps	%ymm2, %ymm4, %ymm2
	vsubps	%ymm5, %ymm4, %ymm5
	vsubps	%ymm1, %ymm4, %ymm1
	vmulps	%ymm3, %ymm1, %ymm1
	vsubps	%ymm1, %ymm4, %ymm1
	vmulps	%ymm3, %ymm1, %ymm13
	vmulps	%ymm3, %ymm5, %ymm14
	vmulps	%ymm3, %ymm0, %ymm0
	vsubps	%ymm12, %ymm4, %ymm9
	vmulps	%ymm3, %ymm11, %ymm1
	vsubps	%ymm10, %ymm4, %ymm5
	vmulps	%ymm3, %ymm2, %ymm6
	vmulps	%ymm3, %ymm8, %ymm2
	vsubps	%ymm2, %ymm4, %ymm2
	vmulps	%ymm3, %ymm2, %ymm2
	vsubps	%ymm2, %ymm4, %ymm2
	vmulps	%ymm3, %ymm2, %ymm2
	vsubps	%ymm2, %ymm4, %ymm2
	vsubps	%ymm6, %ymm4, %ymm6
	vmulps	%ymm3, %ymm5, %ymm5
	vsubps	%ymm5, %ymm4, %ymm11
	vsubps	%ymm1, %ymm4, %ymm8
	vmulps	%ymm3, %ymm9, %ymm9
	vsubps	%ymm0, %ymm4, %ymm12
	vsubps	%ymm14, %ymm4, %ymm0
	vsubps	%ymm13, %ymm4, %ymm1
	vmulps	%ymm3, %ymm6, %ymm5
	vsubps	%ymm5, %ymm4, %ymm5
	vmulps	%ymm3, %ymm5, %ymm5
	vsubps	%ymm5, %ymm4, %ymm5
	vmulps	%ymm3, %ymm5, %ymm5
	vmulps	%ymm3, %ymm2, %ymm2
	vsubps	%ymm2, %ymm4, %ymm10
	vmulps	%ymm3, %ymm1, %ymm13
	vsubps	%ymm5, %ymm4, %ymm1
	vmulps	%ymm3, %ymm1, %ymm1
	vsubps	%ymm1, %ymm4, %ymm1
	vmulps	%ymm3, %ymm1, %ymm1
	vmulps	%ymm3, %ymm0, %ymm0
	vsubps	%ymm0, %ymm4, %ymm0
	vmulps	%ymm3, %ymm0, %ymm0
	vsubps	%ymm1, %ymm4, %ymm1
	vmulps	%ymm3, %ymm11, %ymm2
	vmulps	%ymm3, %ymm12, %ymm5
	vsubps	%ymm5, %ymm4, %ymm5
	vmulps	%ymm3, %ymm5, %ymm5
	vsubps	%ymm5, %ymm4, %ymm5
	vmulps	%ymm3, %ymm5, %ymm11
	vsubps	%ymm2, %ymm4, %ymm12
	vsubps	%ymm9, %ymm4, %ymm9
	vmulps	%ymm3, %ymm1, %ymm2
	vmulps	%ymm3, %ymm8, %ymm14
	vsubps	%ymm0, %ymm4, %ymm1
	vsubps	%ymm13, %ymm4, %ymm0
	vmulps	%ymm3, %ymm10, %ymm5
	vsubps	%ymm5, %ymm4, %ymm5
	vmulps	%ymm3, %ymm5, %ymm5
	vsubps	%ymm5, %ymm4, %ymm5
	vmulps	%ymm3, %ymm5, %ymm5
	vsubps	%ymm5, %ymm4, %ymm5
	vmulps	%ymm3, %ymm5, %ymm5
	vmulps	%ymm3, %ymm0, %ymm0
	vsubps	%ymm0, %ymm4, %ymm8
	vsubps	%ymm5, %ymm4, %ymm0
	vmulps	%ymm3, %ymm1, %ymm13
	vsubps	%ymm14, %ymm4, %ymm1
	vmulps	%ymm3, %ymm9, %ymm10
	vsubps	%ymm2, %ymm4, %ymm5
	vmulps	%ymm3, %ymm12, %ymm6
	vsubps	%ymm11, %ymm4, %ymm2
	vmulps	%ymm3, %ymm2, %ymm2
	vsubps	%ymm2, %ymm4, %ymm2
	vmulps	%ymm3, %ymm2, %ymm2
	vsubps	%ymm2, %ymm4, %ymm2
	vmulps	%ymm3, %ymm2, %ymm2
	vsubps	%ymm2, %ymm4, %ymm2
	vsubps	%ymm6, %ymm4, %ymm14
	vmulps	%ymm3, %ymm5, %ymm5
	vmulps	%ymm3, %ymm1, %ymm12
	vsubps	%ymm13, %ymm4, %ymm1
	vmulps	%ymm3, %ymm0, %ymm0
	vmulps	%ymm3, %ymm8, %ymm6
	vsubps	%ymm6, %ymm4, %ymm6
	vmulps	%ymm3, %ymm6, %ymm6
	vsubps	%ymm6, %ymm4, %ymm6
	vmulps	%ymm3, %ymm6, %ymm13
	vsubps	%ymm0, %ymm4, %ymm9
	vsubps	%ymm5, %ymm4, %ymm11
	vmulps	%ymm3, %ymm14, %ymm8
	vsubps	%ymm10, %ymm4, %ymm10
	vmulps	%ymm3, %ymm2, %ymm2
	vmulps	%ymm3, %ymm1, %ymm0
	vsubps	%ymm0, %ymm4, %ymm0
	vmulps	%ymm3, %ymm0, %ymm0
	vsubps	%ymm0, %ymm4, %ymm0
	vmulps	%ymm3, %ymm0, %ymm0
	vsubps	%ymm0, %ymm4, %ymm0
	vsubps	%ymm12, %ymm4, %ymm1
	vsubps	%ymm2, %ymm4, %ymm5
	vsubps	%ymm13, %ymm4, %ymm2
	vmulps	%ymm3, %ymm2, %ymm2
	vsubps	%ymm2, %ymm4, %ymm2
	vmulps	%ymm3, %ymm2, %ymm2
	vsubps	%ymm2, %ymm4, %ymm2
	vmulps	%ymm3, %ymm2, %ymm2
	vmulps	%ymm3, %ymm5, %ymm5
	vmulps	%ymm3, %ymm1, %ymm1
	vsubps	%ymm1, %ymm4, %ymm1
	vmulps	%ymm3, %ymm1, %ymm1
	vsubps	%ymm1, %ymm4, %ymm12
	vsubps	%ymm5, %ymm4, %ymm13
	vmulps	%ymm3, %ymm0, %ymm0
	vmulps	%ymm3, %ymm11, %ymm14
	vmulps	%ymm3, %ymm9, %ymm1
	vmulps	%ymm3, %ymm10, %ymm9
	vsubps	%ymm2, %ymm4, %ymm2
	vmulps	%ymm3, %ymm2, %ymm2
	vsubps	%ymm2, %ymm4, %ymm2
	vmulps	%ymm3, %ymm2, %ymm2
	vsubps	%ymm2, %ymm4, %ymm2
	vsubps	%ymm8, %ymm4, %ymm5
	vmulps	%ymm3, %ymm5, %ymm5
	vsubps	%ymm5, %ymm4, %ymm5
	vmulps	%ymm3, %ymm5, %ymm5
	vsubps	%ymm5, %ymm4, %ymm10
	vsubps	%ymm1, %ymm4, %ymm11
	vmulps	%ymm3, %ymm2, %ymm2
	vsubps	%ymm14, %ymm4, %ymm8
	vsubps	%ymm0, %ymm4, %ymm0
	vmulps	%ymm3, %ymm13, %ymm6
	vmulps	%ymm3, %ymm12, %ymm1
	vsubps	%ymm1, %ymm4, %ymm5
	vsubps	%ymm9, %ymm4, %ymm1
	vmulps	%ymm3, %ymm1, %ymm1
	vsubps	%ymm1, %ymm4, %ymm1
	vmulps	%ymm3, %ymm1, %ymm1
	vmulps	%ymm3, %ymm5, %ymm5
	vsubps	%ymm6, %ymm4, %ymm6
	vmulps	%ymm3, %ymm0, %ymm9
	vmulps	%ymm3, %ymm8, %ymm8
	vmulps	%ymm3, %ymm11, %ymm11
	vsubps	%ymm2, %ymm4, %ymm0
	vmulps	%ymm3, %ymm0, %ymm0
	vsubps	%ymm0, %ymm4, %ymm0
	vmulps	%ymm3, %ymm0, %ymm0
	vmulps	%ymm3, %ymm10, %ymm12
	vmulps	%ymm3, %ymm6, %ymm6
	vsubps	%ymm5, %ymm4, %ymm2
	vsubps	%ymm1, %ymm4, %ymm1
	vmulps	%ymm3, %ymm1, %ymm1
	vsubps	%ymm1, %ymm4, %ymm1
	vmulps	%ymm3, %ymm1, %ymm1
	vsubps	%ymm1, %ymm4, %ymm1
	vmulps	%ymm3, %ymm1, %ymm1
	vsubps	%ymm1, %ymm4, %ymm10
	vmulps	%ymm3, %ymm2, %ymm2
	vsubps	%ymm6, %ymm4, %ymm13
	vsubps	%ymm12, %ymm4, %ymm1
	vsubps	%ymm0, %ymm4, %ymm5
	vsubps	%ymm9, %ymm4, %ymm6
	vsubps	%ymm11, %ymm4, %ymm0
	vmulps	%ymm3, %ymm0, %ymm0
	vsubps	%ymm0, %ymm4, %ymm0
	vmulps	%ymm3, %ymm0, %ymm0
	vsubps	%ymm0, %ymm4, %ymm0
	vmulps	%ymm3, %ymm0, %ymm0
	vsubps	%ymm8, %ymm4, %ymm12
	vmulps	%ymm3, %ymm6, %ymm8
	vmulps	%ymm3, %ymm5, %ymm11
	vmulps	%ymm3, %ymm1, %ymm9
	vmulps	%ymm3, %ymm13, %ymm13
	vsubps	%ymm2, %ymm4, %ymm1
	vmulps	%ymm3, %ymm10, %ymm2
	vsubps	%ymm2, %ymm4, %ymm2
	vmulps	%ymm3, %ymm2, %ymm2
	vsubps	%ymm2, %ymm4, %ymm2
	vmulps	%ymm3, %ymm2, %ymm2
	vsubps	%ymm2, %ymm4, %ymm2
	vmulps	%ymm3, %ymm2, %ymm2
	vmulps	%ymm3, %ymm1, %ymm1
	vsubps	%ymm1, %ymm4, %ymm10
	vmulps	%ymm3, %ymm12, %ymm12
	vsubps	%ymm0, %ymm4, %ymm0
	vsubps	%ymm2, %ymm4, %ymm1
	vsubps	%ymm13, %ymm4, %ymm2
	vmulps	%ymm3, %ymm2, %ymm2
	vsubps	%ymm2, %ymm4, %ymm2
	vmulps	%ymm3, %ymm2, %ymm2
	vsubps	%ymm2, %ymm4, %ymm13
	vsubps	%ymm8, %ymm4, %ymm8
	vsubps	%ymm9, %ymm4, %ymm9
	vmulps	%ymm3, %ymm1, %ymm1
	vsubps	%ymm1, %ymm4, %ymm1
	vmulps	%ymm3, %ymm1, %ymm1
	vsubps	%ymm1, %ymm4, %ymm1
	vmulps	%ymm3, %ymm1, %ymm5
	vsubps	%ymm11, %ymm4, %ymm1
	vmulps	%ymm3, %ymm0, %ymm0
	vsubps	%ymm0, %ymm4, %ymm0
	vmulps	%ymm3, %ymm0, %ymm0
	vsubps	%ymm0, %ymm4, %ymm0
	vmulps	%ymm3, %ymm0, %ymm0
	vsubps	%ymm0, %ymm4, %ymm2
	vsubps	%ymm12, %ymm4, %ymm11
	vmulps	%ymm3, %ymm1, %ymm0
	vsubps	%ymm0, %ymm4, %ymm1
	vsubps	%ymm5, %ymm4, %ymm5
	vmulps	%ymm3, %ymm13, %ymm6
	vmulps	%ymm3, %ymm10, %ymm0
	vsubps	%ymm0, %ymm4, %ymm0
	vmulps	%ymm3, %ymm0, %ymm0
	vsubps	%ymm0, %ymm4, %ymm0
	vmulps	%ymm3, %ymm0, %ymm0
	vsubps	%ymm0, %ymm4, %ymm0
	vsubps	%ymm6, %ymm4, %ymm12
	vmulps	%ymm3, %ymm5, %ymm13
	vmulps	%ymm3, %ymm1, %ymm1
	vmulps	%ymm3, %ymm2, %ymm2
	vmulps	%ymm3, %ymm9, %ymm5
	vsubps	%ymm5, %ymm4, %ymm5
	vmulps	%ymm3, %ymm5, %ymm5
	vsubps	%ymm5, %ymm4, %ymm9
	vmulps	%ymm3, %ymm8, %ymm8
	vsubps	%ymm2, %ymm4, %ymm2
	vmulps	%ymm3, %ymm2, %ymm2
	vsubps	%ymm2, %ymm4, %ymm10
	vsubps	%ymm1, %ymm4, %ymm1
	vsubps	%ymm13, %ymm4, %ymm5
	vmulps	%ymm3, %ymm12, %ymm6
	vmulps	%ymm3, %ymm0, %ymm0
	vmulps	%ymm3, %ymm11, %ymm2
	vsubps	%ymm2, %ymm4, %ymm2
	vmulps	%ymm3, %ymm2, %ymm2
	vsubps	%ymm2, %ymm4, %ymm2
	vmulps	%ymm3, %ymm2, %ymm2
	vsubps	%ymm2, %ymm4, %ymm2
	vsubps	%ymm0, %ymm4, %ymm11
	vsubps	%ymm6, %ymm4, %ymm13
	vmulps	%ymm3, %ymm5, %ymm5
	vmulps	%ymm3, %ymm1, %ymm1
	vmulps	%ymm3, %ymm10, %ymm0
	vmulps	%ymm3, %ymm9, %ymm6
	vsubps	%ymm6, %ymm4, %ymm6
	vmulps	%ymm3, %ymm6, %ymm6
	vsubps	%ymm6, %ymm4, %ymm6
	vmulps	%ymm3, %ymm6, %ymm6
	vsubps	%ymm6, %ymm4, %ymm10
	vsubps	%ymm0, %ymm4, %ymm0
	vsubps	%ymm1, %ymm4, %ymm12
	vsubps	%ymm5, %ymm4, %ymm1
	vmulps	%ymm3, %ymm13, %ymm5
	vmulps	%ymm3, %ymm11, %ymm9
	vmulps	%ymm3, %ymm2, %ymm2
	vsubps	%ymm2, %ymm4, %ymm2
	vsubps	%ymm8, %ymm4, %ymm6
	vmulps	%ymm3, %ymm6, %ymm6
	vsubps	%ymm6, %ymm4, %ymm6
	vmulps	%ymm3, %ymm6, %ymm8
	vmulps	%ymm3, %ymm2, %ymm6
	vsubps	%ymm9, %ymm4, %ymm2
	vmulps	%ymm3, %ymm2, %ymm9
	vsubps	%ymm5, %ymm4, %ymm2
	vmulps	%ymm3, %ymm1, %ymm11
	vmulps	%ymm3, %ymm12, %ymm1
	vmulps	%ymm3, %ymm0, %ymm0
	vmulps	%ymm3, %ymm10, %ymm10
	vsubps	%ymm6, %ymm4, %ymm5
	vmulps	%ymm3, %ymm5, %ymm5
	vsubps	%ymm5, %ymm4, %ymm6
	vsubps	%ymm8, %ymm4, %ymm5
	vmulps	%ymm3, %ymm5, %ymm5
	vsubps	%ymm5, %ymm4, %ymm5
	vmulps	%ymm3, %ymm6, %ymm6
	vsubps	%ymm10, %ymm4, %ymm7
	vmulps	%ymm3, %ymm7, %ymm8
	vsubps	%ymm0, %ymm4, %ymm10
	vsubps	%ymm1, %ymm4, %ymm0
	vsubps	%ymm11, %ymm4, %ymm13
	vmulps	%ymm3, %ymm2, %ymm1
	vsubps	%ymm9, %ymm4, %ymm2
	vsubps	%ymm6, %ymm4, %ymm6
	vmulps	%ymm3, %ymm6, %ymm6
	vmulps	%ymm3, %ymm5, %ymm12
	vsubps	%ymm6, %ymm4, %ymm5
	vmulps	%ymm3, %ymm5, %ymm5
	vsubps	%ymm5, %ymm4, %ymm5
	vmulps	%ymm3, %ymm5, %ymm5
	vmulps	%ymm3, %ymm2, %ymm6
	vsubps	%ymm5, %ymm4, %ymm2
	vsubps	%ymm1, %ymm4, %ymm1
	vmulps	%ymm3, %ymm1, %ymm9
	vmulps	%ymm3, %ymm2, %ymm11
	vmulps	%ymm3, %ymm13, %ymm2
	vmulps	%ymm3, %ymm0, %ymm14
	vmulps	%ymm3, %ymm10, %ymm1
	vsubps	%ymm8, %ymm4, %ymm5
	vsubps	%ymm6, %ymm4, %ymm0
	vsubps	%ymm12, %ymm4, %ymm6
	vmulps	%ymm3, %ymm6, %ymm6
	vsubps	%ymm6, %ymm4, %ymm6
	vmulps	%ymm3, %ymm6, %ymm6
	vsubps	%ymm6, %ymm4, %ymm6
	vmulps	%ymm3, %ymm6, %ymm6
	vsubps	%ymm6, %ymm4, %ymm8
	vmulps	%ymm3, %ymm0, %ymm0
	vmulps	%ymm3, %ymm5, %ymm13
	vsubps	%ymm1, %ymm4, %ymm1
	vsubps	%ymm14, %ymm4, %ymm5
	vsubps	%ymm2, %ymm4, %ymm2
	vsubps	%ymm11, %ymm4, %ymm6
	vsubps	%ymm9, %ymm4, %ymm7
	vmulps	%ymm3, %ymm7, %ymm7
	vsubps	%ymm7, %ymm4, %ymm7
	vmulps	%ymm3, %ymm7, %ymm7
	vsubps	%ymm7, %ymm4, %ymm7
	vmulps	%ymm3, %ymm7, %ymm11
	vmulps	%ymm3, %ymm6, %ymm12
	vmulps	%ymm3, %ymm2, %ymm9
	vmulps	%ymm3, %ymm5, %ymm10
	vmulps	%ymm3, %ymm1, %ymm2
	vsubps	%ymm13, %ymm4, %ymm1
	vsubps	%ymm0, %ymm4, %ymm0
	vmulps	%ymm3, %ymm8, %ymm5
	vsubps	%ymm5, %ymm4, %ymm5
	vmulps	%ymm3, %ymm5, %ymm5
	vsubps	%ymm5, %ymm4, %ymm5
	vmulps	%ymm3, %ymm5, %ymm5
	vsubps	%ymm5, %ymm4, %ymm5
	vmulps	%ymm3, %ymm5, %ymm6
	vmulps	%ymm3, %ymm0, %ymm0
	vmulps	%ymm3, %ymm1, %ymm8
	vsubps	%ymm12, %ymm4, %ymm1
	vmulps	%ymm3, %ymm1, %ymm5
	vsubps	%ymm11, %ymm4, %ymm1
	vsubps	%ymm6, %ymm4, %ymm6
	vsubps	%ymm2, %ymm4, %ymm2
	vmulps	%ymm3, %ymm2, %ymm2
	vsubps	%ymm2, %ymm4, %ymm2
	vmulps	%ymm3, %ymm2, %ymm2
	vsubps	%ymm2, %ymm4, %ymm14
	vsubps	%ymm10, %ymm4, %ymm10
	vmulps	%ymm3, %ymm6, %ymm2
	vmulps	%ymm3, %ymm1, %ymm1
	vsubps	%ymm5, %ymm4, %ymm5
	vsubps	%ymm9, %ymm4, %ymm9
	vsubps	%ymm0, %ymm4, %ymm0
	vmulps	%ymm3, %ymm0, %ymm0
	vsubps	%ymm0, %ymm4, %ymm0
	vmulps	%ymm3, %ymm0, %ymm0
	vsubps	%ymm0, %ymm4, %ymm0
	vmulps	%ymm3, %ymm0, %ymm0
	vsubps	%ymm0, %ymm4, %ymm6
	vmulps	%ymm3, %ymm9, %ymm12
	vmulps	%ymm3, %ymm5, %ymm13
	vsubps	%ymm1, %ymm4, %ymm0
	vmulps	%ymm3, %ymm10, %ymm11
	vsubps	%ymm2, %ymm4, %ymm1
	vmulps	%ymm3, %ymm1, %ymm9
	vmulps	%ymm3, %ymm14, %ymm10
	vsubps	%ymm8, %ymm4, %ymm8
	vmulps	%ymm3, %ymm6, %ymm1
	vsubps	%ymm1, %ymm4, %ymm1
	vmulps	%ymm3, %ymm1, %ymm1
	vsubps	%ymm1, %ymm4, %ymm1
	vmulps	%ymm3, %ymm1, %ymm1
	vsubps	%ymm1, %ymm4, %ymm1
	vmulps	%ymm3, %ymm1, %ymm1
	vmulps	%ymm3, %ymm0, %ymm0
	vsubps	%ymm0, %ymm4, %ymm0
	vmulps	%ymm3, %ymm0, %ymm0
	vsubps	%ymm0, %ymm4, %ymm0
	vmulps	%ymm3, %ymm0, %ymm2
	vsubps	%ymm1, %ymm4, %ymm6
	vsubps	%ymm13, %ymm4, %ymm5
	vsubps	%ymm12, %ymm4, %ymm0
	vmulps	%ymm3, %ymm0, %ymm0
	vsubps	%ymm0, %ymm4, %ymm1
	vsubps	%ymm11, %ymm4, %ymm0
	vmulps	%ymm3, %ymm0, %ymm0
	vsubps	%ymm0, %ymm4, %ymm0
	vmulps	%ymm3, %ymm1, %ymm1
	vmulps	%ymm3, %ymm5, %ymm5
	vmulps	%ymm3, %ymm6, %ymm6
	vsubps	%ymm2, %ymm4, %ymm2
	vsubps	%ymm10, %ymm4, %ymm7
	vmulps	%ymm3, %ymm7, %ymm7
	vsubps	%ymm7, %ymm4, %ymm7
	vmulps	%ymm3, %ymm7, %ymm7
	vsubps	%ymm7, %ymm4, %ymm10
	vmulps	%ymm3, %ymm2, %ymm12
	vsubps	%ymm9, %ymm4, %ymm2
	vsubps	%ymm6, %ymm4, %ymm9
	vsubps	%ymm5, %ymm4, %ymm13
	vsubps	%ymm1, %ymm4, %ymm1
	vmulps	%ymm3, %ymm0, %ymm0
	vmulps	%ymm3, %ymm8, %ymm5
	vsubps	%ymm5, %ymm4, %ymm5
	vmulps	%ymm3, %ymm5, %ymm5
	vsubps	%ymm5, %ymm4, %ymm5
	vmulps	%ymm3, %ymm5, %ymm5
	vsubps	%ymm5, %ymm4, %ymm5
	vmulps	%ymm3, %ymm5, %ymm11
	vsubps	%ymm0, %ymm4, %ymm14
	vmulps	%ymm3, %ymm1, %ymm0
	vmulps	%ymm3, %ymm13, %ymm13
	vmulps	%ymm3, %ymm9, %ymm1
	vmulps	%ymm3, %ymm2, %ymm2
	vsubps	%ymm12, %ymm4, %ymm5
	vmulps	%ymm3, %ymm10, %ymm6
	vsubps	%ymm6, %ymm4, %ymm6
	vmulps	%ymm3, %ymm6, %ymm6
	vsubps	%ymm6, %ymm4, %ymm6
	vmulps	%ymm3, %ymm6, %ymm6
	vsubps	%ymm6, %ymm4, %ymm6
	vmulps	%ymm3, %ymm6, %ymm8
	vmulps	%ymm3, %ymm5, %ymm9
	vsubps	%ymm2, %ymm4, %ymm10
	vsubps	%ymm1, %ymm4, %ymm12
	vsubps	%ymm13, %ymm4, %ymm13
	vsubps	%ymm0, %ymm4, %ymm0
	vmulps	%ymm3, %ymm14, %ymm1
	vsubps	%ymm11, %ymm4, %ymm2
	vmulps	%ymm3, %ymm2, %ymm2
	vsubps	%ymm2, %ymm4, %ymm2
	vmulps	%ymm3, %ymm2, %ymm2
	vsubps	%ymm2, %ymm4, %ymm2
	vmulps	%ymm3, %ymm2, %ymm2
	vsubps	%ymm2, %ymm4, %ymm2
	vsubps	%ymm1, %ymm4, %ymm11
	vmulps	%ymm3, %ymm2, %ymm1
	vsubps	%ymm1, %ymm4, %ymm1
	vmulps	%ymm3, %ymm1, %ymm1
	vsubps	%ymm1, %ymm4, %ymm1
	vmulps	%ymm3, %ymm1, %ymm1
	vmulps	%ymm3, %ymm0, %ymm14
	vsubps	%ymm1, %ymm4, %ymm0
	vmulps	%ymm3, %ymm0, %ymm0
	vmulps	%ymm3, %ymm13, %ymm1
	vsubps	%ymm1, %ymm4, %ymm1
	vmulps	%ymm3, %ymm1, %ymm1
	vsubps	%ymm1, %ymm4, %ymm2
	vsubps	%ymm0, %ymm4, %ymm1
	vmulps	%ymm3, %ymm12, %ymm0
	vmulps	%ymm3, %ymm10, %ymm5
	vsubps	%ymm5, %ymm4, %ymm5
	vmulps	%ymm3, %ymm5, %ymm5
	vsubps	%ymm5, %ymm4, %ymm10
	vsubps	%ymm0, %ymm4, %ymm0
	vsubps	%ymm9, %ymm4, %ymm13
	vmulps	%ymm3, %ymm1, %ymm1
	vmulps	%ymm3, %ymm2, %ymm5
	vsubps	%ymm8, %ymm4, %ymm2
	vsubps	%ymm14, %ymm4, %ymm6
	vmulps	%ymm3, %ymm6, %ymm6
	vmulps	%ymm3, %ymm11, %ymm7
	vsubps	%ymm7, %ymm4, %ymm7
	vmulps	%ymm3, %ymm7, %ymm7
	vsubps	%ymm7, %ymm4, %ymm9
	vsubps	%ymm6, %ymm4, %ymm11
	vmulps	%ymm3, %ymm2, %ymm2
	vsubps	%ymm5, %ymm4, %ymm12
	vmulps	%ymm3, %ymm13, %ymm8
	vsubps	%ymm1, %ymm4, %ymm1
	vmulps	%ymm3, %ymm1, %ymm1
	vmulps	%ymm3, %ymm0, %ymm0
	vmulps	%ymm3, %ymm10, %ymm5
	vsubps	%ymm5, %ymm4, %ymm5
	vmulps	%ymm3, %ymm5, %ymm5
	vsubps	%ymm5, %ymm4, %ymm5
	vmulps	%ymm3, %ymm5, %ymm5
	vsubps	%ymm5, %ymm4, %ymm5
	vmulps	%ymm3, %ymm5, %ymm10
	vsubps	%ymm0, %ymm4, %ymm0
	vsubps	%ymm1, %ymm4, %ymm15
	vmulps	%ymm3, %ymm12, %ymm1
	vsubps	%ymm2, %ymm4, %ymm2
	vmulps	%ymm3, %ymm11, %ymm5
	vmulps	%ymm3, %ymm9, %ymm6
	vsubps	%ymm6, %ymm4, %ymm6
	vmulps	%ymm3, %ymm6, %ymm6
	vsubps	%ymm6, %ymm4, %ymm6
	vmulps	%ymm3, %ymm6, %ymm6
	vsubps	%ymm6, %ymm4, %ymm6
	vmulps	%ymm3, %ymm6, %ymm12
	vsubps	%ymm5, %ymm4, %ymm13
	vmulps	%ymm3, %ymm2, %ymm2
	vsubps	%ymm1, %ymm4, %ymm14
	vmulps	%ymm3, %ymm15, %ymm1
	vmulps	%ymm3, %ymm0, %ymm0
	vsubps	%ymm10, %ymm4, %ymm5
	vsubps	%ymm8, %ymm4, %ymm6
	vmulps	%ymm3, %ymm6, %ymm6
	vsubps	%ymm6, %ymm4, %ymm6
	vmulps	%ymm3, %ymm6, %ymm6
	vsubps	%ymm6, %ymm4, %ymm6
	vmulps	%ymm3, %ymm6, %ymm6
	vsubps	%ymm6, %ymm4, %ymm8
	vmulps	%ymm3, %ymm5, %ymm9
	vsubps	%ymm0, %ymm4, %ymm10
	vsubps	%ymm1, %ymm4, %ymm11
	vmulps	%ymm3, %ymm14, %ymm0
	vsubps	%ymm2, %ymm4, %ymm1
	vmulps	%ymm3, %ymm13, %ymm2
	vsubps	%ymm12, %ymm4, %ymm5
	vmulps	%ymm3, %ymm5, %ymm5
	vsubps	%ymm5, %ymm4, %ymm5
	vmulps	%ymm3, %ymm5, %ymm5
	vsubps	%ymm5, %ymm4, %ymm5
	vmulps	%ymm3, %ymm5, %ymm5
	vsubps	%ymm5, %ymm4, %ymm5
	vsubps	%ymm2, %ymm4, %ymm14
	vmulps	%ymm3, %ymm5, %ymm2
	vsubps	%ymm2, %ymm4, %ymm2
	vmulps	%ymm3, %ymm2, %ymm2
	vmulps	%ymm3, %ymm1, %ymm1
	vsubps	%ymm1, %ymm4, %ymm6
	vsubps	%ymm2, %ymm4, %ymm1
	vsubps	%ymm0, %ymm4, %ymm0
	vmulps	%ymm3, %ymm0, %ymm12
	vmulps	%ymm3, %ymm1, %ymm13
	vmulps	%ymm3, %ymm11, %ymm2
	vmulps	%ymm3, %ymm10, %ymm10
	vsubps	%ymm9, %ymm4, %ymm1
	vmulps	%ymm3, %ymm8, %ymm5
	vmulps	%ymm3, %ymm6, %ymm0
	vmulps	%ymm3, %ymm14, %ymm6
	vsubps	%ymm6, %ymm4, %ymm6
	vmulps	%ymm3, %ymm6, %ymm6
	vsubps	%ymm6, %ymm4, %ymm6
	vmulps	%ymm3, %ymm6, %ymm6
	vsubps	%ymm6, %ymm4, %ymm6
	vmulps	%ymm3, %ymm6, %ymm9
	vsubps	%ymm0, %ymm4, %ymm0
	vsubps	%ymm5, %ymm4, %ymm14
	vmulps	%ymm3, %ymm1, %ymm1
	vsubps	%ymm10, %ymm4, %ymm5
	vsubps	%ymm2, %ymm4, %ymm2
	vsubps	%ymm13, %ymm4, %ymm6
	vsubps	%ymm12, %ymm4, %ymm7
	vmulps	%ymm3, %ymm7, %ymm7
	vsubps	%ymm7, %ymm4, %ymm7
	vmulps	%ymm3, %ymm7, %ymm7
	vsubps	%ymm7, %ymm4, %ymm10
	vmulps	%ymm3, %ymm6, %ymm12
	vmulps	%ymm3, %ymm2, %ymm8
	vmulps	%ymm3, %ymm5, %ymm2
	vsubps	%ymm1, %ymm4, %ymm11
	vmulps	%ymm3, %ymm14, %ymm1
	vmulps	%ymm3, %ymm0, %ymm0
	vsubps	%ymm9, %ymm4, %ymm5
	vmulps	%ymm3, %ymm5, %ymm5
	vsubps	%ymm5, %ymm4, %ymm5
	vmulps	%ymm3, %ymm5, %ymm5
	vsubps	%ymm5, %ymm4, %ymm5
	vmulps	%ymm3, %ymm5, %ymm5
	vsubps	%ymm5, %ymm4, %ymm6
	vsubps	%ymm0, %ymm4, %ymm9
	vsubps	%ymm12, %ymm4, %ymm0
	vmulps	%ymm3, %ymm10, %ymm13
	vsubps	%ymm1, %ymm4, %ymm5
	vmulps	%ymm3, %ymm11, %ymm10
	vsubps	%ymm2, %ymm4, %ymm1
	vmulps	%ymm3, %ymm6, %ymm2
	vsubps	%ymm2, %ymm4, %ymm2
	vmulps	%ymm3, %ymm2, %ymm2
	vsubps	%ymm2, %ymm4, %ymm2
	vsubps	%ymm8, %ymm4, %ymm6
	vmulps	%ymm3, %ymm6, %ymm6
	vsubps	%ymm6, %ymm4, %ymm6
	vmulps	%ymm3, %ymm6, %ymm12
	vmulps	%ymm3, %ymm5, %ymm14
	vsubps	%ymm13, %ymm4, %ymm8
	vmulps	%ymm3, %ymm2, %ymm2
	vmulps	%ymm3, %ymm0, %ymm5
	vmulps	%ymm3, %ymm1, %ymm0
	vsubps	%ymm0, %ymm4, %ymm0
	vmulps	%ymm3, %ymm0, %ymm0
	vsubps	%ymm0, %ymm4, %ymm0
	vmulps	%ymm3, %ymm0, %ymm11
	vmulps	%ymm3, %ymm9, %ymm0
	vsubps	%ymm10, %ymm4, %ymm9
	vsubps	%ymm5, %ymm4, %ymm1
	vsubps	%ymm14, %ymm4, %ymm10
	vmulps	%ymm3, %ymm1, %ymm1
	vsubps	%ymm1, %ymm4, %ymm1
	vmulps	%ymm3, %ymm1, %ymm1
	vsubps	%ymm2, %ymm4, %ymm5
	vsubps	%ymm12, %ymm4, %ymm6
	vmulps	%ymm3, %ymm9, %ymm2
	vsubps	%ymm2, %ymm4, %ymm2
	vmulps	%ymm3, %ymm2, %ymm2
	vsubps	%ymm2, %ymm4, %ymm2
	vmulps	%ymm3, %ymm2, %ymm2
	vsubps	%ymm2, %ymm4, %ymm2
	vsubps	%ymm0, %ymm4, %ymm9
	vmulps	%ymm3, %ymm6, %ymm0
	vsubps	%ymm0, %ymm4, %ymm6
	vmulps	%ymm3, %ymm5, %ymm5
	vsubps	%ymm1, %ymm4, %ymm1
	vsubps	%ymm11, %ymm4, %ymm0
	vmulps	%ymm3, %ymm0, %ymm0
	vsubps	%ymm0, %ymm4, %ymm0
	vmulps	%ymm3, %ymm0, %ymm0
	vsubps	%ymm0, %ymm4, %ymm0
	vmulps	%ymm3, %ymm1, %ymm11
	vsubps	%ymm5, %ymm4, %ymm5
	vmulps	%ymm3, %ymm6, %ymm1
	vmulps	%ymm3, %ymm2, %ymm6
	vmulps	%ymm3, %ymm10, %ymm2
	vsubps	%ymm2, %ymm4, %ymm2
	vmulps	%ymm3, %ymm2, %ymm2
	vsubps	%ymm2, %ymm4, %ymm2
	vmulps	%ymm3, %ymm2, %ymm2
	vsubps	%ymm6, %ymm4, %ymm10
	vsubps	%ymm1, %ymm4, %ymm1
	vmulps	%ymm3, %ymm5, %ymm5
	vsubps	%ymm11, %ymm4, %ymm6
	vmulps	%ymm3, %ymm0, %ymm0
	vmulps	%ymm3, %ymm8, %ymm7
	vsubps	%ymm7, %ymm4, %ymm7
	vmulps	%ymm3, %ymm7, %ymm7
	vsubps	%ymm7, %ymm4, %ymm7
	vmulps	%ymm3, %ymm7, %ymm8
	vsubps	%ymm0, %ymm4, %ymm0
	vmulps	%ymm3, %ymm6, %ymm11
	vsubps	%ymm5, %ymm4, %ymm13
	vmulps	%ymm3, %ymm1, %ymm1
	vmulps	%ymm3, %ymm10, %ymm5
	vsubps	%ymm2, %ymm4, %ymm2
	vmulps	%ymm3, %ymm2, %ymm2
	vmulps	%ymm3, %ymm9, %ymm6
	vsubps	%ymm6, %ymm4, %ymm6
	vmulps	%ymm3, %ymm6, %ymm6
	vsubps	%ymm6, %ymm4, %ymm10
	vsubps	%ymm2, %ymm4, %ymm2
	vsubps	%ymm5, %ymm4, %ymm12
	vsubps	%ymm1, %ymm4, %ymm1
	vmulps	%ymm3, %ymm13, %ymm5
	vsubps	%ymm11, %ymm4, %ymm6
	vmulps	%ymm3, %ymm0, %ymm0
	vsubps	%ymm0, %ymm4, %ymm0
	vmulps	%ymm3, %ymm0, %ymm0
	vsubps	%ymm0, %ymm4, %ymm0
	vsubps	%ymm8, %ymm4, %ymm7
	vmulps	%ymm3, %ymm7, %ymm8
	vmulps	%ymm3, %ymm0, %ymm9
	vmulps	%ymm3, %ymm6, %ymm0
	vsubps	%ymm5, %ymm4, %ymm11
	vmulps	%ymm3, %ymm1, %ymm1
	vmulps	%ymm3, %ymm12, %ymm5
	vmulps	%ymm3, %ymm2, %ymm2
	vmulps	%ymm3, %ymm10, %ymm6
	vsubps	%ymm6, %ymm4, %ymm6
	vmulps	%ymm3, %ymm6, %ymm6
	vsubps	%ymm6, %ymm4, %ymm6
	vmulps	%ymm3, %ymm6, %ymm6
	vsubps	%ymm6, %ymm4, %ymm6
	vmulps	%ymm3, %ymm6, %ymm10
	vsubps	%ymm2, %ymm4, %ymm13
	vsubps	%ymm5, %ymm4, %ymm2
	vsubps	%ymm1, %ymm4, %ymm14
	vmulps	%ymm3, %ymm11, %ymm1
	vsubps	%ymm0, %ymm4, %ymm0
	vsubps	%ymm9, %ymm4, %ymm5
	vsubps	%ymm8, %ymm4, %ymm6
	vmulps	%ymm3, %ymm6, %ymm6
	vsubps	%ymm6, %ymm4, %ymm6
	vmulps	%ymm3, %ymm6, %ymm6
	vsubps	%ymm6, %ymm4, %ymm6
	vmulps	%ymm3, %ymm6, %ymm6
	vsubps	%ymm6, %ymm4, %ymm8
	vmulps	%ymm3, %ymm5, %ymm9
	vmulps	%ymm3, %ymm0, %ymm11
	vsubps	%ymm1, %ymm4, %ymm12
	vmulps	%ymm3, %ymm14, %ymm0
	vmulps	%ymm3, %ymm2, %ymm1
	vmulps	%ymm3, %ymm13, %ymm2
	vsubps	%ymm10, %ymm4, %ymm5
	vmulps	%ymm3, %ymm5, %ymm5
	vsubps	%ymm5, %ymm4, %ymm5
	vmulps	%ymm3, %ymm5, %ymm5
	vsubps	%ymm5, %ymm4, %ymm5
	vmulps	%ymm3, %ymm5, %ymm5
	vsubps	%ymm5, %ymm4, %ymm5
	vsubps	%ymm2, %ymm4, %ymm2
	vmulps	%ymm3, %ymm5, %ymm5
	vsubps	%ymm5, %ymm4, %ymm5
	vsubps	%ymm1, %ymm4, %ymm10
	vmulps	%ymm3, %ymm5, %ymm1
	vsubps	%ymm1, %ymm4, %ymm1
	vsubps	%ymm0, %ymm4, %ymm0
	vmulps	%ymm3, %ymm0, %ymm0
	vsubps	%ymm0, %ymm4, %ymm0
	vmulps	%ymm3, %ymm0, %ymm0
	vsubps	%ymm0, %ymm4, %ymm13
	vmulps	%ymm3, %ymm1, %ymm0
	vmulps	%ymm3, %ymm12, %ymm12
	vsubps	%ymm11, %ymm4, %ymm1
	vsubps	%ymm9, %ymm4, %ymm5
	vmulps	%ymm3, %ymm8, %ymm6
	vmulps	%ymm3, %ymm2, %ymm2
	vsubps	%ymm2, %ymm4, %ymm2
	vmulps	%ymm3, %ymm2, %ymm2
	vsubps	%ymm2, %ymm4, %ymm2
	vmulps	%ymm3, %ymm2, %ymm2
	vsubps	%ymm2, %ymm4, %ymm2
	vmulps	%ymm3, %ymm2, %ymm8
	vsubps	%ymm6, %ymm4, %ymm2
	vmulps	%ymm3, %ymm5, %ymm9
	vmulps	%ymm3, %ymm1, %ymm1
	vsubps	%ymm12, %ymm4, %ymm5
	vsubps	%ymm0, %ymm4, %ymm0
	vmulps	%ymm3, %ymm13, %ymm6
	vmulps	%ymm3, %ymm10, %ymm7
	vsubps	%ymm7, %ymm4, %ymm7
	vmulps	%ymm3, %ymm7, %ymm7
	vsubps	%ymm7, %ymm4, %ymm7
	vmulps	%ymm3, %ymm7, %ymm7
	vsubps	%ymm7, %ymm4, %ymm10
	vsubps	%ymm6, %ymm4, %ymm11
	vmulps	%ymm3, %ymm0, %ymm12
	vmulps	%ymm3, %ymm5, %ymm0
	vsubps	%ymm1, %ymm4, %ymm13
	vsubps	%ymm9, %ymm4, %ymm1
	vmulps	%ymm3, %ymm2, %ymm2
	vsubps	%ymm8, %ymm4, %ymm5
	vmulps	%ymm3, %ymm5, %ymm5
	vsubps	%ymm5, %ymm4, %ymm5
	vmulps	%ymm3, %ymm5, %ymm5
	vsubps	%ymm5, %ymm4, %ymm5
	vmulps	%ymm3, %ymm5, %ymm5
	vsubps	%ymm5, %ymm4, %ymm6
	vsubps	%ymm2, %ymm4, %ymm2
	vmulps	%ymm3, %ymm2, %ymm5
	vmulps	%ymm3, %ymm6, %ymm2
	vmulps	%ymm3, %ymm1, %ymm9
	vmulps	%ymm3, %ymm13, %ymm13
	vsubps	%ymm2, %ymm4, %ymm2
	vsubps	%ymm0, %ymm4, %ymm8
	vsubps	%ymm12, %ymm4, %ymm0
	vmulps	%ymm3, %ymm11, %ymm11
	vmulps	%ymm3, %ymm10, %ymm1
	vsubps	%ymm5, %ymm4, %ymm5
	vmulps	%ymm3, %ymm5, %ymm5
	vsubps	%ymm5, %ymm4, %ymm5
	vmulps	%ymm3, %ymm5, %ymm5
	vsubps	%ymm5, %ymm4, %ymm5
	vmulps	%ymm3, %ymm5, %ymm5
	vsubps	%ymm5, %ymm4, %ymm5
	vsubps	%ymm1, %ymm4, %ymm1
	vmulps	%ymm3, %ymm1, %ymm1
	vsubps	%ymm1, %ymm4, %ymm10
	vsubps	%ymm13, %ymm4, %ymm1
	vmulps	%ymm3, %ymm5, %ymm13
	vmulps	%ymm3, %ymm2, %ymm5
	vsubps	%ymm11, %ymm4, %ymm6
	vmulps	%ymm3, %ymm0, %ymm0
	vsubps	%ymm0, %ymm4, %ymm0
	vsubps	%ymm9, %ymm4, %ymm2
	vmulps	%ymm3, %ymm2, %ymm2
	vsubps	%ymm2, %ymm4, %ymm2
	vmulps	%ymm3, %ymm0, %ymm12
	vmulps	%ymm3, %ymm8, %ymm8
	vmulps	%ymm3, %ymm6, %ymm11
	vmulps	%ymm3, %ymm1, %ymm1
	vsubps	%ymm5, %ymm4, %ymm0
	vmulps	%ymm3, %ymm0, %ymm0
	vsubps	%ymm13, %ymm4, %ymm5
	vmulps	%ymm3, %ymm5, %ymm5
	vmulps	%ymm3, %ymm10, %ymm6
	vsubps	%ymm6, %ymm4, %ymm6
	vmulps	%ymm3, %ymm6, %ymm6
	vsubps	%ymm6, %ymm4, %ymm9
	vsubps	%ymm5, %ymm4, %ymm10
	vsubps	%ymm0, %ymm4, %ymm0
	vsubps	%ymm12, %ymm4, %ymm12
	vmulps	%ymm3, %ymm2, %ymm2
	vsubps	%ymm1, %ymm4, %ymm1
	vsubps	%ymm11, %ymm4, %ymm5
	vmulps	%ymm3, %ymm5, %ymm5
	vsubps	%ymm5, %ymm4, %ymm5
	vmulps	%ymm3, %ymm5, %ymm5
	vsubps	%ymm5, %ymm4, %ymm5
	vsubps	%ymm8, %ymm4, %ymm8
	vmulps	%ymm3, %ymm5, %ymm5
	vmulps	%ymm3, %ymm1, %ymm1
	vsubps	%ymm1, %ymm4, %ymm1
	vmulps	%ymm3, %ymm1, %ymm11
	vsubps	%ymm2, %ymm4, %ymm2
	vsubps	%ymm5, %ymm4, %ymm13
	vmulps	%ymm3, %ymm12, %ymm12
	vmulps	%ymm3, %ymm0, %ymm0
	vmulps	%ymm3, %ymm10, %ymm1
	vmulps	%ymm3, %ymm9, %ymm5
	vsubps	%ymm5, %ymm4, %ymm5
	vmulps	%ymm3, %ymm5, %ymm5
	vsubps	%ymm5, %ymm4, %ymm5
	vmulps	%ymm3, %ymm5, %ymm5
	vsubps	%ymm5, %ymm4, %ymm5
	vmulps	%ymm3, %ymm5, %ymm9
	vsubps	%ymm1, %ymm4, %ymm1
	vsubps	%ymm0, %ymm4, %ymm5
	vsubps	%ymm12, %ymm4, %ymm0
	vmulps	%ymm3, %ymm13, %ymm13
	vmulps	%ymm3, %ymm2, %ymm2
	vsubps	%ymm11, %ymm4, %ymm6
	vmulps	%ymm3, %ymm8, %ymm7
	vsubps	%ymm7, %ymm4, %ymm7
	vmulps	%ymm3, %ymm7, %ymm7
	vsubps	%ymm7, %ymm4, %ymm7
	vmulps	%ymm3, %ymm7, %ymm8
	vmulps	%ymm3, %ymm5, %ymm10
	vmulps	%ymm3, %ymm1, %ymm12
	vmulps	%ymm3, %ymm6, %ymm1
	vsubps	%ymm2, %ymm4, %ymm6
	vsubps	%ymm13, %ymm4, %ymm2
	vmulps	%ymm3, %ymm2, %ymm2
	vsubps	%ymm2, %ymm4, %ymm2
	vsubps	%ymm9, %ymm4, %ymm5
	vmulps	%ymm3, %ymm0, %ymm0
	vsubps	%ymm0, %ymm4, %ymm0
	vmulps	%ymm3, %ymm0, %ymm0
	vmulps	%ymm3, %ymm6, %ymm6
	vsubps	%ymm6, %ymm4, %ymm9
	vsubps	%ymm0, %ymm4, %ymm11
	vsubps	%ymm1, %ymm4, %ymm0
	vmulps	%ymm3, %ymm5, %ymm1
	vsubps	%ymm1, %ymm4, %ymm1
	vmulps	%ymm3, %ymm1, %ymm1
	vmulps	%ymm3, %ymm2, %ymm5
	vsubps	%ymm12, %ymm4, %ymm6
	vsubps	%ymm10, %ymm4, %ymm2
	vsubps	%ymm8, %ymm4, %ymm7
	vmulps	%ymm3, %ymm7, %ymm7
	vsubps	%ymm7, %ymm4, %ymm7
	vmulps	%ymm3, %ymm7, %ymm7
	vsubps	%ymm7, %ymm4, %ymm10
	vmulps	%ymm3, %ymm2, %ymm2
	vmulps	%ymm3, %ymm6, %ymm12
	vmulps	%ymm3, %ymm0, %ymm8
	vsubps	%ymm5, %ymm4, %ymm5
	vsubps	%ymm1, %ymm4, %ymm1
	vmulps	%ymm3, %ymm11, %ymm0
	vmulps	%ymm3, %ymm9, %ymm6
	vsubps	%ymm6, %ymm4, %ymm6
	vmulps	%ymm3, %ymm6, %ymm6
	vsubps	%ymm6, %ymm4, %ymm6
	vmulps	%ymm3, %ymm6, %ymm6
	vsubps	%ymm6, %ymm4, %ymm9
	vsubps	%ymm0, %ymm4, %ymm0
	vmulps	%ymm3, %ymm1, %ymm13
	vmulps	%ymm3, %ymm5, %ymm1
	vsubps	%ymm12, %ymm4, %ymm5
	vsubps	%ymm2, %ymm4, %ymm2
	vmulps	%ymm3, %ymm10, %ymm6
	vsubps	%ymm6, %ymm4, %ymm6
	vmulps	%ymm3, %ymm6, %ymm6
	vsubps	%ymm6, %ymm4, %ymm6
	vmulps	%ymm3, %ymm6, %ymm6
	vsubps	%ymm6, %ymm4, %ymm6
	vmulps	%ymm3, %ymm6, %ymm11
	vmulps	%ymm3, %ymm2, %ymm12
	vmulps	%ymm3, %ymm5, %ymm10
	vsubps	%ymm1, %ymm4, %ymm2
	vsubps	%ymm13, %ymm4, %ymm1
	vmulps	%ymm3, %ymm0, %ymm6
	vmulps	%ymm3, %ymm9, %ymm5
	vsubps	%ymm8, %ymm4, %ymm0
	vmulps	%ymm3, %ymm0, %ymm0
	vsubps	%ymm0, %ymm4, %ymm0
	vmulps	%ymm3, %ymm0, %ymm0
	vsubps	%ymm0, %ymm4, %ymm0
	vmulps	%ymm3, %ymm0, %ymm0
	vsubps	%ymm0, %ymm4, %ymm0
	vsubps	%ymm5, %ymm4, %ymm5
	vsubps	%ymm6, %ymm4, %ymm6
	vmulps	%ymm3, %ymm1, %ymm1
	vsubps	%ymm1, %ymm4, %ymm1
	vmulps	%ymm3, %ymm1, %ymm1
	vmulps	%ymm3, %ymm2, %ymm9
	vsubps	%ymm10, %ymm4, %ymm10
	vsubps	%ymm12, %ymm4, %ymm12
	vsubps	%ymm11, %ymm4, %ymm2
	vmulps	%ymm3, %ymm6, %ymm6
	vmulps	%ymm3, %ymm5, %ymm5
	vsubps	%ymm5, %ymm4, %ymm5
	vmulps	%ymm3, %ymm5, %ymm5
	vsubps	%ymm5, %ymm4, %ymm5
	vmulps	%ymm3, %ymm5, %ymm11
	vmulps	%ymm3, %ymm0, %ymm8
	vsubps	%ymm1, %ymm4, %ymm0
	vsubps	%ymm6, %ymm4, %ymm1
	vmulps	%ymm3, %ymm1, %ymm1
	vsubps	%ymm1, %ymm4, %ymm1
	vmulps	%ymm3, %ymm1, %ymm1
	vsubps	%ymm1, %ymm4, %ymm1
	vmulps	%ymm3, %ymm1, %ymm13
	vmulps	%ymm3, %ymm2, %ymm5
	vmulps	%ymm3, %ymm0, %ymm1
	vmulps	%ymm3, %ymm12, %ymm0
	vsubps	%ymm0, %ymm4, %ymm0
	vmulps	%ymm3, %ymm0, %ymm0
	vsubps	%ymm0, %ymm4, %ymm0
	vmulps	%ymm3, %ymm0, %ymm0
	vmulps	%ymm3, %ymm10, %ymm10
	vsubps	%ymm1, %ymm4, %ymm1
	vmulps	%ymm3, %ymm1, %ymm1
	vsubps	%ymm11, %ymm4, %ymm2
	vsubps	%ymm5, %ymm4, %ymm5
	vsubps	%ymm13, %ymm4, %ymm6
	vsubps	%ymm9, %ymm4, %ymm7
	vmulps	%ymm3, %ymm7, %ymm7
	vsubps	%ymm7, %ymm4, %ymm7
	vmulps	%ymm3, %ymm7, %ymm7
	vsubps	%ymm7, %ymm4, %ymm7
	vmulps	%ymm3, %ymm7, %ymm12
	vmulps	%ymm3, %ymm6, %ymm13
	vmulps	%ymm3, %ymm5, %ymm15
	vmulps	%ymm3, %ymm2, %ymm14
	vsubps	%ymm1, %ymm4, %ymm1
	vsubps	%ymm0, %ymm4, %ymm0
	vsubps	%ymm8, %ymm4, %ymm2
	vmulps	%ymm3, %ymm2, %ymm2
	vsubps	%ymm2, %ymm4, %ymm2
	vmulps	%ymm3, %ymm2, %ymm2
	vsubps	%ymm2, %ymm4, %ymm2
	vmulps	%ymm3, %ymm2, %ymm2
	vsubps	%ymm2, %ymm4, %ymm9
	vmulps	%ymm3, %ymm0, %ymm11
	vmulps	%ymm3, %ymm1, %ymm2
	vsubps	%ymm14, %ymm4, %ymm14
	vsubps	%ymm15, %ymm4, %ymm1
	vsubps	%ymm13, %ymm4, %ymm0
	vsubps	%ymm12, %ymm4, %ymm5
	vsubps	%ymm10, %ymm4, %ymm6
	vmulps	%ymm3, %ymm6, %ymm6
	vsubps	%ymm6, %ymm4, %ymm6
	vmulps	%ymm3, %ymm6, %ymm6
	vsubps	%ymm6, %ymm4, %ymm6
	vmulps	%ymm3, %ymm6, %ymm6
	vsubps	%ymm6, %ymm4, %ymm8
	vmulps	%ymm3, %ymm5, %ymm10
	vmulps	%ymm3, %ymm0, %ymm0
	vmulps	%ymm3, %ymm1, %ymm12
	vmulps	%ymm3, %ymm14, %ymm1
	vsubps	%ymm2, %ymm4, %ymm2
	vsubps	%ymm11, %ymm4, %ymm5
	vmulps	%ymm3, %ymm9, %ymm6
	vsubps	%ymm6, %ymm4, %ymm6
	vmulps	%ymm3, %ymm6, %ymm6
	vsubps	%ymm6, %ymm4, %ymm6
	vmulps	%ymm3, %ymm6, %ymm6
	vsubps	%ymm6, %ymm4, %ymm6
	vmulps	%ymm3, %ymm6, %ymm13
	vmulps	%ymm3, %ymm5, %ymm9
	vmulps	%ymm3, %ymm2, %ymm2
	vsubps	%ymm1, %ymm4, %ymm11
	vsubps	%ymm12, %ymm4, %ymm14
	vsubps	%ymm0, %ymm4, %ymm1
	vsubps	%ymm10, %ymm4, %ymm0
	vmulps	%ymm3, %ymm8, %ymm5
	vsubps	%ymm5, %ymm4, %ymm5
	vmulps	%ymm3, %ymm5, %ymm5
	vsubps	%ymm5, %ymm4, %ymm5
	vmulps	%ymm3, %ymm5, %ymm5
	vsubps	%ymm5, %ymm4, %ymm5
	vmulps	%ymm3, %ymm5, %ymm8
	vmulps	%ymm3, %ymm0, %ymm12
	vsubps	%ymm13, %ymm4, %ymm0
	vmulps	%ymm3, %ymm1, %ymm1
	vmulps	%ymm3, %ymm14, %ymm5
	vmulps	%ymm3, %ymm11, %ymm6
	vsubps	%ymm2, %ymm4, %ymm2
	vmulps	%ymm3, %ymm2, %ymm2
	vsubps	%ymm2, %ymm4, %ymm10
	vsubps	%ymm9, %ymm4, %ymm2
	vmulps	%ymm3, %ymm2, %ymm2
	vsubps	%ymm2, %ymm4, %ymm2
	vmulps	%ymm3, %ymm2, %ymm2
	vsubps	%ymm6, %ymm4, %ymm6
	vsubps	%ymm5, %ymm4, %ymm9
	vmulps	%ymm3, %ymm10, %ymm5
	vsubps	%ymm1, %ymm4, %ymm1
	vmulps	%ymm3, %ymm1, %ymm1
	vsubps	%ymm1, %ymm4, %ymm10
	vmulps	%ymm3, %ymm0, %ymm11
	vsubps	%ymm12, %ymm4, %ymm0
	vsubps	%ymm8, %ymm4, %ymm1
	vmulps	%ymm3, %ymm6, %ymm8
	vsubps	%ymm5, %ymm4, %ymm6
	vsubps	%ymm2, %ymm4, %ymm2
	vmulps	%ymm3, %ymm2, %ymm2
	vsubps	%ymm2, %ymm4, %ymm2
	vmulps	%ymm3, %ymm2, %ymm2
	vsubps	%ymm2, %ymm4, %ymm2
	vmulps	%ymm3, %ymm2, %ymm2
	vsubps	%ymm2, %ymm4, %ymm5
	vmulps	%ymm3, %ymm6, %ymm6
	vmulps	%ymm3, %ymm1, %ymm1
	vsubps	%ymm1, %ymm4, %ymm1
	vmulps	%ymm3, %ymm1, %ymm1
	vmulps	%ymm3, %ymm0, %ymm0
	vsubps	%ymm0, %ymm4, %ymm0
	vmulps	%ymm3, %ymm0, %ymm12
	vsubps	%ymm1, %ymm4, %ymm2
	vsubps	%ymm6, %ymm4, %ymm13
	vmulps	%ymm3, %ymm5, %ymm1
	vsubps	%ymm11, %ymm4, %ymm0
	vmulps	%ymm3, %ymm10, %ymm5
	vmulps	%ymm3, %ymm9, %ymm6
	vsubps	%ymm6, %ymm4, %ymm6
	vmulps	%ymm3, %ymm6, %ymm6
	vsubps	%ymm6, %ymm4, %ymm6
	vmulps	%ymm3, %ymm6, %ymm6
	vsubps	%ymm6, %ymm4, %ymm6
	vmulps	%ymm3, %ymm6, %ymm9
	vsubps	%ymm5, %ymm4, %ymm10
	vmulps	%ymm3, %ymm0, %ymm0
	vsubps	%ymm1, %ymm4, %ymm11
	vmulps	%ymm3, %ymm13, %ymm14
	vmulps	%ymm3, %ymm2, %ymm2
	vsubps	%ymm12, %ymm4, %ymm1
	vsubps	%ymm8, %ymm4, %ymm5
	vmulps	%ymm3, %ymm5, %ymm5
	vsubps	%ymm5, %ymm4, %ymm5
	vmulps	%ymm3, %ymm5, %ymm5
	vsubps	%ymm5, %ymm4, %ymm5
	vmulps	%ymm3, %ymm5, %ymm5
	vsubps	%ymm5, %ymm4, %ymm13
	vmulps	%ymm3, %ymm1, %ymm1
	vsubps	%ymm2, %ymm4, %ymm5
	vsubps	%ymm14, %ymm4, %ymm6
	vmulps	%ymm3, %ymm11, %ymm2
	vsubps	%ymm2, %ymm4, %ymm7
	vsubps	%ymm0, %ymm4, %ymm0
	vmulps	%ymm3, %ymm0, %ymm2
	vmulps	%ymm3, %ymm7, %ymm11
	vmulps	%ymm3, %ymm10, %ymm8
	vsubps	%ymm9, %ymm4, %ymm9
	vmulps	%ymm3, %ymm6, %ymm10
	vmulps	%ymm3, %ymm5, %ymm12
	vsubps	%ymm1, %ymm4, %ymm0
	vmulps	%ymm3, %ymm13, %ymm1
	vsubps	%ymm1, %ymm4, %ymm1
	vmulps	%ymm3, %ymm1, %ymm1
	vsubps	%ymm1, %ymm4, %ymm1
	vmulps	%ymm3, %ymm1, %ymm1
	vsubps	%ymm1, %ymm4, %ymm1
	vmulps	%ymm3, %ymm1, %ymm1
	vmulps	%ymm3, %ymm0, %ymm0
	vsubps	%ymm0, %ymm4, %ymm0
	vsubps	%ymm11, %ymm4, %ymm11
	vsubps	%ymm2, %ymm4, %ymm2
	vsubps	%ymm1, %ymm4, %ymm6
	vsubps	%ymm12, %ymm4, %ymm12
	vsubps	%ymm10, %ymm4, %ymm1
	vmulps	%ymm3, %ymm1, %ymm5
	vmulps	%ymm3, %ymm9, %ymm1
	vsubps	%ymm1, %ymm4, %ymm1
	vmulps	%ymm3, %ymm1, %ymm10
	vsubps	%ymm8, %ymm4, %ymm1
	vsubps	%ymm5, %ymm4, %ymm5
	vmulps	%ymm3, %ymm12, %ymm12
	vmulps	%ymm3, %ymm6, %ymm6
	vmulps	%ymm3, %ymm2, %ymm2
	vsubps	%ymm2, %ymm4, %ymm8
	vmulps	%ymm3, %ymm11, %ymm9
	vmulps	%ymm3, %ymm0, %ymm11
	vsubps	%ymm6, %ymm4, %ymm0
	vmulps	%ymm3, %ymm0, %ymm0
	vsubps	%ymm0, %ymm4, %ymm0
	vsubps	%ymm12, %ymm4, %ymm12
	vmulps	%ymm3, %ymm5, %ymm5
	vmulps	%ymm3, %ymm1, %ymm1
	vsubps	%ymm1, %ymm4, %ymm1
	vmulps	%ymm3, %ymm1, %ymm1
	vsubps	%ymm1, %ymm4, %ymm2
	vsubps	%ymm10, %ymm4, %ymm1
	vsubps	%ymm5, %ymm4, %ymm6
	vsubps	%ymm11, %ymm4, %ymm13
	vmulps	%ymm3, %ymm12, %ymm5
	vsubps	%ymm5, %ymm4, %ymm5
	vmulps	%ymm3, %ymm5, %ymm5
	vsubps	%ymm5, %ymm4, %ymm10
	vmulps	%ymm3, %ymm0, %ymm0
	vsubps	%ymm9, %ymm4, %ymm11
	vmulps	%ymm3, %ymm8, %ymm5
	vmulps	%ymm3, %ymm13, %ymm9
	vmulps	%ymm3, %ymm6, %ymm6
	vmulps	%ymm3, %ymm1, %ymm1
	vsubps	%ymm1, %ymm4, %ymm1
	vmulps	%ymm3, %ymm1, %ymm1
	vsubps	%ymm1, %ymm4, %ymm8
	vmulps	%ymm3, %ymm2, %ymm1
	vsubps	%ymm6, %ymm4, %ymm2
	vsubps	%ymm9, %ymm4, %ymm6
	vmulps	%ymm3, %ymm6, %ymm9
	vsubps	%ymm5, %ymm4, %ymm13
	vmulps	%ymm3, %ymm2, %ymm2
	vsubps	%ymm2, %ymm4, %ymm14
	vmulps	%ymm3, %ymm11, %ymm2
	vsubps	%ymm0, %ymm4, %ymm5
	vmulps	%ymm3, %ymm10, %ymm0
	vsubps	%ymm0, %ymm4, %ymm6
	vsubps	%ymm1, %ymm4, %ymm0
	vmulps	%ymm3, %ymm6, %ymm1
	vsubps	%ymm1, %ymm4, %ymm1
	vmulps	%ymm3, %ymm1, %ymm1
	vsubps	%ymm1, %ymm4, %ymm1
	vmulps	%ymm3, %ymm5, %ymm5
	vmulps	%ymm3, %ymm8, %ymm6
	vsubps	%ymm6, %ymm4, %ymm6
	vmulps	%ymm3, %ymm6, %ymm6
	vsubps	%ymm6, %ymm4, %ymm8
	vsubps	%ymm5, %ymm4, %ymm10
	vsubps	%ymm2, %ymm4, %ymm12
	vmulps	%ymm3, %ymm1, %ymm11
	vmulps	%ymm3, %ymm14, %ymm14
	vmulps	%ymm3, %ymm0, %ymm0
	vmulps	%ymm3, %ymm13, %ymm1
	vsubps	%ymm9, %ymm4, %ymm2
	vmulps	%ymm3, %ymm2, %ymm2
	vsubps	%ymm2, %ymm4, %ymm2
	vmulps	%ymm3, %ymm2, %ymm2
	vsubps	%ymm2, %ymm4, %ymm2
	vmulps	%ymm3, %ymm2, %ymm2
	vsubps	%ymm2, %ymm4, %ymm2
	vsubps	%ymm1, %ymm4, %ymm9
	vmulps	%ymm3, %ymm2, %ymm1
	vsubps	%ymm1, %ymm4, %ymm1
	vsubps	%ymm0, %ymm4, %ymm0
	vmulps	%ymm3, %ymm0, %ymm0
	vsubps	%ymm0, %ymm4, %ymm0
	vmulps	%ymm3, %ymm0, %ymm0
	vsubps	%ymm0, %ymm4, %ymm13
	vmulps	%ymm3, %ymm1, %ymm0
	vsubps	%ymm14, %ymm4, %ymm14
	vmulps	%ymm3, %ymm12, %ymm2
	vsubps	%ymm11, %ymm4, %ymm1
	vmulps	%ymm3, %ymm10, %ymm5
	vmulps	%ymm3, %ymm8, %ymm6
	vsubps	%ymm6, %ymm4, %ymm6
	vmulps	%ymm3, %ymm6, %ymm6
	vsubps	%ymm6, %ymm4, %ymm6
	vmulps	%ymm3, %ymm6, %ymm6
	vsubps	%ymm6, %ymm4, %ymm6
	vmulps	%ymm3, %ymm6, %ymm12
	vsubps	%ymm5, %ymm4, %ymm10
	vsubps	%ymm2, %ymm4, %ymm8
	vmulps	%ymm3, %ymm1, %ymm2
	vmulps	%ymm3, %ymm14, %ymm1
	vsubps	%ymm0, %ymm4, %ymm0
	vmulps	%ymm3, %ymm13, %ymm5
	vmulps	%ymm3, %ymm9, %ymm6
	vsubps	%ymm6, %ymm4, %ymm6
	vmulps	%ymm3, %ymm6, %ymm6
	vsubps	%ymm6, %ymm4, %ymm6
	vmulps	%ymm3, %ymm6, %ymm6
	vsubps	%ymm6, %ymm4, %ymm6
	vmulps	%ymm3, %ymm6, %ymm9
	vsubps	%ymm5, %ymm4, %ymm11
	vmulps	%ymm3, %ymm0, %ymm0
	vsubps	%ymm12, %ymm4, %ymm12
	vsubps	%ymm1, %ymm4, %ymm5
	vmulps	%ymm3, %ymm8, %ymm8
	vsubps	%ymm2, %ymm4, %ymm1
	vmulps	%ymm3, %ymm1, %ymm1
	vsubps	%ymm1, %ymm4, %ymm1
	vmulps	%ymm3, %ymm1, %ymm2
	vmulps	%ymm3, %ymm10, %ymm1
	vsubps	%ymm1, %ymm4, %ymm1
	vmulps	%ymm3, %ymm1, %ymm1
	vsubps	%ymm1, %ymm4, %ymm1
	vmulps	%ymm3, %ymm1, %ymm1
	vmulps	%ymm3, %ymm5, %ymm10
	vsubps	%ymm2, %ymm4, %ymm2
	vmulps	%ymm3, %ymm12, %ymm13
	vsubps	%ymm0, %ymm4, %ymm0
	vmulps	%ymm3, %ymm11, %ymm6
	vsubps	%ymm9, %ymm4, %ymm5
	vmulps	%ymm3, %ymm5, %ymm5
	vsubps	%ymm5, %ymm4, %ymm5
	vmulps	%ymm3, %ymm5, %ymm5
	vsubps	%ymm5, %ymm4, %ymm9
	vmulps	%ymm3, %ymm2, %ymm5
	vsubps	%ymm1, %ymm4, %ymm11
	vsubps	%ymm6, %ymm4, %ymm1
	vmulps	%ymm3, %ymm1, %ymm1
	vsubps	%ymm1, %ymm4, %ymm1
	vmulps	%ymm3, %ymm1, %ymm2
	vmulps	%ymm3, %ymm0, %ymm1
	vmulps	%ymm3, %ymm11, %ymm0
	vsubps	%ymm0, %ymm4, %ymm0
	vmulps	%ymm3, %ymm0, %ymm11
	vsubps	%ymm5, %ymm4, %ymm12
	vsubps	%ymm13, %ymm4, %ymm13
	vsubps	%ymm10, %ymm4, %ymm0
	vsubps	%ymm8, %ymm4, %ymm5
	vsubps	%ymm1, %ymm4, %ymm1
	vmulps	%ymm3, %ymm1, %ymm1
	vsubps	%ymm1, %ymm4, %ymm1
	vmulps	%ymm3, %ymm1, %ymm1
	vsubps	%ymm1, %ymm4, %ymm1
	vmulps	%ymm3, %ymm1, %ymm1
	vsubps	%ymm2, %ymm4, %ymm2
	vmulps	%ymm3, %ymm5, %ymm5
	vsubps	%ymm5, %ymm4, %ymm5
	vmulps	%ymm3, %ymm5, %ymm5
	vsubps	%ymm5, %ymm4, %ymm5
	vmulps	%ymm3, %ymm5, %ymm5
	vsubps	%ymm5, %ymm4, %ymm14
	vmulps	%ymm3, %ymm0, %ymm0
	vmulps	%ymm3, %ymm2, %ymm8
	vmulps	%ymm3, %ymm13, %ymm2
	vmulps	%ymm3, %ymm9, %ymm10
	vsubps	%ymm1, %ymm4, %ymm1
	vmulps	%ymm3, %ymm1, %ymm1
	vmulps	%ymm3, %ymm12, %ymm5
	vsubps	%ymm11, %ymm4, %ymm6
	vsubps	%ymm0, %ymm4, %ymm0
	vmulps	%ymm3, %ymm0, %ymm0
	vsubps	%ymm0, %ymm4, %ymm0
	vmulps	%ymm3, %ymm0, %ymm0
	vsubps	%ymm0, %ymm4, %ymm0
	vmulps	%ymm3, %ymm6, %ymm13
	vmulps	%ymm3, %ymm14, %ymm9
	vsubps	%ymm5, %ymm4, %ymm5
	vmulps	%ymm3, %ymm5, %ymm5
	vsubps	%ymm1, %ymm4, %ymm1
	vsubps	%ymm2, %ymm4, %ymm2
	vmulps	%ymm3, %ymm2, %ymm2
	vsubps	%ymm2, %ymm4, %ymm2
	vmulps	%ymm3, %ymm2, %ymm2
	vsubps	%ymm2, %ymm4, %ymm11
	vsubps	%ymm8, %ymm4, %ymm8
	vmulps	%ymm3, %ymm1, %ymm1
	vsubps	%ymm1, %ymm4, %ymm12
	vsubps	%ymm5, %ymm4, %ymm14
	vsubps	%ymm13, %ymm4, %ymm1
	vmulps	%ymm3, %ymm0, %ymm0
	vsubps	%ymm10, %ymm4, %ymm2
	vmulps	%ymm3, %ymm2, %ymm2
	vsubps	%ymm2, %ymm4, %ymm2
	vmulps	%ymm3, %ymm2, %ymm2
	vsubps	%ymm2, %ymm4, %ymm2
	vmulps	%ymm3, %ymm2, %ymm2
	vsubps	%ymm2, %ymm4, %ymm2
	vsubps	%ymm0, %ymm4, %ymm13
	vmulps	%ymm3, %ymm1, %ymm1
	vmulps	%ymm3, %ymm14, %ymm5
	vmulps	%ymm3, %ymm12, %ymm0
	vmulps	%ymm3, %ymm11, %ymm6
	vsubps	%ymm6, %ymm4, %ymm6
	vsubps	%ymm9, %ymm4, %ymm7
	vmulps	%ymm3, %ymm7, %ymm7
	vsubps	%ymm7, %ymm4, %ymm7
	vmulps	%ymm3, %ymm7, %ymm9
	vmulps	%ymm3, %ymm6, %ymm10
	vsubps	%ymm0, %ymm4, %ymm0
	vsubps	%ymm5, %ymm4, %ymm12
	vsubps	%ymm1, %ymm4, %ymm1
	vmulps	%ymm3, %ymm13, %ymm5
	vmulps	%ymm3, %ymm2, %ymm2
	vmulps	%ymm3, %ymm8, %ymm6
	vsubps	%ymm6, %ymm4, %ymm6
	vmulps	%ymm3, %ymm6, %ymm6
	vsubps	%ymm6, %ymm4, %ymm6
	vmulps	%ymm3, %ymm6, %ymm6
	vsubps	%ymm6, %ymm4, %ymm6
	vmulps	%ymm3, %ymm6, %ymm11
	vsubps	%ymm2, %ymm4, %ymm2
	vsubps	%ymm5, %ymm4, %ymm13
	vmulps	%ymm3, %ymm1, %ymm1
	vmulps	%ymm3, %ymm12, %ymm5
	vmulps	%ymm3, %ymm0, %ymm0
	vsubps	%ymm10, %ymm4, %ymm6
	vmulps	%ymm3, %ymm6, %ymm6
	vsubps	%ymm6, %ymm4, %ymm6
	vsubps	%ymm9, %ymm4, %ymm7
	vmulps	%ymm3, %ymm7, %ymm7
	vsubps	%ymm7, %ymm4, %ymm8
	vmulps	%ymm3, %ymm6, %ymm9
	vsubps	%ymm0, %ymm4, %ymm10
	vsubps	%ymm5, %ymm4, %ymm0
	vsubps	%ymm1, %ymm4, %ymm12
	vmulps	%ymm3, %ymm13, %ymm1
	vmulps	%ymm3, %ymm2, %ymm2
	vsubps	%ymm11, %ymm4, %ymm5
	vmulps	%ymm3, %ymm5, %ymm5
	vsubps	%ymm5, %ymm4, %ymm5
	vmulps	%ymm3, %ymm5, %ymm5
	vsubps	%ymm5, %ymm4, %ymm5
	vmulps	%ymm3, %ymm5, %ymm5
	vsubps	%ymm5, %ymm4, %ymm5
	vsubps	%ymm2, %ymm4, %ymm2
	vmulps	%ymm3, %ymm2, %ymm2
	vsubps	%ymm2, %ymm4, %ymm13
	vsubps	%ymm1, %ymm4, %ymm14
	vmulps	%ymm3, %ymm5, %ymm2
	vmulps	%ymm3, %ymm12, %ymm1
	vmulps	%ymm3, %ymm0, %ymm0
	vmulps	%ymm3, %ymm10, %ymm5
	vsubps	%ymm9, %ymm4, %ymm6
	vmulps	%ymm3, %ymm6, %ymm6
	vmulps	%ymm3, %ymm8, %ymm7
	vsubps	%ymm7, %ymm4, %ymm7
	vmulps	%ymm3, %ymm7, %ymm7
	vsubps	%ymm7, %ymm4, %ymm9
	vsubps	%ymm6, %ymm4, %ymm10
	vsubps	%ymm5, %ymm4, %ymm11
	vsubps	%ymm0, %ymm4, %ymm12
	vsubps	%ymm1, %ymm4, %ymm0
	vmulps	%ymm3, %ymm14, %ymm5
	vsubps	%ymm2, %ymm4, %ymm2
	vmulps	%ymm3, %ymm13, %ymm1
	vsubps	%ymm1, %ymm4, %ymm1
	vmulps	%ymm3, %ymm1, %ymm1
	vsubps	%ymm1, %ymm4, %ymm1
	vmulps	%ymm3, %ymm1, %ymm1
	vsubps	%ymm1, %ymm4, %ymm1
	vsubps	%ymm5, %ymm4, %ymm8
	vmulps	%ymm3, %ymm2, %ymm2
	vsubps	%ymm2, %ymm4, %ymm2
	vmulps	%ymm3, %ymm2, %ymm2
	vmulps	%ymm3, %ymm0, %ymm0
	vsubps	%ymm0, %ymm4, %ymm0
	vmulps	%ymm3, %ymm0, %ymm0
	vsubps	%ymm0, %ymm4, %ymm13
	vsubps	%ymm2, %ymm4, %ymm0
	vmulps	%ymm3, %ymm12, %ymm2
	vmulps	%ymm3, %ymm1, %ymm1
	vmulps	%ymm3, %ymm11, %ymm5
	vmulps	%ymm3, %ymm10, %ymm6
	vmulps	%ymm3, %ymm9, %ymm7
	vsubps	%ymm7, %ymm4, %ymm7
	vmulps	%ymm3, %ymm7, %ymm7
	vsubps	%ymm7, %ymm4, %ymm7
	vmulps	%ymm3, %ymm7, %ymm7
	vsubps	%ymm7, %ymm4, %ymm7
	vmulps	%ymm3, %ymm7, %ymm12
	vsubps	%ymm6, %ymm4, %ymm9
	vsubps	%ymm5, %ymm4, %ymm10
	vsubps	%ymm1, %ymm4, %ymm1
	vsubps	%ymm2, %ymm4, %ymm5
	vmulps	%ymm3, %ymm0, %ymm6
	vmulps	%ymm3, %ymm13, %ymm0
	vmulps	%ymm3, %ymm8, %ymm2
	vsubps	%ymm2, %ymm4, %ymm2
	vmulps	%ymm3, %ymm2, %ymm2
	vsubps	%ymm2, %ymm4, %ymm2
	vmulps	%ymm3, %ymm2, %ymm11
	vsubps	%ymm0, %ymm4, %ymm0
	vsubps	%ymm12, %ymm4, %ymm2
	vsubps	%ymm6, %ymm4, %ymm14
	vmulps	%ymm3, %ymm5, %ymm6
	vmulps	%ymm3, %ymm1, %ymm1
	vsubps	%ymm1, %ymm4, %ymm1
	vmulps	%ymm3, %ymm1, %ymm1
	vsubps	%ymm1, %ymm4, %ymm1
	vmulps	%ymm3, %ymm1, %ymm12
	vmulps	%ymm3, %ymm10, %ymm13
	vmulps	%ymm3, %ymm9, %ymm5
	vsubps	%ymm6, %ymm4, %ymm1
	vmulps	%ymm3, %ymm1, %ymm1
	vsubps	%ymm1, %ymm4, %ymm8
	vmulps	%ymm3, %ymm14, %ymm10
	vmulps	%ymm3, %ymm2, %ymm2
	vmulps	%ymm3, %ymm0, %ymm0
	vsubps	%ymm11, %ymm4, %ymm1
	vsubps	%ymm5, %ymm4, %ymm5
	vmulps	%ymm3, %ymm5, %ymm5
	vsubps	%ymm5, %ymm4, %ymm5
	vmulps	%ymm3, %ymm5, %ymm5
	vsubps	%ymm5, %ymm4, %ymm5
	vmulps	%ymm3, %ymm5, %ymm11
	vsubps	%ymm13, %ymm4, %ymm5
	vmulps	%ymm3, %ymm1, %ymm9
	vsubps	%ymm12, %ymm4, %ymm1
	vmulps	%ymm3, %ymm1, %ymm1
	vsubps	%ymm1, %ymm4, %ymm1
	vsubps	%ymm0, %ymm4, %ymm0
	vmulps	%ymm3, %ymm0, %ymm0
	vsubps	%ymm2, %ymm4, %ymm13
	vmulps	%ymm3, %ymm1, %ymm2
	vsubps	%ymm10, %ymm4, %ymm1
	vmulps	%ymm3, %ymm8, %ymm6
	vmulps	%ymm3, %ymm5, %ymm5
	vsubps	%ymm5, %ymm4, %ymm5
	vmulps	%ymm3, %ymm5, %ymm5
	vsubps	%ymm5, %ymm4, %ymm5
	vmulps	%ymm3, %ymm5, %ymm5
	vsubps	%ymm5, %ymm4, %ymm12
	vsubps	%ymm11, %ymm4, %ymm5
	vsubps	%ymm6, %ymm4, %ymm6
	vmulps	%ymm3, %ymm6, %ymm10
	vmulps	%ymm3, %ymm1, %ymm11
	vmulps	%ymm3, %ymm13, %ymm1
	vsubps	%ymm2, %ymm4, %ymm2
	vsubps	%ymm0, %ymm4, %ymm8
	vsubps	%ymm9, %ymm4, %ymm9
	vmulps	%ymm3, %ymm5, %ymm0
	vsubps	%ymm0, %ymm4, %ymm0
	vmulps	%ymm3, %ymm0, %ymm0
	vsubps	%ymm0, %ymm4, %ymm0
	vmulps	%ymm3, %ymm0, %ymm5
	vmulps	%ymm3, %ymm12, %ymm0
	vsubps	%ymm0, %ymm4, %ymm0
	vmulps	%ymm3, %ymm0, %ymm0
	vsubps	%ymm0, %ymm4, %ymm6
	vsubps	%ymm1, %ymm4, %ymm0
	vmulps	%ymm3, %ymm0, %ymm0
	vmulps	%ymm3, %ymm6, %ymm12
	vsubps	%ymm5, %ymm4, %ymm1
	vmulps	%ymm3, %ymm2, %ymm2
	vsubps	%ymm11, %ymm4, %ymm5
	vsubps	%ymm10, %ymm4, %ymm6
	vmulps	%ymm3, %ymm6, %ymm6
	vmulps	%ymm3, %ymm9, %ymm7
	vsubps	%ymm7, %ymm4, %ymm7
	vmulps	%ymm3, %ymm7, %ymm7
	vsubps	%ymm7, %ymm4, %ymm10
	vsubps	%ymm6, %ymm4, %ymm11
	vmulps	%ymm3, %ymm5, %ymm13
	vmulps	%ymm3, %ymm8, %ymm8
	vsubps	%ymm2, %ymm4, %ymm5
	vmulps	%ymm3, %ymm1, %ymm1
	vsubps	%ymm12, %ymm4, %ymm2
	vsubps	%ymm0, %ymm4, %ymm0
	vmulps	%ymm3, %ymm0, %ymm0
	vsubps	%ymm0, %ymm4, %ymm0
	vmulps	%ymm3, %ymm0, %ymm0
	vsubps	%ymm0, %ymm4, %ymm0
	vmulps	%ymm3, %ymm0, %ymm9
	vmulps	%ymm3, %ymm2, %ymm2
	vsubps	%ymm1, %ymm4, %ymm12
	vmulps	%ymm3, %ymm5, %ymm1
	vsubps	%ymm13, %ymm4, %ymm5
	vmulps	%ymm3, %ymm11, %ymm0
	vmulps	%ymm3, %ymm10, %ymm6
	vsubps	%ymm6, %ymm4, %ymm6
	vmulps	%ymm3, %ymm6, %ymm6
	vsubps	%ymm6, %ymm4, %ymm6
	vmulps	%ymm3, %ymm6, %ymm6
	vsubps	%ymm6, %ymm4, %ymm6
	vmulps	%ymm3, %ymm6, %ymm10
	vsubps	%ymm0, %ymm4, %ymm0
	vmulps	%ymm3, %ymm5, %ymm11
	vsubps	%ymm1, %ymm4, %ymm1
	vmulps	%ymm3, %ymm12, %ymm5
	vsubps	%ymm2, %ymm4, %ymm2
	vsubps	%ymm9, %ymm4, %ymm6
	vsubps	%ymm8, %ymm4, %ymm7
	vmulps	%ymm3, %ymm7, %ymm7
	vsubps	%ymm7, %ymm4, %ymm7
	vmulps	%ymm3, %ymm7, %ymm7
	vsubps	%ymm7, %ymm4, %ymm7
	vmulps	%ymm3, %ymm7, %ymm9
	vmulps	%ymm3, %ymm6, %ymm13
	vmulps	%ymm3, %ymm2, %ymm12
	vsubps	%ymm5, %ymm4, %ymm2
	vmulps	%ymm3, %ymm1, %ymm15
	vsubps	%ymm11, %ymm4, %ymm1
	vmulps	%ymm3, %ymm0, %ymm0
	vsubps	%ymm10, %ymm4, %ymm5
	vmulps	%ymm3, %ymm5, %ymm5
	vsubps	%ymm5, %ymm4, %ymm5
	vmulps	%ymm3, %ymm5, %ymm5
	vsubps	%ymm5, %ymm4, %ymm5
	vmulps	%ymm3, %ymm5, %ymm5
	vsubps	%ymm5, %ymm4, %ymm6
	vsubps	%ymm0, %ymm4, %ymm5
	vmulps	%ymm3, %ymm6, %ymm0
	vmulps	%ymm3, %ymm1, %ymm8
	vsubps	%ymm0, %ymm4, %ymm14
	vsubps	%ymm15, %ymm4, %ymm10
	vmulps	%ymm3, %ymm2, %ymm11
	vsubps	%ymm12, %ymm4, %ymm12
	vsubps	%ymm13, %ymm4, %ymm0
	vsubps	%ymm9, %ymm4, %ymm1
	vmulps	%ymm3, %ymm5, %ymm2
	vsubps	%ymm2, %ymm4, %ymm2
	vmulps	%ymm3, %ymm2, %ymm2
	vsubps	%ymm2, %ymm4, %ymm2
	vmulps	%ymm3, %ymm2, %ymm2
	vsubps	%ymm2, %ymm4, %ymm2
	vmulps	%ymm3, %ymm2, %ymm2
	vmulps	%ymm3, %ymm1, %ymm9
	vsubps	%ymm2, %ymm4, %ymm1
	vmulps	%ymm3, %ymm1, %ymm1
	vsubps	%ymm1, %ymm4, %ymm1
	vmulps	%ymm3, %ymm1, %ymm1
	vmulps	%ymm3, %ymm14, %ymm2
	vmulps	%ymm3, %ymm0, %ymm0
	vsubps	%ymm0, %ymm4, %ymm0
	vmulps	%ymm3, %ymm0, %ymm0
	vsubps	%ymm0, %ymm4, %ymm0
	vmulps	%ymm3, %ymm0, %ymm13
	vsubps	%ymm2, %ymm4, %ymm0
	vmulps	%ymm3, %ymm12, %ymm12
	vsubps	%ymm1, %ymm4, %ymm1
	vsubps	%ymm11, %ymm4, %ymm5
	vmulps	%ymm3, %ymm10, %ymm2
	vsubps	%ymm8, %ymm4, %ymm6
	vmulps	%ymm3, %ymm6, %ymm6
	vsubps	%ymm6, %ymm4, %ymm6
	vmulps	%ymm3, %ymm6, %ymm6
	vsubps	%ymm6, %ymm4, %ymm6
	vmulps	%ymm3, %ymm6, %ymm6
	vsubps	%ymm6, %ymm4, %ymm10
	vsubps	%ymm2, %ymm4, %ymm2
	vmulps	%ymm3, %ymm5, %ymm14
	vsubps	%ymm12, %ymm4, %ymm8
	vmulps	%ymm3, %ymm1, %ymm12
	vmulps	%ymm3, %ymm0, %ymm0
	vsubps	%ymm13, %ymm4, %ymm1
	vsubps	%ymm9, %ymm4, %ymm5
	vmulps	%ymm3, %ymm5, %ymm5
	vsubps	%ymm5, %ymm4, %ymm5
	vmulps	%ymm3, %ymm5, %ymm5
	vsubps	%ymm5, %ymm4, %ymm5
	vmulps	%ymm3, %ymm5, %ymm9
	vmulps	%ymm3, %ymm1, %ymm11
	vsubps	%ymm14, %ymm4, %ymm1
	vsubps	%ymm0, %ymm4, %ymm0
	vmulps	%ymm3, %ymm2, %ymm5
	vsubps	%ymm12, %ymm4, %ymm2
	vmulps	%ymm3, %ymm10, %ymm6
	vsubps	%ymm6, %ymm4, %ymm6
	vmulps	%ymm3, %ymm6, %ymm6
	vsubps	%ymm6, %ymm4, %ymm6
	vmulps	%ymm3, %ymm6, %ymm6
	vsubps	%ymm6, %ymm4, %ymm10
	vsubps	%ymm5, %ymm4, %ymm13
	vmulps	%ymm3, %ymm2, %ymm12
	vmulps	%ymm3, %ymm0, %ymm0
	vmulps	%ymm3, %ymm1, %ymm2
	vsubps	%ymm11, %ymm4, %ymm1
	vmulps	%ymm3, %ymm8, %ymm5
	vsubps	%ymm9, %ymm4, %ymm6
	vmulps	%ymm3, %ymm6, %ymm6
	vsubps	%ymm6, %ymm4, %ymm6
	vmulps	%ymm3, %ymm6, %ymm6
	vsubps	%ymm6, %ymm4, %ymm6
	vmulps	%ymm3, %ymm6, %ymm6
	vsubps	%ymm6, %ymm4, %ymm6
	vsubps	%ymm5, %ymm4, %ymm5
	vmulps	%ymm3, %ymm6, %ymm6
	vsubps	%ymm6, %ymm4, %ymm6
	vmulps	%ymm3, %ymm6, %ymm11
	vmulps	%ymm3, %ymm1, %ymm15
	vsubps	%ymm2, %ymm4, %ymm9
	vsubps	%ymm0, %ymm4, %ymm14
	vmulps	%ymm3, %ymm13, %ymm8
	vsubps	%ymm12, %ymm4, %ymm0
	vmulps	%ymm3, %ymm0, %ymm2
	vmulps	%ymm3, %ymm10, %ymm1
	vmulps	%ymm3, %ymm5, %ymm0
	vsubps	%ymm0, %ymm4, %ymm0
	vmulps	%ymm3, %ymm0, %ymm0
	vsubps	%ymm0, %ymm4, %ymm0
	vmulps	%ymm3, %ymm0, %ymm0
	vsubps	%ymm1, %ymm4, %ymm1
	vsubps	%ymm2, %ymm4, %ymm5
	vsubps	%ymm15, %ymm4, %ymm2
	vmulps	%ymm3, %ymm2, %ymm2
	vsubps	%ymm2, %ymm4, %ymm2
	vmulps	%ymm3, %ymm2, %ymm2
	vmulps	%ymm3, %ymm5, %ymm10
	vsubps	%ymm11, %ymm4, %ymm11
	vmulps	%ymm3, %ymm1, %ymm1
	vmulps	%ymm3, %ymm14, %ymm5
	vsubps	%ymm0, %ymm4, %ymm0
	vmulps	%ymm3, %ymm0, %ymm0
	vsubps	%ymm0, %ymm4, %ymm0
	vmulps	%ymm3, %ymm0, %ymm0
	vmulps	%ymm3, %ymm9, %ymm6
	vsubps	%ymm6, %ymm4, %ymm12
	vsubps	%ymm0, %ymm4, %ymm0
	vsubps	%ymm5, %ymm4, %ymm13
	vsubps	%ymm1, %ymm4, %ymm1
	vmulps	%ymm3, %ymm11, %ymm14
	vsubps	%ymm10, %ymm4, %ymm5
	vsubps	%ymm2, %ymm4, %ymm2
	vsubps	%ymm8, %ymm4, %ymm6
	vmulps	%ymm3, %ymm6, %ymm6
	vsubps	%ymm6, %ymm4, %ymm6
	vmulps	%ymm3, %ymm6, %ymm6
	vsubps	%ymm6, %ymm4, %ymm6
	vmulps	%ymm3, %ymm6, %ymm9
	vmulps	%ymm3, %ymm2, %ymm10
	vmulps	%ymm3, %ymm5, %ymm11
	vsubps	%ymm14, %ymm4, %ymm8
	vmulps	%ymm3, %ymm1, %ymm2
	vmulps	%ymm3, %ymm13, %ymm1
	vmulps	%ymm3, %ymm0, %ymm0
	vmulps	%ymm3, %ymm12, %ymm5
	vsubps	%ymm5, %ymm4, %ymm5
	vmulps	%ymm3, %ymm5, %ymm5
	vsubps	%ymm5, %ymm4, %ymm5
	vmulps	%ymm3, %ymm5, %ymm5
	vsubps	%ymm5, %ymm4, %ymm5
	vmulps	%ymm3, %ymm5, %ymm14
	vsubps	%ymm0, %ymm4, %ymm6
	vsubps	%ymm1, %ymm4, %ymm0
	vmulps	%ymm3, %ymm0, %ymm0
	vsubps	%ymm0, %ymm4, %ymm0
	vmulps	%ymm3, %ymm0, %ymm0
	vsubps	%ymm0, %ymm4, %ymm13
	vsubps	%ymm2, %ymm4, %ymm0
	vmulps	%ymm3, %ymm8, %ymm5
	vmulps	%ymm3, %ymm6, %ymm1
	vsubps	%ymm1, %ymm4, %ymm1
	vmulps	%ymm3, %ymm1, %ymm8
	vsubps	%ymm11, %ymm4, %ymm11
	vsubps	%ymm10, %ymm4, %ymm12
	vsubps	%ymm9, %ymm4, %ymm1
	vsubps	%ymm14, %ymm4, %ymm2
	vsubps	%ymm5, %ymm4, %ymm5
	vmulps	%ymm3, %ymm5, %ymm5
	vsubps	%ymm5, %ymm4, %ymm5
	vmulps	%ymm3, %ymm5, %ymm5
	vsubps	%ymm5, %ymm4, %ymm5
	vmulps	%ymm3, %ymm5, %ymm5
	vmulps	%ymm3, %ymm0, %ymm0
	vmulps	%ymm3, %ymm2, %ymm10
	vsubps	%ymm5, %ymm4, %ymm2
	vmulps	%ymm3, %ymm13, %ymm5
	vmulps	%ymm3, %ymm1, %ymm1
	vsubps	%ymm1, %ymm4, %ymm1
	vmulps	%ymm3, %ymm1, %ymm1
	vsubps	%ymm1, %ymm4, %ymm1
	vmulps	%ymm3, %ymm1, %ymm1
	vsubps	%ymm1, %ymm4, %ymm13
	vmulps	%ymm3, %ymm12, %ymm1
	vsubps	%ymm5, %ymm4, %ymm5
	vsubps	%ymm0, %ymm4, %ymm9
	vmulps	%ymm3, %ymm2, %ymm0
	vmulps	%ymm3, %ymm11, %ymm2
	vsubps	%ymm2, %ymm4, %ymm2
	vmulps	%ymm3, %ymm2, %ymm2
	vsubps	%ymm2, %ymm4, %ymm12
	vsubps	%ymm0, %ymm4, %ymm0
	vsubps	%ymm8, %ymm4, %ymm8
	vmulps	%ymm3, %ymm5, %ymm5
	vsubps	%ymm10, %ymm4, %ymm6
	vsubps	%ymm1, %ymm4, %ymm1
	vmulps	%ymm3, %ymm1, %ymm1
	vsubps	%ymm1, %ymm4, %ymm1
	vmulps	%ymm3, %ymm1, %ymm1
	vsubps	%ymm1, %ymm4, %ymm1
	vmulps	%ymm3, %ymm1, %ymm11
	vmulps	%ymm3, %ymm13, %ymm2
	vmulps	%ymm3, %ymm6, %ymm1
	vsubps	%ymm5, %ymm4, %ymm5
	vmulps	%ymm3, %ymm8, %ymm6
	vsubps	%ymm6, %ymm4, %ymm6
	vmulps	%ymm3, %ymm6, %ymm6
	vsubps	%ymm6, %ymm4, %ymm8
	vmulps	%ymm3, %ymm0, %ymm14
	vmulps	%ymm3, %ymm12, %ymm15
	vmulps	%ymm3, %ymm9, %ymm0
	vmulps	%ymm3, %ymm5, %ymm5
	vsubps	%ymm5, %ymm4, %ymm5
	vmulps	%ymm3, %ymm5, %ymm5
	vsubps	%ymm5, %ymm4, %ymm5
	vsubps	%ymm1, %ymm4, %ymm1
	vmulps	%ymm3, %ymm1, %ymm10
	vsubps	%ymm2, %ymm4, %ymm12
	vsubps	%ymm0, %ymm4, %ymm13
	vmulps	%ymm3, %ymm5, %ymm0
	vsubps	%ymm0, %ymm4, %ymm1
	vsubps	%ymm11, %ymm4, %ymm0
	vmulps	%ymm3, %ymm1, %ymm1
	vsubps	%ymm1, %ymm4, %ymm2
	vsubps	%ymm15, %ymm4, %ymm1
	vmulps	%ymm3, %ymm1, %ymm1
	vsubps	%ymm1, %ymm4, %ymm1
	vmulps	%ymm3, %ymm2, %ymm2
	vsubps	%ymm14, %ymm4, %ymm5
	vmulps	%ymm3, %ymm5, %ymm5
	vsubps	%ymm5, %ymm4, %ymm5
	vmulps	%ymm3, %ymm5, %ymm5
	vmulps	%ymm3, %ymm8, %ymm6
	vsubps	%ymm6, %ymm4, %ymm8
	vsubps	%ymm5, %ymm4, %ymm9
	vsubps	%ymm2, %ymm4, %ymm11
	vmulps	%ymm3, %ymm1, %ymm14
	vmulps	%ymm3, %ymm0, %ymm0
	vmulps	%ymm3, %ymm13, %ymm1
	vmulps	%ymm3, %ymm12, %ymm2
	vsubps	%ymm10, %ymm4, %ymm5
	vmulps	%ymm3, %ymm5, %ymm5
	vsubps	%ymm5, %ymm4, %ymm5
	vmulps	%ymm3, %ymm5, %ymm5
	vsubps	%ymm5, %ymm4, %ymm5
	vmulps	%ymm3, %ymm5, %ymm5
	vsubps	%ymm5, %ymm4, %ymm5
	vsubps	%ymm2, %ymm4, %ymm2
	vmulps	%ymm3, %ymm2, %ymm12
	vsubps	%ymm1, %ymm4, %ymm13
	vmulps	%ymm3, %ymm5, %ymm1
	vsubps	%ymm1, %ymm4, %ymm1
	vsubps	%ymm0, %ymm4, %ymm0
	vmulps	%ymm3, %ymm0, %ymm0
	vsubps	%ymm0, %ymm4, %ymm0
	vmulps	%ymm3, %ymm1, %ymm1
	vsubps	%ymm14, %ymm4, %ymm2
	vmulps	%ymm3, %ymm11, %ymm5
	vmulps	%ymm3, %ymm9, %ymm6
	vmulps	%ymm3, %ymm8, %ymm7
	vsubps	%ymm7, %ymm4, %ymm7
	vmulps	%ymm3, %ymm7, %ymm7
	vsubps	%ymm7, %ymm4, %ymm7
	vmulps	%ymm3, %ymm7, %ymm7
	vsubps	%ymm7, %ymm4, %ymm8
	vsubps	%ymm6, %ymm4, %ymm9
	vsubps	%ymm5, %ymm4, %ymm10
	vmulps	%ymm3, %ymm2, %ymm11
	vsubps	%ymm1, %ymm4, %ymm14
	vmulps	%ymm3, %ymm0, %ymm0
	vmulps	%ymm3, %ymm13, %ymm1
	vsubps	%ymm12, %ymm4, %ymm2
	vmulps	%ymm3, %ymm2, %ymm2
	vsubps	%ymm2, %ymm4, %ymm2
	vmulps	%ymm3, %ymm2, %ymm2
	vsubps	%ymm2, %ymm4, %ymm2
	vmulps	%ymm3, %ymm2, %ymm2
	vsubps	%ymm2, %ymm4, %ymm2
	vsubps	%ymm1, %ymm4, %ymm12
	vmulps	%ymm3, %ymm2, %ymm1
	vsubps	%ymm1, %ymm4, %ymm1
	vmulps	%ymm3, %ymm1, %ymm1
	vsubps	%ymm1, %ymm4, %ymm1
	vsubps	%ymm0, %ymm4, %ymm0
	vmulps	%ymm3, %ymm1, %ymm1
	vsubps	%ymm1, %ymm4, %ymm1
	vmulps	%ymm3, %ymm14, %ymm2
	vsubps	%ymm2, %ymm4, %ymm2
	vmulps	%ymm3, %ymm2, %ymm2
	vsubps	%ymm2, %ymm4, %ymm2
	vsubps	%ymm11, %ymm4, %ymm5
	vmulps	%ymm3, %ymm5, %ymm11
	vmulps	%ymm3, %ymm2, %ymm13
	vmulps	%ymm3, %ymm1, %ymm2
	vmulps	%ymm3, %ymm10, %ymm10
	vmulps	%ymm3, %ymm9, %ymm1
	vmulps	%ymm3, %ymm8, %ymm5
	vmulps	%ymm3, %ymm0, %ymm0
	vmulps	%ymm3, %ymm12, %ymm6
	vsubps	%ymm6, %ymm4, %ymm6
	vmulps	%ymm3, %ymm6, %ymm6
	vsubps	%ymm6, %ymm4, %ymm6
	vmulps	%ymm3, %ymm6, %ymm6
	vsubps	%ymm6, %ymm4, %ymm6
	vmulps	%ymm3, %ymm6, %ymm12
	vsubps	%ymm0, %ymm4, %ymm14
	vsubps	%ymm5, %ymm4, %ymm0
	vsubps	%ymm1, %ymm4, %ymm15
	vsubps	%ymm10, %ymm4, %ymm1
	vsubps	%ymm2, %ymm4, %ymm2
	vsubps	%ymm13, %ymm4, %ymm5
	vsubps	%ymm11, %ymm4, %ymm6
	vmulps	%ymm3, %ymm6, %ymm6
	vsubps	%ymm6, %ymm4, %ymm6
	vmulps	%ymm3, %ymm6, %ymm6
	vsubps	%ymm6, %ymm4, %ymm6
	vmulps	%ymm3, %ymm6, %ymm6
	vsubps	%ymm6, %ymm4, %ymm8
	vmulps	%ymm3, %ymm5, %ymm9
	vmulps	%ymm3, %ymm2, %ymm10
	vmulps	%ymm3, %ymm1, %ymm11
	vmulps	%ymm3, %ymm15, %ymm13
	vmulps	%ymm3, %ymm0, %ymm2
	vmulps	%ymm3, %ymm14, %ymm0
	vsubps	%ymm12, %ymm4, %ymm1
	vmulps	%ymm3, %ymm1, %ymm1
	vsubps	%ymm1, %ymm4, %ymm1
	vmulps	%ymm3, %ymm1, %ymm1
	vsubps	%ymm1, %ymm4, %ymm1
	vmulps	%ymm3, %ymm1, %ymm1
	vsubps	%ymm1, %ymm4, %ymm1
	vsubps	%ymm0, %ymm4, %ymm0
	vmulps	%ymm3, %ymm1, %ymm1
	vsubps	%ymm1, %ymm4, %ymm1
	vmulps	%ymm3, %ymm1, %ymm1
	vsubps	%ymm1, %ymm4, %ymm1
	vsubps	%ymm2, %ymm4, %ymm6
	vmulps	%ymm3, %ymm1, %ymm1
	vsubps	%ymm1, %ymm4, %ymm1
	vsubps	%ymm13, %ymm4, %ymm2
	vmulps	%ymm3, %ymm2, %ymm12
	vsubps	%ymm11, %ymm4, %ymm11
	vmulps	%ymm3, %ymm1, %ymm2
	vsubps	%ymm10, %ymm4, %ymm10
	vsubps	%ymm9, %ymm4, %ymm1
	vmulps	%ymm3, %ymm8, %ymm5
	vmulps	%ymm3, %ymm6, %ymm6
	vmulps	%ymm3, %ymm0, %ymm0
	vsubps	%ymm0, %ymm4, %ymm0
	vmulps	%ymm3, %ymm0, %ymm0
	vsubps	%ymm0, %ymm4, %ymm0
	vmulps	%ymm3, %ymm0, %ymm0
	vsubps	%ymm0, %ymm4, %ymm0
	vmulps	%ymm3, %ymm0, %ymm8
	vsubps	%ymm6, %ymm4, %ymm0
	vsubps	%ymm5, %ymm4, %ymm14
	vmulps	%ymm3, %ymm1, %ymm1
	vmulps	%ymm3, %ymm10, %ymm9
	vmulps	%ymm3, %ymm11, %ymm5
	vsubps	%ymm2, %ymm4, %ymm2
	vsubps	%ymm12, %ymm4, %ymm6
	vmulps	%ymm3, %ymm6, %ymm6
	vsubps	%ymm6, %ymm4, %ymm6
	vmulps	%ymm3, %ymm6, %ymm6
	vsubps	%ymm6, %ymm4, %ymm6
	vmulps	%ymm3, %ymm6, %ymm12
	vsubps	%ymm5, %ymm4, %ymm13
	vmulps	%ymm3, %ymm2, %ymm2
	vsubps	%ymm9, %ymm4, %ymm9
	vsubps	%ymm1, %ymm4, %ymm10
	vmulps	%ymm3, %ymm14, %ymm14
	vmulps	%ymm3, %ymm0, %ymm0
	vsubps	%ymm8, %ymm4, %ymm1
	vmulps	%ymm3, %ymm1, %ymm1
	vsubps	%ymm1, %ymm4, %ymm1
	vmulps	%ymm3, %ymm1, %ymm1
	vsubps	%ymm1, %ymm4, %ymm1
	vmulps	%ymm3, %ymm1, %ymm1
	vsubps	%ymm1, %ymm4, %ymm5
	vsubps	%ymm0, %ymm4, %ymm0
	vmulps	%ymm3, %ymm0, %ymm1
	vmulps	%ymm3, %ymm5, %ymm11
	vmulps	%ymm3, %ymm13, %ymm8
	vsubps	%ymm2, %ymm4, %ymm13
	vsubps	%ymm12, %ymm4, %ymm2
	vsubps	%ymm14, %ymm4, %ymm0
	vmulps	%ymm3, %ymm0, %ymm0
	vsubps	%ymm0, %ymm4, %ymm0
	vmulps	%ymm3, %ymm0, %ymm0
	vsubps	%ymm0, %ymm4, %ymm0
	vmulps	%ymm3, %ymm0, %ymm12
	vmulps	%ymm3, %ymm10, %ymm0
	vmulps	%ymm3, %ymm2, %ymm2
	vsubps	%ymm1, %ymm4, %ymm10
	vmulps	%ymm3, %ymm13, %ymm1
	vmulps	%ymm3, %ymm9, %ymm5
	vsubps	%ymm5, %ymm4, %ymm5
	vmulps	%ymm3, %ymm5, %ymm5
	vsubps	%ymm5, %ymm4, %ymm5
	vmulps	%ymm3, %ymm5, %ymm5
	vsubps	%ymm5, %ymm4, %ymm13
	vsubps	%ymm1, %ymm4, %ymm14
	vsubps	%ymm11, %ymm4, %ymm1
	vsubps	%ymm2, %ymm4, %ymm2
	vsubps	%ymm0, %ymm4, %ymm0
	vmulps	%ymm3, %ymm0, %ymm0
	vsubps	%ymm0, %ymm4, %ymm0
	vmulps	%ymm3, %ymm0, %ymm0
	vsubps	%ymm0, %ymm4, %ymm0
	vsubps	%ymm12, %ymm4, %ymm9
	vsubps	%ymm8, %ymm4, %ymm8
	vmulps	%ymm3, %ymm2, %ymm5
	vmulps	%ymm3, %ymm1, %ymm1
	vsubps	%ymm1, %ymm4, %ymm1
	vmulps	%ymm3, %ymm1, %ymm1
	vsubps	%ymm1, %ymm4, %ymm2
	vmulps	%ymm3, %ymm14, %ymm14
	vmulps	%ymm3, %ymm13, %ymm1
	vmulps	%ymm3, %ymm10, %ymm11
	vsubps	%ymm5, %ymm4, %ymm5
	vmulps	%ymm3, %ymm5, %ymm5
	vsubps	%ymm5, %ymm4, %ymm5
	vmulps	%ymm3, %ymm5, %ymm5
	vsubps	%ymm5, %ymm4, %ymm5
	vmulps	%ymm3, %ymm5, %ymm5
	vmulps	%ymm3, %ymm0, %ymm10
	vsubps	%ymm5, %ymm4, %ymm5
	vsubps	%ymm1, %ymm4, %ymm0
	vmulps	%ymm3, %ymm0, %ymm0
	vsubps	%ymm0, %ymm4, %ymm0
	vmulps	%ymm3, %ymm5, %ymm12
	vsubps	%ymm14, %ymm4, %ymm1
	vmulps	%ymm3, %ymm2, %ymm2
	vmulps	%ymm3, %ymm9, %ymm6
	vsubps	%ymm11, %ymm4, %ymm5
	vmulps	%ymm3, %ymm5, %ymm5
	vsubps	%ymm5, %ymm4, %ymm5
	vmulps	%ymm3, %ymm5, %ymm5
	vsubps	%ymm5, %ymm4, %ymm5
	vmulps	%ymm3, %ymm5, %ymm14
	vmulps	%ymm3, %ymm8, %ymm5
	vsubps	%ymm6, %ymm4, %ymm6
	vmulps	%ymm3, %ymm6, %ymm8
	vsubps	%ymm2, %ymm4, %ymm9
	vmulps	%ymm3, %ymm1, %ymm13
	vsubps	%ymm12, %ymm4, %ymm11
	vmulps	%ymm3, %ymm0, %ymm12
	vsubps	%ymm10, %ymm4, %ymm0
	vsubps	%ymm5, %ymm4, %ymm1
	vmulps	%ymm3, %ymm1, %ymm1
	vsubps	%ymm1, %ymm4, %ymm1
	vmulps	%ymm3, %ymm1, %ymm1
	vsubps	%ymm1, %ymm4, %ymm1
	vmulps	%ymm3, %ymm1, %ymm2
	vsubps	%ymm14, %ymm4, %ymm5
	vmulps	%ymm3, %ymm0, %ymm0
	vsubps	%ymm0, %ymm4, %ymm0
	vmulps	%ymm3, %ymm0, %ymm0
	vsubps	%ymm0, %ymm4, %ymm0
	vmulps	%ymm3, %ymm0, %ymm0
	vsubps	%ymm0, %ymm4, %ymm0
	vsubps	%ymm12, %ymm4, %ymm1
	vmulps	%ymm3, %ymm5, %ymm5
	vsubps	%ymm5, %ymm4, %ymm12
	vmulps	%ymm3, %ymm11, %ymm11
	vsubps	%ymm13, %ymm4, %ymm10
	vmulps	%ymm3, %ymm9, %ymm9
	vsubps	%ymm8, %ymm4, %ymm8
	vsubps	%ymm2, %ymm4, %ymm2
	vmulps	%ymm3, %ymm1, %ymm1
	vsubps	%ymm1, %ymm4, %ymm1
	vmulps	%ymm3, %ymm1, %ymm1
	vsubps	%ymm1, %ymm4, %ymm1
	vmulps	%ymm3, %ymm1, %ymm1
	vsubps	%ymm1, %ymm4, %ymm1
	vmulps	%ymm3, %ymm0, %ymm5
	vmulps	%ymm3, %ymm2, %ymm0
	vsubps	%ymm0, %ymm4, %ymm0
	vmulps	%ymm3, %ymm0, %ymm0
	vsubps	%ymm0, %ymm4, %ymm0
	vmulps	%ymm3, %ymm0, %ymm0
	vmulps	%ymm3, %ymm8, %ymm2
	vsubps	%ymm5, %ymm4, %ymm5
	vmulps	%ymm3, %ymm5, %ymm13
	vmulps	%ymm3, %ymm1, %ymm8
	vsubps	%ymm9, %ymm4, %ymm9
	vmulps	%ymm3, %ymm10, %ymm10
	vmulps	%ymm3, %ymm12, %ymm12
	vsubps	%ymm11, %ymm4, %ymm5
	vsubps	%ymm2, %ymm4, %ymm1
	vmulps	%ymm3, %ymm1, %ymm1
	vsubps	%ymm1, %ymm4, %ymm1
	vmulps	%ymm3, %ymm1, %ymm1
	vmulps	%ymm3, %ymm5, %ymm2
	vsubps	%ymm0, %ymm4, %ymm0
	vmulps	%ymm3, %ymm0, %ymm0
	vsubps	%ymm0, %ymm4, %ymm0
	vmulps	%ymm3, %ymm0, %ymm0
	vsubps	%ymm0, %ymm4, %ymm0
	vmulps	%ymm3, %ymm0, %ymm0
	vsubps	%ymm0, %ymm4, %ymm0
	vsubps	%ymm2, %ymm4, %ymm11
	vsubps	%ymm13, %ymm4, %ymm5
	vsubps	%ymm1, %ymm4, %ymm1
	vmulps	%ymm3, %ymm1, %ymm1
	vsubps	%ymm1, %ymm4, %ymm1
	vsubps	%ymm12, %ymm4, %ymm2
	vmulps	%ymm3, %ymm2, %ymm2
	vsubps	%ymm2, %ymm4, %ymm2
	vmulps	%ymm3, %ymm1, %ymm12
	vmulps	%ymm3, %ymm5, %ymm1
	vsubps	%ymm10, %ymm4, %ymm10
	vmulps	%ymm3, %ymm11, %ymm5
	vmulps	%ymm3, %ymm0, %ymm0
	vmulps	%ymm3, %ymm9, %ymm6
	vsubps	%ymm6, %ymm4, %ymm6
	vmulps	%ymm3, %ymm6, %ymm6
	vsubps	%ymm6, %ymm4, %ymm6
	vmulps	%ymm3, %ymm6, %ymm9
	vsubps	%ymm0, %ymm4, %ymm0
	vsubps	%ymm8, %ymm4, %ymm11
	vsubps	%ymm1, %ymm4, %ymm1
	vsubps	%ymm5, %ymm4, %ymm5
	vsubps	%ymm12, %ymm4, %ymm6
	vmulps	%ymm3, %ymm2, %ymm2
	vsubps	%ymm2, %ymm4, %ymm2
	vmulps	%ymm3, %ymm2, %ymm2
	vsubps	%ymm2, %ymm4, %ymm2
	vmulps	%ymm3, %ymm2, %ymm2
	vsubps	%ymm2, %ymm4, %ymm2
	vmulps	%ymm3, %ymm2, %ymm8
	vmulps	%ymm3, %ymm6, %ymm12
	vmulps	%ymm3, %ymm5, %ymm2
	vmulps	%ymm3, %ymm1, %ymm14
	vmulps	%ymm3, %ymm11, %ymm1
	vmulps	%ymm3, %ymm0, %ymm0
	vsubps	%ymm9, %ymm4, %ymm5
	vmulps	%ymm3, %ymm10, %ymm6
	vsubps	%ymm6, %ymm4, %ymm6
	vmulps	%ymm3, %ymm6, %ymm6
	vsubps	%ymm6, %ymm4, %ymm6
	vmulps	%ymm3, %ymm6, %ymm6
	vsubps	%ymm6, %ymm4, %ymm6
	vmulps	%ymm3, %ymm6, %ymm9
	vmulps	%ymm3, %ymm5, %ymm11
	vsubps	%ymm0, %ymm4, %ymm0
	vsubps	%ymm1, %ymm4, %ymm13
	vsubps	%ymm14, %ymm4, %ymm1
	vsubps	%ymm2, %ymm4, %ymm5
	vsubps	%ymm12, %ymm4, %ymm6
	vsubps	%ymm8, %ymm4, %ymm2
	vmulps	%ymm3, %ymm2, %ymm2
	vsubps	%ymm2, %ymm4, %ymm2
	vmulps	%ymm3, %ymm2, %ymm2
	vsubps	%ymm2, %ymm4, %ymm2
	vmulps	%ymm3, %ymm2, %ymm2
	vsubps	%ymm2, %ymm4, %ymm2
	vmulps	%ymm3, %ymm6, %ymm6
	vmulps	%ymm3, %ymm5, %ymm5
	vsubps	%ymm5, %ymm4, %ymm8
	vmulps	%ymm3, %ymm1, %ymm10
	vmulps	%ymm3, %ymm13, %ymm12
	vmulps	%ymm3, %ymm0, %ymm13
	vsubps	%ymm11, %ymm4, %ymm0
	vsubps	%ymm9, %ymm4, %ymm5
	vsubps	%ymm6, %ymm4, %ymm1
	vmulps	%ymm3, %ymm1, %ymm1
	vsubps	%ymm1, %ymm4, %ymm1
	vmulps	%ymm3, %ymm1, %ymm1
	vsubps	%ymm1, %ymm4, %ymm1
	vmulps	%ymm3, %ymm1, %ymm1
	vmulps	%ymm3, %ymm2, %ymm6
	vmulps	%ymm3, %ymm5, %ymm2
	vsubps	%ymm2, %ymm4, %ymm2
	vmulps	%ymm3, %ymm2, %ymm2
	vsubps	%ymm2, %ymm4, %ymm2
	vmulps	%ymm3, %ymm2, %ymm2
	vsubps	%ymm2, %ymm4, %ymm2
	vmulps	%ymm3, %ymm0, %ymm5
	vsubps	%ymm6, %ymm4, %ymm9
	vsubps	%ymm13, %ymm4, %ymm11
	vsubps	%ymm12, %ymm4, %ymm0
	vsubps	%ymm10, %ymm4, %ymm10
	vsubps	%ymm1, %ymm4, %ymm6
	vmulps	%ymm3, %ymm8, %ymm1
	vsubps	%ymm1, %ymm4, %ymm1
	vmulps	%ymm3, %ymm1, %ymm1
	vsubps	%ymm1, %ymm4, %ymm7
	vsubps	%ymm5, %ymm4, %ymm1
	vmulps	%ymm3, %ymm1, %ymm1
	vmulps	%ymm3, %ymm7, %ymm14
	vmulps	%ymm3, %ymm6, %ymm5
	vmulps	%ymm3, %ymm2, %ymm2
	vsubps	%ymm2, %ymm4, %ymm2
	vmulps	%ymm3, %ymm2, %ymm2
	vmulps	%ymm3, %ymm10, %ymm6
	vsubps	%ymm6, %ymm4, %ymm12
	vmulps	%ymm3, %ymm0, %ymm8
	vsubps	%ymm2, %ymm4, %ymm0
	vsubps	%ymm5, %ymm4, %ymm13
	vmulps	%ymm3, %ymm11, %ymm2
	vsubps	%ymm14, %ymm4, %ymm5
	vsubps	%ymm1, %ymm4, %ymm10
	vmulps	%ymm3, %ymm5, %ymm1
	vsubps	%ymm1, %ymm4, %ymm5
	vmulps	%ymm3, %ymm9, %ymm1
	vsubps	%ymm1, %ymm4, %ymm1
	vmulps	%ymm3, %ymm1, %ymm1
	vsubps	%ymm1, %ymm4, %ymm1
	vsubps	%ymm2, %ymm4, %ymm2
	vmulps	%ymm3, %ymm2, %ymm2
	vmulps	%ymm3, %ymm1, %ymm1
	vmulps	%ymm3, %ymm5, %ymm14
	vmulps	%ymm3, %ymm13, %ymm5
	vmulps	%ymm3, %ymm0, %ymm0
	vmulps	%ymm3, %ymm12, %ymm6
	vsubps	%ymm6, %ymm4, %ymm6
	vmulps	%ymm3, %ymm6, %ymm6
	vsubps	%ymm6, %ymm4, %ymm6
	vmulps	%ymm3, %ymm6, %ymm6
	vsubps	%ymm6, %ymm4, %ymm9
	vsubps	%ymm0, %ymm4, %ymm11
	vsubps	%ymm5, %ymm4, %ymm0
	vsubps	%ymm14, %ymm4, %ymm12
	vsubps	%ymm1, %ymm4, %ymm1
	vsubps	%ymm2, %ymm4, %ymm2
	vsubps	%ymm8, %ymm4, %ymm5
	vmulps	%ymm3, %ymm10, %ymm6
	vsubps	%ymm6, %ymm4, %ymm6
	vmulps	%ymm3, %ymm6, %ymm6
	vsubps	%ymm6, %ymm4, %ymm6
	vmulps	%ymm3, %ymm6, %ymm6
	vsubps	%ymm6, %ymm4, %ymm6
	vmulps	%ymm3, %ymm6, %ymm7
	vmulps	%ymm3, %ymm5, %ymm6
	vsubps	%ymm7, %ymm4, %ymm8
	vmulps	%ymm3, %ymm2, %ymm2
	vmulps	%ymm3, %ymm1, %ymm10
	vmulps	%ymm3, %ymm12, %ymm1
	vmulps	%ymm3, %ymm0, %ymm5
	vmulps	%ymm3, %ymm11, %ymm0
	vmulps	%ymm3, %ymm9, %ymm7
	vsubps	%ymm7, %ymm4, %ymm7
	vsubps	%ymm6, %ymm4, %ymm6
	vmulps	%ymm3, %ymm6, %ymm6
	vsubps	%ymm6, %ymm4, %ymm6
	vmulps	%ymm3, %ymm6, %ymm6
	vmulps	%ymm3, %ymm7, %ymm12
	vsubps	%ymm0, %ymm4, %ymm0
	vsubps	%ymm5, %ymm4, %ymm11
	vsubps	%ymm1, %ymm4, %ymm1
	vsubps	%ymm10, %ymm4, %ymm5
	vsubps	%ymm2, %ymm4, %ymm2
	vmulps	%ymm3, %ymm2, %ymm10
	vmulps	%ymm3, %ymm8, %ymm13
	vsubps	%ymm6, %ymm4, %ymm14
	vmulps	%ymm3, %ymm5, %ymm2
	vsubps	%ymm2, %ymm4, %ymm2
	vmulps	%ymm3, %ymm2, %ymm2
	vsubps	%ymm2, %ymm4, %ymm2
	vmulps	%ymm3, %ymm2, %ymm2
	vsubps	%ymm2, %ymm4, %ymm8
	vmulps	%ymm3, %ymm1, %ymm9
	vmulps	%ymm3, %ymm11, %ymm11
	vmulps	%ymm3, %ymm0, %ymm2
	vsubps	%ymm12, %ymm4, %ymm1
	vmulps	%ymm3, %ymm14, %ymm0
	vsubps	%ymm13, %ymm4, %ymm5
	vmulps	%ymm3, %ymm5, %ymm5
	vsubps	%ymm5, %ymm4, %ymm5
	vmulps	%ymm3, %ymm5, %ymm5
	vsubps	%ymm5, %ymm4, %ymm5
	vsubps	%ymm10, %ymm4, %ymm6
	vmulps	%ymm3, %ymm6, %ymm12
	vsubps	%ymm0, %ymm4, %ymm0
	vmulps	%ymm3, %ymm5, %ymm5
	vsubps	%ymm5, %ymm4, %ymm5
	vmulps	%ymm3, %ymm5, %ymm5
	vmulps	%ymm3, %ymm1, %ymm1
	vsubps	%ymm1, %ymm4, %ymm1
	vsubps	%ymm5, %ymm4, %ymm5
	vsubps	%ymm2, %ymm4, %ymm2
	vmulps	%ymm3, %ymm2, %ymm2
	vsubps	%ymm2, %ymm4, %ymm2
	vmulps	%ymm3, %ymm2, %ymm2
	vsubps	%ymm2, %ymm4, %ymm10
	vsubps	%ymm11, %ymm4, %ymm2
	vsubps	%ymm9, %ymm4, %ymm11
	vmulps	%ymm3, %ymm5, %ymm13
	vmulps	%ymm3, %ymm8, %ymm8
	vmulps	%ymm3, %ymm1, %ymm1
	vmulps	%ymm3, %ymm0, %ymm0
	vsubps	%ymm12, %ymm4, %ymm5
	vmulps	%ymm3, %ymm5, %ymm5
	vsubps	%ymm5, %ymm4, %ymm5
	vmulps	%ymm3, %ymm5, %ymm5
	vsubps	%ymm5, %ymm4, %ymm5
	vmulps	%ymm3, %ymm5, %ymm5
	vsubps	%ymm5, %ymm4, %ymm5
	vsubps	%ymm0, %ymm4, %ymm0
	vmulps	%ymm3, %ymm5, %ymm12
	vsubps	%ymm1, %ymm4, %ymm9
	vmulps	%ymm3, %ymm2, %ymm14
	vsubps	%ymm8, %ymm4, %ymm1
	vmulps	%ymm3, %ymm1, %ymm1
	vsubps	%ymm1, %ymm4, %ymm1
	vmulps	%ymm3, %ymm1, %ymm1
	vsubps	%ymm13, %ymm4, %ymm2
	vmulps	%ymm3, %ymm10, %ymm5
	vmulps	%ymm3, %ymm11, %ymm6
	vsubps	%ymm6, %ymm4, %ymm6
	vmulps	%ymm3, %ymm6, %ymm6
	vmulps	%ymm3, %ymm0, %ymm0
	vsubps	%ymm0, %ymm4, %ymm0
	vmulps	%ymm3, %ymm0, %ymm11
	vsubps	%ymm6, %ymm4, %ymm8
	vsubps	%ymm5, %ymm4, %ymm10
	vmulps	%ymm3, %ymm2, %ymm0
	vsubps	%ymm1, %ymm4, %ymm13
	vsubps	%ymm12, %ymm4, %ymm1
	vsubps	%ymm14, %ymm4, %ymm2
	vmulps	%ymm3, %ymm2, %ymm2
	vsubps	%ymm2, %ymm4, %ymm2
	vmulps	%ymm3, %ymm2, %ymm2
	vsubps	%ymm2, %ymm4, %ymm2
	vmulps	%ymm3, %ymm2, %ymm12
	vmulps	%ymm3, %ymm9, %ymm2
	vmulps	%ymm3, %ymm1, %ymm6
	vsubps	%ymm11, %ymm4, %ymm1
	vmulps	%ymm3, %ymm1, %ymm1
	vsubps	%ymm1, %ymm4, %ymm1
	vmulps	%ymm3, %ymm1, %ymm1
	vsubps	%ymm1, %ymm4, %ymm11
	vmulps	%ymm3, %ymm13, %ymm1
	vsubps	%ymm0, %ymm4, %ymm5
	vsubps	%ymm6, %ymm4, %ymm0
	vmulps	%ymm3, %ymm0, %ymm0
	vsubps	%ymm0, %ymm4, %ymm0
	vmulps	%ymm3, %ymm0, %ymm0
	vmulps	%ymm3, %ymm10, %ymm9
	vmulps	%ymm3, %ymm8, %ymm10
	vsubps	%ymm2, %ymm4, %ymm8
	vmulps	%ymm3, %ymm5, %ymm2
	vsubps	%ymm2, %ymm4, %ymm2
	vmulps	%ymm3, %ymm2, %ymm2
	vsubps	%ymm2, %ymm4, %ymm2
	vsubps	%ymm1, %ymm4, %ymm1
	vsubps	%ymm12, %ymm4, %ymm5
	vmulps	%ymm3, %ymm5, %ymm5
	vsubps	%ymm5, %ymm4, %ymm5
	vmulps	%ymm3, %ymm5, %ymm5
	vsubps	%ymm5, %ymm4, %ymm5
	vmulps	%ymm3, %ymm5, %ymm12
	vmulps	%ymm3, %ymm1, %ymm5
	vmulps	%ymm3, %ymm2, %ymm1
	vsubps	%ymm0, %ymm4, %ymm0
	vmulps	%ymm3, %ymm0, %ymm2
	vmulps	%ymm3, %ymm11, %ymm0
	vsubps	%ymm0, %ymm4, %ymm0
	vmulps	%ymm3, %ymm0, %ymm0
	vsubps	%ymm0, %ymm4, %ymm0
	vsubps	%ymm2, %ymm4, %ymm2
	vsubps	%ymm1, %ymm4, %ymm1
	vsubps	%ymm5, %ymm4, %ymm5
	vsubps	%ymm12, %ymm4, %ymm6
	vsubps	%ymm10, %ymm4, %ymm7
	vmulps	%ymm3, %ymm7, %ymm7
	vsubps	%ymm7, %ymm4, %ymm7
	vmulps	%ymm3, %ymm7, %ymm11
	vsubps	%ymm9, %ymm4, %ymm10
	vmulps	%ymm3, %ymm6, %ymm6
	vsubps	%ymm6, %ymm4, %ymm6
	vmulps	%ymm3, %ymm6, %ymm9
	vmulps	%ymm3, %ymm5, %ymm12
	vmulps	%ymm3, %ymm1, %ymm1
	vmulps	%ymm3, %ymm2, %ymm2
	vmulps	%ymm3, %ymm0, %ymm0
	vmulps	%ymm3, %ymm8, %ymm5
	vsubps	%ymm5, %ymm4, %ymm5
	vmulps	%ymm3, %ymm5, %ymm5
	vsubps	%ymm5, %ymm4, %ymm5
	vmulps	%ymm3, %ymm5, %ymm13
	vsubps	%ymm0, %ymm4, %ymm0
	vsubps	%ymm2, %ymm4, %ymm2
	vsubps	%ymm1, %ymm4, %ymm1
	vsubps	%ymm12, %ymm4, %ymm5
	vsubps	%ymm9, %ymm4, %ymm6
	vsubps	%ymm11, %ymm4, %ymm7
	vmulps	%ymm3, %ymm7, %ymm7
	vsubps	%ymm7, %ymm4, %ymm7
	vmulps	%ymm3, %ymm7, %ymm7
	vsubps	%ymm7, %ymm4, %ymm7
	vmulps	%ymm3, %ymm7, %ymm7
	vsubps	%ymm7, %ymm4, %ymm8
	vmulps	%ymm3, %ymm6, %ymm9
	vmulps	%ymm3, %ymm5, %ymm11
	vmulps	%ymm3, %ymm1, %ymm12
	vmulps	%ymm3, %ymm2, %ymm14
	vmulps	%ymm3, %ymm0, %ymm0
	vmulps	%ymm3, %ymm10, %ymm1
	vsubps	%ymm13, %ymm4, %ymm2
	vmulps	%ymm3, %ymm2, %ymm2
	vsubps	%ymm2, %ymm4, %ymm2
	vmulps	%ymm3, %ymm2, %ymm2
	vsubps	%ymm2, %ymm4, %ymm2
	vmulps	%ymm3, %ymm2, %ymm2
	vsubps	%ymm2, %ymm4, %ymm2
	vsubps	%ymm1, %ymm4, %ymm13
	vmulps	%ymm3, %ymm2, %ymm1
	vsubps	%ymm1, %ymm4, %ymm1
	vmulps	%ymm3, %ymm1, %ymm1
	vsubps	%ymm1, %ymm4, %ymm1
	vsubps	%ymm0, %ymm4, %ymm2
	vmulps	%ymm3, %ymm1, %ymm0
	vsubps	%ymm0, %ymm4, %ymm0
	vmulps	%ymm3, %ymm0, %ymm0
	vsubps	%ymm0, %ymm4, %ymm1
	vsubps	%ymm14, %ymm4, %ymm0
	vmulps	%ymm3, %ymm0, %ymm0
	vsubps	%ymm0, %ymm4, %ymm0
	vmulps	%ymm3, %ymm0, %ymm0
	vsubps	%ymm0, %ymm4, %ymm0
	vmulps	%ymm3, %ymm1, %ymm10
	vsubps	%ymm12, %ymm4, %ymm12
	vsubps	%ymm11, %ymm4, %ymm11
	vsubps	%ymm9, %ymm4, %ymm14
	vmulps	%ymm3, %ymm8, %ymm8
	vmulps	%ymm3, %ymm2, %ymm1
	vmulps	%ymm3, %ymm13, %ymm2
	vsubps	%ymm2, %ymm4, %ymm2
	vmulps	%ymm3, %ymm2, %ymm2
	vsubps	%ymm2, %ymm4, %ymm2
	vmulps	%ymm3, %ymm2, %ymm2
	vsubps	%ymm2, %ymm4, %ymm2
	vmulps	%ymm3, %ymm2, %ymm9
	vsubps	%ymm1, %ymm4, %ymm13
	vmulps	%ymm3, %ymm0, %ymm0
	vsubps	%ymm0, %ymm4, %ymm0
	vmulps	%ymm3, %ymm0, %ymm0
	vsubps	%ymm0, %ymm4, %ymm0
	vsubps	%ymm8, %ymm4, %ymm1
	vmulps	%ymm3, %ymm1, %ymm1
	vsubps	%ymm1, %ymm4, %ymm1
	vmulps	%ymm3, %ymm14, %ymm2
	vmulps	%ymm3, %ymm0, %ymm0
	vmulps	%ymm3, %ymm11, %ymm5
	vsubps	%ymm5, %ymm4, %ymm5
	vmulps	%ymm3, %ymm5, %ymm8
	vmulps	%ymm3, %ymm12, %ymm12
	vsubps	%ymm0, %ymm4, %ymm11
	vsubps	%ymm10, %ymm4, %ymm0
	vsubps	%ymm2, %ymm4, %ymm2
	vmulps	%ymm3, %ymm1, %ymm1
	vmulps	%ymm3, %ymm13, %ymm5
	vsubps	%ymm9, %ymm4, %ymm6
	vmulps	%ymm3, %ymm6, %ymm6
	vsubps	%ymm6, %ymm4, %ymm6
	vmulps	%ymm3, %ymm6, %ymm6
	vsubps	%ymm6, %ymm4, %ymm6
	vmulps	%ymm3, %ymm6, %ymm6
	vsubps	%ymm6, %ymm4, %ymm6
	vsubps	%ymm5, %ymm4, %ymm5
	vmulps	%ymm3, %ymm5, %ymm9
	vmulps	%ymm3, %ymm6, %ymm13
	vsubps	%ymm1, %ymm4, %ymm14
	vmulps	%ymm3, %ymm2, %ymm1
	vmulps	%ymm3, %ymm0, %ymm15
	vsubps	%ymm12, %ymm4, %ymm2
	vmulps	%ymm3, %ymm11, %ymm0
	vsubps	%ymm8, %ymm4, %ymm5
	vmulps	%ymm3, %ymm5, %ymm5
	vsubps	%ymm5, %ymm4, %ymm5
	vmulps	%ymm3, %ymm5, %ymm5
	vsubps	%ymm5, %ymm4, %ymm5
	vmulps	%ymm3, %ymm5, %ymm10
	vmulps	%ymm3, %ymm2, %ymm2
	vsubps	%ymm0, %ymm4, %ymm0
	vsubps	%ymm15, %ymm4, %ymm8
	vsubps	%ymm1, %ymm4, %ymm15
	vmulps	%ymm3, %ymm14, %ymm1
	vsubps	%ymm13, %ymm4, %ymm5
	vsubps	%ymm9, %ymm4, %ymm6
	vmulps	%ymm3, %ymm6, %ymm6
	vsubps	%ymm6, %ymm4, %ymm6
	vmulps	%ymm3, %ymm6, %ymm6
	vsubps	%ymm6, %ymm4, %ymm6
	vmulps	%ymm3, %ymm6, %ymm6
	vsubps	%ymm6, %ymm4, %ymm11
	vmulps	%ymm3, %ymm5, %ymm12
	vsubps	%ymm1, %ymm4, %ymm1
	vmulps	%ymm3, %ymm15, %ymm5
	vmulps	%ymm3, %ymm8, %ymm9
	vsubps	%ymm2, %ymm4, %ymm8
	vmulps	%ymm3, %ymm0, %ymm0
	vsubps	%ymm0, %ymm4, %ymm0
	vmulps	%ymm3, %ymm0, %ymm6
	vsubps	%ymm10, %ymm4, %ymm0
	vmulps	%ymm3, %ymm0, %ymm0
	vsubps	%ymm0, %ymm4, %ymm2
	vsubps	%ymm5, %ymm4, %ymm0
	vmulps	%ymm3, %ymm0, %ymm10
	vmulps	%ymm3, %ymm1, %ymm0
	vmulps	%ymm3, %ymm2, %ymm2
	vsubps	%ymm6, %ymm4, %ymm5
	vsubps	%ymm12, %ymm4, %ymm6
	vmulps	%ymm3, %ymm11, %ymm1
	vsubps	%ymm1, %ymm4, %ymm1
	vmulps	%ymm3, %ymm1, %ymm1
	vsubps	%ymm1, %ymm4, %ymm1
	vmulps	%ymm3, %ymm1, %ymm1
	vsubps	%ymm1, %ymm4, %ymm1
	vmulps	%ymm3, %ymm1, %ymm1
	vmulps	%ymm3, %ymm6, %ymm6
	vmulps	%ymm3, %ymm5, %ymm5
	vsubps	%ymm2, %ymm4, %ymm7
	vsubps	%ymm0, %ymm4, %ymm0
	vmulps	%ymm3, %ymm0, %ymm0
	vsubps	%ymm0, %ymm4, %ymm2
	vsubps	%ymm10, %ymm4, %ymm10
	vmulps	%ymm3, %ymm7, %ymm0
	vsubps	%ymm0, %ymm4, %ymm12
	vsubps	%ymm5, %ymm4, %ymm5
	vsubps	%ymm6, %ymm4, %ymm6
	vsubps	%ymm1, %ymm4, %ymm0
	vmulps	%ymm3, %ymm0, %ymm0
	vsubps	%ymm0, %ymm4, %ymm0
	vsubps	%ymm9, %ymm4, %ymm1
	vmulps	%ymm3, %ymm1, %ymm1
	vsubps	%ymm1, %ymm4, %ymm9
	vmulps	%ymm3, %ymm0, %ymm0
	vmulps	%ymm3, %ymm6, %ymm11
	vmulps	%ymm3, %ymm5, %ymm1
	vmulps	%ymm3, %ymm12, %ymm5
	vmulps	%ymm3, %ymm2, %ymm2
	vmulps	%ymm3, %ymm8, %ymm6
	vsubps	%ymm6, %ymm4, %ymm6
	vmulps	%ymm3, %ymm6, %ymm6
	vsubps	%ymm6, %ymm4, %ymm6
	vmulps	%ymm3, %ymm6, %ymm6
	vsubps	%ymm6, %ymm4, %ymm6
	vmulps	%ymm3, %ymm6, %ymm14
	vsubps	%ymm2, %ymm4, %ymm8
	vsubps	%ymm5, %ymm4, %ymm12
	vsubps	%ymm1, %ymm4, %ymm13
	vsubps	%ymm11, %ymm4, %ymm1
	vsubps	%ymm0, %ymm4, %ymm0
	vmulps	%ymm3, %ymm9, %ymm2
	vmulps	%ymm3, %ymm10, %ymm5
	vsubps	%ymm5, %ymm4, %ymm5
	vmulps	%ymm3, %ymm5, %ymm5
	vsubps	%ymm5, %ymm4, %ymm5
	vmulps	%ymm3, %ymm5, %ymm5
	vsubps	%ymm5, %ymm4, %ymm5
	vmulps	%ymm3, %ymm5, %ymm11
	vsubps	%ymm2, %ymm4, %ymm2
	vsubps	%ymm14, %ymm4, %ymm9
	vmulps	%ymm3, %ymm0, %ymm5
	vmulps	%ymm3, %ymm1, %ymm0
	vsubps	%ymm5, %ymm4, %ymm1
	vmulps	%ymm3, %ymm1, %ymm1
	vmulps	%ymm3, %ymm13, %ymm5
	vmulps	%ymm3, %ymm12, %ymm6
	vmulps	%ymm3, %ymm8, %ymm7
	vsubps	%ymm7, %ymm4, %ymm7
	vmulps	%ymm3, %ymm7, %ymm7
	vsubps	%ymm7, %ymm4, %ymm7
	vmulps	%ymm3, %ymm7, %ymm7
	vsubps	%ymm7, %ymm4, %ymm7
	vmulps	%ymm3, %ymm7, %ymm10
	vsubps	%ymm6, %ymm4, %ymm12
	vsubps	%ymm5, %ymm4, %ymm13
	vmulps	%ymm3, %ymm2, %ymm8
	vsubps	%ymm1, %ymm4, %ymm2
	vsubps	%ymm11, %ymm4, %ymm5
	vsubps	%ymm0, %ymm4, %ymm0
	vmulps	%ymm3, %ymm0, %ymm0
	vsubps	%ymm0, %ymm4, %ymm0
	vmulps	%ymm3, %ymm0, %ymm0
	vsubps	%ymm0, %ymm4, %ymm0
	vmulps	%ymm3, %ymm0, %ymm0
	vmulps	%ymm3, %ymm9, %ymm1
	vmulps	%ymm3, %ymm5, %ymm9
	vmulps	%ymm3, %ymm2, %ymm2
	vsubps	%ymm2, %ymm4, %ymm2
	vmulps	%ymm3, %ymm2, %ymm2
	vsubps	%ymm2, %ymm4, %ymm11
	vmulps	%ymm3, %ymm13, %ymm2
	vmulps	%ymm3, %ymm12, %ymm5
	vsubps	%ymm10, %ymm4, %ymm6
	vsubps	%ymm9, %ymm4, %ymm7
	vmulps	%ymm3, %ymm7, %ymm7
	vsubps	%ymm7, %ymm4, %ymm7
	vsubps	%ymm1, %ymm4, %ymm1
	vmulps	%ymm3, %ymm1, %ymm9
	vmulps	%ymm3, %ymm7, %ymm10
	vsubps	%ymm0, %ymm4, %ymm0
	vmulps	%ymm3, %ymm6, %ymm13
	vsubps	%ymm5, %ymm4, %ymm1
	vsubps	%ymm2, %ymm4, %ymm2
	vsubps	%ymm8, %ymm4, %ymm5
	vmulps	%ymm3, %ymm5, %ymm5
	vsubps	%ymm5, %ymm4, %ymm5
	vmulps	%ymm3, %ymm5, %ymm5
	vsubps	%ymm5, %ymm4, %ymm8
	vmulps	%ymm3, %ymm11, %ymm5
	vmulps	%ymm3, %ymm2, %ymm2
	vsubps	%ymm2, %ymm4, %ymm2
	vmulps	%ymm3, %ymm2, %ymm2
	vsubps	%ymm2, %ymm4, %ymm12
	vmulps	%ymm3, %ymm1, %ymm2
	vsubps	%ymm13, %ymm4, %ymm13
	vmulps	%ymm3, %ymm0, %ymm14
	vsubps	%ymm5, %ymm4, %ymm1
	vsubps	%ymm10, %ymm4, %ymm0
	vsubps	%ymm9, %ymm4, %ymm5
	vmulps	%ymm3, %ymm5, %ymm5
	vsubps	%ymm5, %ymm4, %ymm5
	vmulps	%ymm3, %ymm5, %ymm5
	vsubps	%ymm5, %ymm4, %ymm5
	vmulps	%ymm3, %ymm5, %ymm5
	vsubps	%ymm5, %ymm4, %ymm11
	vmulps	%ymm3, %ymm0, %ymm0
	vsubps	%ymm14, %ymm4, %ymm9
	vmulps	%ymm3, %ymm1, %ymm14
	vmulps	%ymm3, %ymm13, %ymm1
	vsubps	%ymm2, %ymm4, %ymm2
	vmulps	%ymm3, %ymm12, %ymm5
	vmulps	%ymm3, %ymm8, %ymm6
	vsubps	%ymm6, %ymm4, %ymm6
	vmulps	%ymm3, %ymm6, %ymm6
	vsubps	%ymm6, %ymm4, %ymm6
	vmulps	%ymm3, %ymm6, %ymm8
	vsubps	%ymm5, %ymm4, %ymm10
	vmulps	%ymm3, %ymm2, %ymm12
	vsubps	%ymm1, %ymm4, %ymm1
	vmulps	%ymm3, %ymm9, %ymm9
	vsubps	%ymm14, %ymm4, %ymm5
	vsubps	%ymm0, %ymm4, %ymm0
	vmulps	%ymm3, %ymm11, %ymm2
	vsubps	%ymm2, %ymm4, %ymm2
	vmulps	%ymm3, %ymm2, %ymm2
	vsubps	%ymm2, %ymm4, %ymm2
	vmulps	%ymm3, %ymm2, %ymm2
	vsubps	%ymm2, %ymm4, %ymm2
	vmulps	%ymm3, %ymm2, %ymm2
	vmulps	%ymm3, %ymm0, %ymm6
	vmulps	%ymm3, %ymm5, %ymm0
	vmulps	%ymm3, %ymm1, %ymm1
	vsubps	%ymm1, %ymm4, %ymm1
	vmulps	%ymm3, %ymm1, %ymm11
	vsubps	%ymm0, %ymm4, %ymm0
	vsubps	%ymm12, %ymm4, %ymm13
	vmulps	%ymm3, %ymm10, %ymm10
	vsubps	%ymm8, %ymm4, %ymm1
	vsubps	%ymm6, %ymm4, %ymm5
	vsubps	%ymm2, %ymm4, %ymm2
	vsubps	%ymm9, %ymm4, %ymm6
	vmulps	%ymm3, %ymm6, %ymm6
	vsubps	%ymm6, %ymm4, %ymm6
	vmulps	%ymm3, %ymm6, %ymm6
	vsubps	%ymm6, %ymm4, %ymm9
	vmulps	%ymm3, %ymm2, %ymm2
	vmulps	%ymm3, %ymm5, %ymm12
	vmulps	%ymm3, %ymm1, %ymm1
	vsubps	%ymm10, %ymm4, %ymm10
	vmulps	%ymm3, %ymm13, %ymm5
	vmulps	%ymm3, %ymm0, %ymm0
	vsubps	%ymm0, %ymm4, %ymm6
	vsubps	%ymm11, %ymm4, %ymm0
	vmulps	%ymm3, %ymm0, %ymm0
	vsubps	%ymm0, %ymm4, %ymm0
	vmulps	%ymm3, %ymm0, %ymm0
	vsubps	%ymm0, %ymm4, %ymm0
	vsubps	%ymm5, %ymm4, %ymm8
	vmulps	%ymm3, %ymm6, %ymm13
	vmulps	%ymm3, %ymm10, %ymm10
	vsubps	%ymm1, %ymm4, %ymm11
	vsubps	%ymm12, %ymm4, %ymm5
	vsubps	%ymm2, %ymm4, %ymm1
	vmulps	%ymm3, %ymm9, %ymm2
	vsubps	%ymm2, %ymm4, %ymm2
	vmulps	%ymm3, %ymm2, %ymm2
	vsubps	%ymm2, %ymm4, %ymm2
	vmulps	%ymm3, %ymm2, %ymm2
	vsubps	%ymm2, %ymm4, %ymm2
	vmulps	%ymm3, %ymm2, %ymm2
	vmulps	%ymm3, %ymm1, %ymm1
	vmulps	%ymm3, %ymm5, %ymm9
	vsubps	%ymm13, %ymm4, %ymm5
	vmulps	%ymm3, %ymm0, %ymm0
	vsubps	%ymm0, %ymm4, %ymm0
	vmulps	%ymm3, %ymm0, %ymm0
	vmulps	%ymm3, %ymm11, %ymm6
	vsubps	%ymm6, %ymm4, %ymm6
	vmulps	%ymm3, %ymm6, %ymm11
	vsubps	%ymm0, %ymm4, %ymm0
	vmulps	%ymm3, %ymm5, %ymm12
	vsubps	%ymm10, %ymm4, %ymm5
	vsubps	%ymm1, %ymm4, %ymm1
	vmulps	%ymm3, %ymm1, %ymm10
	vmulps	%ymm3, %ymm8, %ymm8
	vsubps	%ymm2, %ymm4, %ymm1
	vmulps	%ymm3, %ymm1, %ymm1
	vsubps	%ymm1, %ymm4, %ymm1
	vmulps	%ymm3, %ymm1, %ymm1
	vmulps	%ymm3, %ymm5, %ymm2
	vsubps	%ymm2, %ymm4, %ymm2
	vmulps	%ymm3, %ymm2, %ymm2
	vsubps	%ymm2, %ymm4, %ymm14
	vsubps	%ymm1, %ymm4, %ymm1
	vsubps	%ymm12, %ymm4, %ymm2
	vmulps	%ymm3, %ymm0, %ymm0
	vsubps	%ymm0, %ymm4, %ymm0
	vsubps	%ymm11, %ymm4, %ymm5
	vmulps	%ymm3, %ymm5, %ymm5
	vsubps	%ymm5, %ymm4, %ymm5
	vmulps	%ymm3, %ymm5, %ymm13
	vmulps	%ymm3, %ymm0, %ymm0
	vmulps	%ymm3, %ymm2, %ymm12
	vmulps	%ymm3, %ymm1, %ymm1
	vsubps	%ymm10, %ymm4, %ymm5
	vsubps	%ymm9, %ymm4, %ymm2
	vmulps	%ymm3, %ymm14, %ymm6
	vsubps	%ymm6, %ymm4, %ymm6
	vmulps	%ymm3, %ymm6, %ymm6
	vsubps	%ymm6, %ymm4, %ymm6
	vmulps	%ymm3, %ymm6, %ymm6
	vsubps	%ymm6, %ymm4, %ymm6
	vmulps	%ymm3, %ymm6, %ymm6
	vmulps	%ymm3, %ymm5, %ymm5
	vsubps	%ymm5, %ymm4, %ymm9
	vsubps	%ymm6, %ymm4, %ymm10
	vsubps	%ymm1, %ymm4, %ymm11
	vsubps	%ymm12, %ymm4, %ymm12
	vsubps	%ymm0, %ymm4, %ymm0
	vsubps	%ymm13, %ymm4, %ymm13
	vsubps	%ymm8, %ymm4, %ymm1
	vmulps	%ymm3, %ymm2, %ymm2
	vsubps	%ymm2, %ymm4, %ymm2
	vmulps	%ymm3, %ymm2, %ymm2
	vsubps	%ymm2, %ymm4, %ymm2
	vmulps	%ymm3, %ymm2, %ymm2
	vsubps	%ymm2, %ymm4, %ymm2
	vmulps	%ymm3, %ymm2, %ymm2
	vmulps	%ymm3, %ymm1, %ymm1
	vsubps	%ymm1, %ymm4, %ymm1
	vmulps	%ymm3, %ymm1, %ymm1
	vsubps	%ymm1, %ymm4, %ymm1
	vmulps	%ymm3, %ymm1, %ymm8
	vsubps	%ymm2, %ymm4, %ymm2
	vmulps	%ymm3, %ymm13, %ymm13
	vmulps	%ymm3, %ymm0, %ymm0
	vmulps	%ymm3, %ymm12, %ymm1
	vmulps	%ymm3, %ymm11, %ymm5
	vmulps	%ymm3, %ymm10, %ymm6
	vmulps	%ymm3, %ymm9, %ymm7
	vsubps	%ymm7, %ymm4, %ymm7
	vmulps	%ymm3, %ymm7, %ymm7
	vsubps	%ymm7, %ymm4, %ymm7
	vmulps	%ymm3, %ymm7, %ymm7
	vsubps	%ymm7, %ymm4, %ymm10
	vsubps	%ymm6, %ymm4, %ymm11
	vsubps	%ymm5, %ymm4, %ymm9
	vsubps	%ymm1, %ymm4, %ymm1
	vsubps	%ymm0, %ymm4, %ymm0
	vsubps	%ymm13, %ymm4, %ymm5
	vmulps	%ymm3, %ymm2, %ymm2
	vsubps	%ymm8, %ymm4, %ymm6
	vmulps	%ymm3, %ymm6, %ymm6
	vsubps	%ymm6, %ymm4, %ymm6
	vmulps	%ymm3, %ymm6, %ymm6
	vsubps	%ymm6, %ymm4, %ymm6
	vmulps	%ymm3, %ymm6, %ymm12
	vmulps	%ymm3, %ymm1, %ymm1
	vsubps	%ymm2, %ymm4, %ymm6
	vmulps	%ymm3, %ymm5, %ymm2
	vsubps	%ymm2, %ymm4, %ymm2
	vmulps	%ymm3, %ymm2, %ymm8
	vmulps	%ymm3, %ymm9, %ymm9
	vmulps	%ymm3, %ymm11, %ymm11
	vmulps	%ymm3, %ymm10, %ymm2
	vmulps	%ymm3, %ymm0, %ymm0
	vmulps	%ymm3, %ymm6, %ymm5
	vsubps	%ymm1, %ymm4, %ymm1
	vmulps	%ymm3, %ymm1, %ymm1
	vsubps	%ymm1, %ymm4, %ymm1
	vmulps	%ymm3, %ymm1, %ymm1
	vsubps	%ymm1, %ymm4, %ymm1
	vsubps	%ymm12, %ymm4, %ymm6
	vmulps	%ymm3, %ymm6, %ymm10
	vsubps	%ymm5, %ymm4, %ymm12
	vmulps	%ymm3, %ymm1, %ymm1
	vsubps	%ymm1, %ymm4, %ymm5
	vsubps	%ymm0, %ymm4, %ymm0
	vmulps	%ymm3, %ymm0, %ymm0
	vsubps	%ymm0, %ymm4, %ymm0
	vsubps	%ymm2, %ymm4, %ymm2
	vsubps	%ymm11, %ymm4, %ymm1
	vmulps	%ymm3, %ymm5, %ymm5
	vsubps	%ymm9, %ymm4, %ymm6
	vsubps	%ymm8, %ymm4, %ymm7
	vmulps	%ymm3, %ymm7, %ymm7
	vsubps	%ymm7, %ymm4, %ymm7
	vmulps	%ymm3, %ymm7, %ymm7
	vsubps	%ymm7, %ymm4, %ymm7
	vmulps	%ymm3, %ymm7, %ymm7
	vsubps	%ymm7, %ymm4, %ymm8
	vmulps	%ymm3, %ymm6, %ymm9
	vsubps	%ymm5, %ymm4, %ymm11
	vmulps	%ymm3, %ymm1, %ymm13
	vmulps	%ymm3, %ymm2, %ymm14
	vmulps	%ymm3, %ymm0, %ymm0
	vmulps	%ymm3, %ymm12, %ymm1
	vsubps	%ymm10, %ymm4, %ymm2
	vmulps	%ymm3, %ymm2, %ymm2
	vsubps	%ymm2, %ymm4, %ymm2
	vmulps	%ymm3, %ymm2, %ymm2
	vsubps	%ymm2, %ymm4, %ymm2
	vmulps	%ymm3, %ymm2, %ymm2
	vsubps	%ymm2, %ymm4, %ymm2
	vsubps	%ymm1, %ymm4, %ymm10
	vmulps	%ymm3, %ymm2, %ymm1
	vsubps	%ymm1, %ymm4, %ymm1
	vmulps	%ymm3, %ymm1, %ymm1
	vsubps	%ymm1, %ymm4, %ymm1
	vsubps	%ymm0, %ymm4, %ymm0
	vmulps	%ymm3, %ymm0, %ymm0
	vsubps	%ymm0, %ymm4, %ymm0
	vsubps	%ymm14, %ymm4, %ymm12
	vmulps	%ymm3, %ymm1, %ymm1
	vsubps	%ymm13, %ymm4, %ymm5
	vmulps	%ymm3, %ymm11, %ymm2
	vsubps	%ymm2, %ymm4, %ymm2
	vsubps	%ymm9, %ymm4, %ymm6
	vmulps	%ymm3, %ymm6, %ymm6
	vsubps	%ymm6, %ymm4, %ymm11
	vmulps	%ymm3, %ymm2, %ymm2
	vmulps	%ymm3, %ymm8, %ymm8
	vmulps	%ymm3, %ymm5, %ymm13
	vmulps	%ymm3, %ymm12, %ymm9
	vsubps	%ymm1, %ymm4, %ymm12
	vmulps	%ymm3, %ymm0, %ymm1
	vmulps	%ymm3, %ymm10, %ymm0
	vsubps	%ymm0, %ymm4, %ymm0
	vmulps	%ymm3, %ymm0, %ymm0
	vsubps	%ymm0, %ymm4, %ymm0
	vmulps	%ymm3, %ymm0, %ymm0
	vsubps	%ymm0, %ymm4, %ymm0
	vsubps	%ymm1, %ymm4, %ymm1
	vsubps	%ymm13, %ymm4, %ymm10
	vsubps	%ymm8, %ymm4, %ymm8
	vmulps	%ymm3, %ymm12, %ymm5
	vsubps	%ymm2, %ymm4, %ymm2
	vmulps	%ymm3, %ymm2, %ymm2
	vmulps	%ymm3, %ymm11, %ymm6
	vsubps	%ymm6, %ymm4, %ymm6
	vmulps	%ymm3, %ymm6, %ymm6
	vsubps	%ymm6, %ymm4, %ymm12
	vsubps	%ymm2, %ymm4, %ymm13
	vsubps	%ymm5, %ymm4, %ymm14
	vmulps	%ymm3, %ymm10, %ymm2
	vmulps	%ymm3, %ymm1, %ymm1
	vsubps	%ymm9, %ymm4, %ymm5
	vmulps	%ymm3, %ymm0, %ymm0
	vsubps	%ymm0, %ymm4, %ymm0
	vmulps	%ymm3, %ymm0, %ymm0
	vsubps	%ymm0, %ymm4, %ymm0
	vmulps	%ymm3, %ymm0, %ymm0
	vsubps	%ymm0, %ymm4, %ymm0
	vmulps	%ymm3, %ymm0, %ymm0
	vmulps	%ymm3, %ymm5, %ymm15
	vsubps	%ymm0, %ymm4, %ymm0
	vmulps	%ymm3, %ymm0, %ymm0
	vsubps	%ymm0, %ymm4, %ymm0
	vsubps	%ymm1, %ymm4, %ymm9
	vsubps	%ymm2, %ymm4, %ymm11
	vmulps	%ymm3, %ymm0, %ymm10
	vmulps	%ymm3, %ymm14, %ymm14
	vmulps	%ymm3, %ymm13, %ymm2
	vmulps	%ymm3, %ymm12, %ymm0
	vmulps	%ymm3, %ymm8, %ymm1
	vsubps	%ymm15, %ymm4, %ymm5
	vmulps	%ymm3, %ymm5, %ymm5
	vsubps	%ymm5, %ymm4, %ymm5
	vmulps	%ymm3, %ymm5, %ymm5
	vsubps	%ymm5, %ymm4, %ymm5
	vmulps	%ymm3, %ymm5, %ymm5
	vsubps	%ymm5, %ymm4, %ymm6
	vsubps	%ymm1, %ymm4, %ymm1
	vmulps	%ymm3, %ymm1, %ymm1
	vsubps	%ymm1, %ymm4, %ymm1
	vmulps	%ymm3, %ymm1, %ymm1
	vsubps	%ymm1, %ymm4, %ymm5
	vmulps	%ymm3, %ymm6, %ymm12
	vsubps	%ymm0, %ymm4, %ymm0
	vsubps	%ymm2, %ymm4, %ymm2
	vsubps	%ymm14, %ymm4, %ymm1
	vmulps	%ymm3, %ymm11, %ymm8
	vmulps	%ymm3, %ymm9, %ymm11
	vsubps	%ymm10, %ymm4, %ymm6
	vmulps	%ymm3, %ymm6, %ymm9
	vmulps	%ymm3, %ymm5, %ymm5
	vsubps	%ymm5, %ymm4, %ymm5
	vmulps	%ymm3, %ymm5, %ymm5
	vsubps	%ymm5, %ymm4, %ymm5
	vmulps	%ymm3, %ymm5, %ymm6
	vsubps	%ymm9, %ymm4, %ymm5
	vmulps	%ymm3, %ymm5, %ymm5
	vsubps	%ymm5, %ymm4, %ymm9
	vmulps	%ymm3, %ymm1, %ymm10
	vmulps	%ymm3, %ymm2, %ymm2
	vmulps	%ymm3, %ymm0, %ymm13
	vsubps	%ymm12, %ymm4, %ymm5
	vsubps	%ymm6, %ymm4, %ymm1
	vsubps	%ymm11, %ymm4, %ymm0
	vmulps	%ymm3, %ymm0, %ymm0
	vsubps	%ymm0, %ymm4, %ymm0
	vmulps	%ymm3, %ymm0, %ymm0
	vsubps	%ymm0, %ymm4, %ymm0
	vsubps	%ymm8, %ymm4, %ymm11
	vmulps	%ymm3, %ymm1, %ymm1
	vmulps	%ymm3, %ymm5, %ymm5
	vsubps	%ymm13, %ymm4, %ymm6
	vmulps	%ymm3, %ymm6, %ymm6
	vsubps	%ymm6, %ymm4, %ymm6
	vmulps	%ymm3, %ymm6, %ymm8
	vsubps	%ymm2, %ymm4, %ymm12
	vsubps	%ymm10, %ymm4, %ymm2
	vmulps	%ymm3, %ymm9, %ymm9
	vsubps	%ymm5, %ymm4, %ymm5
	vmulps	%ymm3, %ymm11, %ymm10
	vsubps	%ymm1, %ymm4, %ymm1
	vmulps	%ymm3, %ymm1, %ymm1
	vsubps	%ymm1, %ymm4, %ymm1
	vmulps	%ymm3, %ymm1, %ymm6
	vmulps	%ymm3, %ymm0, %ymm0
	vsubps	%ymm0, %ymm4, %ymm0
	vmulps	%ymm3, %ymm0, %ymm1
	vsubps	%ymm6, %ymm4, %ymm13
	vmulps	%ymm3, %ymm5, %ymm5
	vsubps	%ymm9, %ymm4, %ymm0
	vmulps	%ymm3, %ymm0, %ymm0
	vmulps	%ymm3, %ymm2, %ymm2
	vsubps	%ymm2, %ymm4, %ymm2
	vmulps	%ymm3, %ymm2, %ymm11
	vmulps	%ymm3, %ymm12, %ymm12
	vsubps	%ymm0, %ymm4, %ymm0
	vsubps	%ymm5, %ymm4, %ymm14
	vsubps	%ymm8, %ymm4, %ymm9
	vmulps	%ymm3, %ymm13, %ymm5
	vsubps	%ymm1, %ymm4, %ymm1
	vsubps	%ymm10, %ymm4, %ymm2
	vmulps	%ymm3, %ymm2, %ymm2
	vsubps	%ymm2, %ymm4, %ymm2
	vmulps	%ymm3, %ymm2, %ymm2
	vsubps	%ymm2, %ymm4, %ymm2
	vmulps	%ymm3, %ymm2, %ymm2
	vmulps	%ymm3, %ymm1, %ymm13
	vsubps	%ymm5, %ymm4, %ymm1
	vmulps	%ymm3, %ymm14, %ymm8
	vsubps	%ymm12, %ymm4, %ymm10
	vmulps	%ymm3, %ymm0, %ymm0
	vsubps	%ymm0, %ymm4, %ymm0
	vsubps	%ymm11, %ymm4, %ymm5
	vmulps	%ymm3, %ymm5, %ymm5
	vsubps	%ymm5, %ymm4, %ymm5
	vmulps	%ymm3, %ymm5, %ymm5
	vsubps	%ymm5, %ymm4, %ymm5
	vmulps	%ymm3, %ymm5, %ymm11
	vmulps	%ymm3, %ymm0, %ymm0
	vmulps	%ymm3, %ymm1, %ymm12
	vsubps	%ymm13, %ymm4, %ymm1
	vmulps	%ymm3, %ymm9, %ymm5
	vsubps	%ymm2, %ymm4, %ymm2
	vmulps	%ymm3, %ymm2, %ymm2
	vsubps	%ymm2, %ymm4, %ymm2
	vmulps	%ymm3, %ymm2, %ymm2
	vsubps	%ymm2, %ymm4, %ymm2
	vmulps	%ymm3, %ymm2, %ymm2
	vsubps	%ymm2, %ymm4, %ymm6
	vsubps	%ymm5, %ymm4, %ymm2
	vmulps	%ymm3, %ymm2, %ymm9
	vmulps	%ymm3, %ymm10, %ymm2
	vmulps	%ymm3, %ymm6, %ymm13
	vmulps	%ymm3, %ymm1, %ymm14
	vsubps	%ymm12, %ymm4, %ymm1
	vsubps	%ymm0, %ymm4, %ymm5
	vsubps	%ymm11, %ymm4, %ymm0
	vsubps	%ymm8, %ymm4, %ymm6
	vmulps	%ymm3, %ymm6, %ymm6
	vsubps	%ymm6, %ymm4, %ymm6
	vmulps	%ymm3, %ymm6, %ymm6
	vsubps	%ymm6, %ymm4, %ymm8
	vmulps	%ymm3, %ymm0, %ymm0
	vmulps	%ymm3, %ymm5, %ymm10
	vmulps	%ymm3, %ymm1, %ymm1
	vsubps	%ymm14, %ymm4, %ymm5
	vsubps	%ymm13, %ymm4, %ymm6
	vsubps	%ymm2, %ymm4, %ymm2
	vmulps	%ymm3, %ymm2, %ymm2
	vsubps	%ymm2, %ymm4, %ymm2
	vmulps	%ymm3, %ymm2, %ymm2
	vsubps	%ymm9, %ymm4, %ymm9
	vmulps	%ymm3, %ymm6, %ymm6
	vsubps	%ymm6, %ymm4, %ymm6
	vmulps	%ymm3, %ymm6, %ymm6
	vmulps	%ymm3, %ymm5, %ymm11
	vsubps	%ymm1, %ymm4, %ymm12
	vsubps	%ymm10, %ymm4, %ymm13
	vsubps	%ymm0, %ymm4, %ymm0
	vmulps	%ymm3, %ymm8, %ymm1
	vmulps	%ymm3, %ymm9, %ymm5
	vsubps	%ymm5, %ymm4, %ymm5
	vmulps	%ymm3, %ymm5, %ymm10
	vsubps	%ymm6, %ymm4, %ymm5
	vsubps	%ymm2, %ymm4, %ymm14
	vmulps	%ymm3, %ymm5, %ymm2
	vsubps	%ymm2, %ymm4, %ymm2
	vsubps	%ymm1, %ymm4, %ymm1
	vmulps	%ymm3, %ymm2, %ymm2
	vsubps	%ymm2, %ymm4, %ymm2
	vmulps	%ymm3, %ymm2, %ymm2
	vmulps	%ymm3, %ymm0, %ymm0
	vsubps	%ymm0, %ymm4, %ymm0
	vmulps	%ymm3, %ymm0, %ymm8
	vsubps	%ymm2, %ymm4, %ymm9
	vmulps	%ymm3, %ymm13, %ymm13
	vmulps	%ymm3, %ymm12, %ymm2
	vsubps	%ymm11, %ymm4, %ymm5
	vmulps	%ymm3, %ymm1, %ymm0
	vsubps	%ymm0, %ymm4, %ymm0
	vmulps	%ymm3, %ymm0, %ymm0
	vsubps	%ymm0, %ymm4, %ymm0
	vmulps	%ymm3, %ymm0, %ymm1
	vmulps	%ymm3, %ymm14, %ymm0
	vsubps	%ymm10, %ymm4, %ymm11
	vmulps	%ymm3, %ymm5, %ymm12
	vsubps	%ymm1, %ymm4, %ymm1
	vmulps	%ymm3, %ymm1, %ymm1
	vsubps	%ymm1, %ymm4, %ymm1
	vmulps	%ymm3, %ymm1, %ymm1
	vsubps	%ymm1, %ymm4, %ymm1
	vsubps	%ymm2, %ymm4, %ymm14
	vmulps	%ymm3, %ymm1, %ymm1
	vsubps	%ymm1, %ymm4, %ymm1
	vsubps	%ymm13, %ymm4, %ymm2
	vmulps	%ymm3, %ymm2, %ymm2
	vmulps	%ymm3, %ymm1, %ymm10
	vmulps	%ymm3, %ymm9, %ymm5
	vsubps	%ymm8, %ymm4, %ymm6
	vsubps	%ymm0, %ymm4, %ymm0
	vmulps	%ymm3, %ymm0, %ymm0
	vsubps	%ymm0, %ymm4, %ymm0
	vmulps	%ymm3, %ymm0, %ymm0
	vsubps	%ymm0, %ymm4, %ymm0
	vmulps	%ymm3, %ymm0, %ymm1
	vmulps	%ymm3, %ymm6, %ymm8
	vsubps	%ymm5, %ymm4, %ymm9
	vsubps	%ymm10, %ymm4, %ymm10
	vsubps	%ymm2, %ymm4, %ymm13
	vmulps	%ymm3, %ymm14, %ymm0
	vsubps	%ymm12, %ymm4, %ymm6
	vmulps	%ymm3, %ymm11, %ymm2
	vsubps	%ymm2, %ymm4, %ymm2
	vmulps	%ymm3, %ymm2, %ymm2
	vsubps	%ymm2, %ymm4, %ymm2
	vmulps	%ymm3, %ymm2, %ymm2
	vsubps	%ymm2, %ymm4, %ymm2
	vsubps	%ymm1, %ymm4, %ymm5
	vmulps	%ymm3, %ymm6, %ymm1
	vsubps	%ymm1, %ymm4, %ymm1
	vmulps	%ymm3, %ymm1, %ymm1
	vsubps	%ymm1, %ymm4, %ymm1
	vmulps	%ymm3, %ymm1, %ymm1
	vsubps	%ymm1, %ymm4, %ymm14
	vsubps	%ymm0, %ymm4, %ymm1
	vmulps	%ymm3, %ymm5, %ymm0
	vsubps	%ymm0, %ymm4, %ymm0
	vmulps	%ymm3, %ymm0, %ymm0
	vsubps	%ymm0, %ymm4, %ymm0
	vmulps	%ymm3, %ymm0, %ymm0
	vmulps	%ymm3, %ymm13, %ymm5
	vmulps	%ymm3, %ymm2, %ymm6
	vmulps	%ymm3, %ymm1, %ymm1
	vsubps	%ymm1, %ymm4, %ymm1
	vmulps	%ymm3, %ymm1, %ymm11
	vmulps	%ymm3, %ymm10, %ymm10
	vmulps	%ymm3, %ymm9, %ymm12
	vsubps	%ymm8, %ymm4, %ymm2
	vmulps	%ymm3, %ymm14, %ymm1
	vsubps	%ymm6, %ymm4, %ymm6
	vsubps	%ymm5, %ymm4, %ymm5
	vmulps	%ymm3, %ymm5, %ymm5
	vsubps	%ymm5, %ymm4, %ymm5
	vmulps	%ymm3, %ymm5, %ymm5
	vsubps	%ymm5, %ymm4, %ymm5
	vsubps	%ymm0, %ymm4, %ymm0
	vmulps	%ymm3, %ymm0, %ymm0
	vmulps	%ymm3, %ymm6, %ymm6
	vsubps	%ymm6, %ymm4, %ymm6
	vmulps	%ymm3, %ymm6, %ymm9
	vsubps	%ymm0, %ymm4, %ymm0
	vsubps	%ymm1, %ymm4, %ymm14
	vmulps	%ymm3, %ymm5, %ymm13
	vmulps	%ymm3, %ymm2, %ymm1
	vsubps	%ymm12, %ymm4, %ymm2
	vsubps	%ymm10, %ymm4, %ymm5
	vsubps	%ymm11, %ymm4, %ymm6
	vmulps	%ymm3, %ymm6, %ymm6
	vsubps	%ymm6, %ymm4, %ymm6
	vmulps	%ymm3, %ymm6, %ymm6
	vsubps	%ymm6, %ymm4, %ymm6
	vmulps	%ymm3, %ymm6, %ymm8
	vmulps	%ymm3, %ymm5, %ymm10
	vmulps	%ymm3, %ymm2, %ymm11
	vsubps	%ymm1, %ymm4, %ymm2
	vmulps	%ymm3, %ymm14, %ymm12
	vsubps	%ymm13, %ymm4, %ymm1
	vmulps	%ymm3, %ymm0, %ymm5
	vsubps	%ymm9, %ymm4, %ymm0
	vmulps	%ymm3, %ymm0, %ymm0
	vsubps	%ymm0, %ymm4, %ymm0
	vmulps	%ymm3, %ymm0, %ymm0
	vsubps	%ymm0, %ymm4, %ymm0
	vmulps	%ymm3, %ymm0, %ymm0
	vsubps	%ymm0, %ymm4, %ymm0
	vsubps	%ymm5, %ymm4, %ymm5
	vsubps	%ymm12, %ymm4, %ymm9
	vmulps	%ymm3, %ymm1, %ymm1
	vmulps	%ymm3, %ymm2, %ymm2
	vsubps	%ymm2, %ymm4, %ymm2
	vmulps	%ymm3, %ymm2, %ymm2
	vsubps	%ymm2, %ymm4, %ymm2
	vmulps	%ymm3, %ymm2, %ymm12
	vsubps	%ymm1, %ymm4, %ymm2
	vsubps	%ymm11, %ymm4, %ymm11
	vmulps	%ymm3, %ymm5, %ymm1
	vmulps	%ymm3, %ymm0, %ymm5
	vsubps	%ymm10, %ymm4, %ymm0
	vsubps	%ymm8, %ymm4, %ymm6
	vmulps	%ymm3, %ymm6, %ymm6
	vsubps	%ymm6, %ymm4, %ymm6
	vmulps	%ymm3, %ymm6, %ymm6
	vsubps	%ymm6, %ymm4, %ymm6
	vmulps	%ymm3, %ymm6, %ymm6
	vsubps	%ymm6, %ymm4, %ymm13
	vmulps	%ymm3, %ymm0, %ymm0
	vsubps	%ymm5, %ymm4, %ymm10
	vsubps	%ymm1, %ymm4, %ymm8
	vmulps	%ymm3, %ymm11, %ymm11
	vmulps	%ymm3, %ymm2, %ymm2
	vsubps	%ymm12, %ymm4, %ymm5
	vmulps	%ymm3, %ymm9, %ymm1
	vsubps	%ymm1, %ymm4, %ymm1
	vmulps	%ymm3, %ymm1, %ymm1
	vsubps	%ymm1, %ymm4, %ymm1
	vmulps	%ymm3, %ymm1, %ymm1
	vsubps	%ymm1, %ymm4, %ymm14
	vmulps	%ymm3, %ymm10, %ymm1
	vmulps	%ymm3, %ymm5, %ymm5
	vsubps	%ymm5, %ymm4, %ymm5
	vmulps	%ymm3, %ymm5, %ymm5
	vsubps	%ymm5, %ymm4, %ymm10
	vsubps	%ymm0, %ymm4, %ymm12
	vmulps	%ymm3, %ymm13, %ymm0
	vsubps	%ymm2, %ymm4, %ymm5
	vsubps	%ymm1, %ymm4, %ymm1
	vmulps	%ymm3, %ymm1, %ymm1
	vsubps	%ymm1, %ymm4, %ymm1
	vmulps	%ymm3, %ymm1, %ymm9
	vsubps	%ymm11, %ymm4, %ymm2
	vmulps	%ymm3, %ymm8, %ymm13
	vmulps	%ymm3, %ymm14, %ymm1
	vmulps	%ymm3, %ymm5, %ymm5
	vsubps	%ymm5, %ymm4, %ymm5
	vmulps	%ymm3, %ymm5, %ymm5
	vsubps	%ymm5, %ymm4, %ymm5
	vmulps	%ymm3, %ymm5, %ymm5
	vsubps	%ymm5, %ymm4, %ymm14
	vsubps	%ymm0, %ymm4, %ymm5
	vsubps	%ymm1, %ymm4, %ymm0
	vmulps	%ymm3, %ymm0, %ymm0
	vsubps	%ymm0, %ymm4, %ymm8
	vmulps	%ymm3, %ymm12, %ymm11
	vmulps	%ymm3, %ymm10, %ymm0
	vsubps	%ymm13, %ymm4, %ymm1
	vmulps	%ymm3, %ymm2, %ymm6
	vmulps	%ymm3, %ymm5, %ymm2
	vsubps	%ymm2, %ymm4, %ymm2
	vmulps	%ymm3, %ymm2, %ymm5
	vmulps	%ymm3, %ymm14, %ymm2
	vsubps	%ymm9, %ymm4, %ymm7
	vmulps	%ymm3, %ymm7, %ymm7
	vsubps	%ymm7, %ymm4, %ymm7
	vsubps	%ymm6, %ymm4, %ymm6
	vmulps	%ymm3, %ymm6, %ymm9
	vmulps	%ymm3, %ymm7, %ymm12
	vmulps	%ymm3, %ymm1, %ymm10
	vsubps	%ymm2, %ymm4, %ymm2
	vsubps	%ymm5, %ymm4, %ymm1
	vsubps	%ymm0, %ymm4, %ymm0
	vsubps	%ymm11, %ymm4, %ymm5
	vmulps	%ymm3, %ymm8, %ymm6
	vsubps	%ymm6, %ymm4, %ymm6
	vmulps	%ymm3, %ymm6, %ymm6
	vsubps	%ymm6, %ymm4, %ymm6
	vmulps	%ymm3, %ymm6, %ymm6
	vsubps	%ymm6, %ymm4, %ymm6
	vmulps	%ymm3, %ymm6, %ymm8
	vmulps	%ymm3, %ymm5, %ymm11
	vmulps	%ymm3, %ymm0, %ymm0
	vsubps	%ymm10, %ymm4, %ymm10
	vmulps	%ymm3, %ymm1, %ymm5
	vmulps	%ymm3, %ymm2, %ymm6
	vsubps	%ymm12, %ymm4, %ymm1
	vsubps	%ymm9, %ymm4, %ymm2
	vmulps	%ymm3, %ymm2, %ymm2
	vsubps	%ymm2, %ymm4, %ymm2
	vmulps	%ymm3, %ymm2, %ymm2
	vsubps	%ymm2, %ymm4, %ymm2
	vmulps	%ymm3, %ymm1, %ymm1
	vsubps	%ymm6, %ymm4, %ymm6
	vsubps	%ymm5, %ymm4, %ymm5
	vsubps	%ymm0, %ymm4, %ymm0
	vmulps	%ymm3, %ymm0, %ymm0
	vsubps	%ymm0, %ymm4, %ymm0
	vmulps	%ymm3, %ymm0, %ymm9
	vsubps	%ymm11, %ymm4, %ymm0
	vmulps	%ymm3, %ymm5, %ymm5
	vsubps	%ymm5, %ymm4, %ymm11
	vmulps	%ymm3, %ymm6, %ymm13
	vsubps	%ymm1, %ymm4, %ymm1
	vsubps	%ymm8, %ymm4, %ymm5
	vmulps	%ymm3, %ymm2, %ymm2
	vmulps	%ymm3, %ymm10, %ymm6
	vsubps	%ymm6, %ymm4, %ymm6
	vmulps	%ymm3, %ymm6, %ymm6
	vsubps	%ymm6, %ymm4, %ymm6
	vmulps	%ymm3, %ymm6, %ymm6
	vsubps	%ymm6, %ymm4, %ymm6
	vmulps	%ymm3, %ymm6, %ymm12
	vsubps	%ymm2, %ymm4, %ymm2
	vmulps	%ymm3, %ymm5, %ymm15
	vmulps	%ymm3, %ymm1, %ymm1
	vmulps	%ymm3, %ymm0, %ymm8
	vsubps	%ymm13, %ymm4, %ymm0
	vmulps	%ymm3, %ymm0, %ymm0
	vmulps	%ymm3, %ymm11, %ymm5
	vsubps	%ymm5, %ymm4, %ymm5
	vsubps	%ymm9, %ymm4, %ymm6
	vmulps	%ymm3, %ymm6, %ymm6
	vsubps	%ymm6, %ymm4, %ymm6
	vmulps	%ymm3, %ymm6, %ymm10
	vmulps	%ymm3, %ymm5, %ymm11
	vsubps	%ymm0, %ymm4, %ymm0
	vsubps	%ymm1, %ymm4, %ymm14
	vsubps	%ymm15, %ymm4, %ymm1
	vmulps	%ymm3, %ymm2, %ymm2
	vsubps	%ymm12, %ymm4, %ymm5
	vmulps	%ymm3, %ymm5, %ymm5
	vsubps	%ymm5, %ymm4, %ymm5
	vmulps	%ymm3, %ymm5, %ymm5
	vsubps	%ymm5, %ymm4, %ymm5
	vmulps	%ymm3, %ymm5, %ymm5
	vsubps	%ymm5, %ymm4, %ymm5
	vsubps	%ymm2, %ymm4, %ymm2
	vmulps	%ymm3, %ymm2, %ymm9
	vmulps	%ymm3, %ymm5, %ymm13
	vmulps	%ymm3, %ymm1, %ymm2
	vmulps	%ymm3, %ymm14, %ymm14
	vmulps	%ymm3, %ymm0, %ymm1
	vsubps	%ymm11, %ymm4, %ymm0
	vsubps	%ymm10, %ymm4, %ymm5
	vsubps	%ymm8, %ymm4, %ymm6
	vmulps	%ymm3, %ymm6, %ymm6
	vsubps	%ymm6, %ymm4, %ymm6
	vmulps	%ymm3, %ymm6, %ymm6
	vsubps	%ymm6, %ymm4, %ymm6
	vmulps	%ymm3, %ymm6, %ymm6
	vsubps	%ymm6, %ymm4, %ymm11
	vmulps	%ymm3, %ymm5, %ymm12
	vmulps	%ymm3, %ymm0, %ymm0
	vsubps	%ymm1, %ymm4, %ymm10
	vsubps	%ymm14, %ymm4, %ymm1
	vsubps	%ymm2, %ymm4, %ymm2
	vsubps	%ymm13, %ymm4, %ymm5
	vsubps	%ymm9, %ymm4, %ymm6
	vmulps	%ymm3, %ymm6, %ymm6
	vsubps	%ymm6, %ymm4, %ymm6
	vmulps	%ymm3, %ymm6, %ymm6
	vsubps	%ymm6, %ymm4, %ymm13
	vmulps	%ymm3, %ymm5, %ymm5
	vmulps	%ymm3, %ymm2, %ymm2
	vsubps	%ymm2, %ymm4, %ymm2
	vmulps	%ymm3, %ymm1, %ymm6
	vsubps	%ymm5, %ymm4, %ymm1
	vmulps	%ymm3, %ymm1, %ymm8
	vmulps	%ymm3, %ymm10, %ymm9
	vsubps	%ymm0, %ymm4, %ymm10
	vsubps	%ymm12, %ymm4, %ymm0
	vmulps	%ymm3, %ymm11, %ymm1
	vmulps	%ymm3, %ymm13, %ymm5
	vsubps	%ymm6, %ymm4, %ymm6
	vmulps	%ymm3, %ymm6, %ymm6
	vsubps	%ymm6, %ymm4, %ymm6
	vmulps	%ymm3, %ymm6, %ymm6
	vsubps	%ymm6, %ymm4, %ymm6
	vmulps	%ymm3, %ymm6, %ymm12
	vmulps	%ymm3, %ymm2, %ymm2
	vsubps	%ymm5, %ymm4, %ymm5
	vmulps	%ymm3, %ymm5, %ymm5
	vsubps	%ymm5, %ymm4, %ymm5
	vsubps	%ymm1, %ymm4, %ymm1
	vmulps	%ymm3, %ymm1, %ymm1
	vmulps	%ymm3, %ymm0, %ymm0
	vmulps	%ymm3, %ymm5, %ymm6
	vsubps	%ymm2, %ymm4, %ymm2
	vmulps	%ymm3, %ymm2, %ymm2
	vsubps	%ymm2, %ymm4, %ymm11
	vsubps	%ymm12, %ymm4, %ymm12
	vmulps	%ymm3, %ymm10, %ymm2
	vsubps	%ymm9, %ymm4, %ymm9
	vsubps	%ymm8, %ymm4, %ymm5
	vsubps	%ymm6, %ymm4, %ymm6
	vsubps	%ymm0, %ymm4, %ymm0
	vmulps	%ymm3, %ymm0, %ymm0
	vsubps	%ymm1, %ymm4, %ymm14
	vmulps	%ymm3, %ymm6, %ymm1
	vsubps	%ymm1, %ymm4, %ymm1
	vmulps	%ymm3, %ymm1, %ymm1
	vmulps	%ymm3, %ymm5, %ymm5
	vsubps	%ymm5, %ymm4, %ymm5
	vmulps	%ymm3, %ymm5, %ymm5
	vmulps	%ymm3, %ymm9, %ymm6
	vsubps	%ymm6, %ymm4, %ymm8
	vsubps	%ymm5, %ymm4, %ymm9
	vsubps	%ymm2, %ymm4, %ymm10
	vsubps	%ymm1, %ymm4, %ymm13
	vmulps	%ymm3, %ymm12, %ymm1
	vmulps	%ymm3, %ymm11, %ymm11
	vmulps	%ymm3, %ymm14, %ymm2
	vsubps	%ymm0, %ymm4, %ymm0
	vmulps	%ymm3, %ymm0, %ymm0
	vsubps	%ymm0, %ymm4, %ymm0
	vmulps	%ymm3, %ymm0, %ymm0
	vsubps	%ymm0, %ymm4, %ymm0
	vmulps	%ymm3, %ymm0, %ymm0
	vsubps	%ymm0, %ymm4, %ymm0
	vsubps	%ymm2, %ymm4, %ymm2
	vmulps	%ymm3, %ymm0, %ymm0
	vsubps	%ymm11, %ymm4, %ymm12
	vsubps	%ymm1, %ymm4, %ymm1
	vmulps	%ymm3, %ymm13, %ymm5
	vmulps	%ymm3, %ymm10, %ymm6
	vmulps	%ymm3, %ymm9, %ymm9
	vmulps	%ymm3, %ymm8, %ymm7
	vsubps	%ymm7, %ymm4, %ymm7
	vmulps	%ymm3, %ymm7, %ymm7
	vsubps	%ymm7, %ymm4, %ymm7
	vmulps	%ymm3, %ymm7, %ymm11
	vsubps	%ymm9, %ymm4, %ymm13
	vsubps	%ymm6, %ymm4, %ymm6
	vsubps	%ymm5, %ymm4, %ymm8
	vmulps	%ymm3, %ymm1, %ymm10
	vmulps	%ymm3, %ymm12, %ymm12
	vmulps	%ymm3, %ymm2, %ymm9
	vsubps	%ymm0, %ymm4, %ymm0
	vmulps	%ymm3, %ymm0, %ymm0
	vsubps	%ymm0, %ymm4, %ymm0
	vmulps	%ymm3, %ymm0, %ymm0
	vmulps	%ymm3, %ymm6, %ymm1
	vsubps	%ymm1, %ymm4, %ymm1
	vmulps	%ymm3, %ymm1, %ymm2
	vsubps	%ymm0, %ymm4, %ymm1
	vmulps	%ymm3, %ymm13, %ymm0
	vsubps	%ymm11, %ymm4, %ymm5
	vmulps	%ymm3, %ymm5, %ymm5
	vsubps	%ymm5, %ymm4, %ymm5
	vsubps	%ymm12, %ymm4, %ymm6
	vmulps	%ymm3, %ymm6, %ymm6
	vsubps	%ymm6, %ymm4, %ymm14
	vmulps	%ymm3, %ymm5, %ymm15
	vsubps	%ymm0, %ymm4, %ymm0
	vmulps	%ymm3, %ymm1, %ymm11
	vsubps	%ymm10, %ymm4, %ymm1
	vmulps	%ymm3, %ymm8, %ymm5
	vsubps	%ymm2, %ymm4, %ymm6
	vsubps	%ymm9, %ymm4, %ymm2
	vmulps	%ymm3, %ymm2, %ymm2
	vsubps	%ymm2, %ymm4, %ymm2
	vmulps	%ymm3, %ymm2, %ymm2
	vsubps	%ymm2, %ymm4, %ymm2
	vmulps	%ymm3, %ymm2, %ymm2
	vmulps	%ymm3, %ymm6, %ymm6
	vsubps	%ymm5, %ymm4, %ymm5
	vmulps	%ymm3, %ymm5, %ymm13
	vmulps	%ymm3, %ymm1, %ymm9
	vsubps	%ymm11, %ymm4, %ymm11
	vmulps	%ymm3, %ymm0, %ymm12
	vsubps	%ymm15, %ymm4, %ymm0
	vmulps	%ymm3, %ymm14, %ymm1
	vsubps	%ymm6, %ymm4, %ymm5
	vmulps	%ymm3, %ymm5, %ymm5
	vsubps	%ymm5, %ymm4, %ymm5
	vmulps	%ymm3, %ymm5, %ymm5
	vsubps	%ymm5, %ymm4, %ymm5
	vsubps	%ymm2, %ymm4, %ymm2
	vmulps	%ymm3, %ymm2, %ymm8
	vsubps	%ymm1, %ymm4, %ymm10
	vmulps	%ymm3, %ymm5, %ymm1
	vsubps	%ymm1, %ymm4, %ymm1
	vmulps	%ymm3, %ymm1, %ymm1
	vsubps	%ymm1, %ymm4, %ymm1
	vmulps	%ymm3, %ymm1, %ymm1
	vmulps	%ymm3, %ymm0, %ymm15
	vsubps	%ymm1, %ymm4, %ymm1
	vsubps	%ymm13, %ymm4, %ymm0
	vmulps	%ymm3, %ymm0, %ymm0
	vsubps	%ymm0, %ymm4, %ymm0
	vmulps	%ymm3, %ymm0, %ymm0
	vsubps	%ymm12, %ymm4, %ymm2
	vmulps	%ymm3, %ymm1, %ymm1
	vmulps	%ymm3, %ymm11, %ymm5
	vsubps	%ymm9, %ymm4, %ymm6
	vmulps	%ymm3, %ymm6, %ymm6
	vsubps	%ymm6, %ymm4, %ymm6
	vmulps	%ymm3, %ymm6, %ymm6
	vsubps	%ymm6, %ymm4, %ymm6
	vmulps	%ymm3, %ymm6, %ymm6
	vsubps	%ymm6, %ymm4, %ymm9
	vsubps	%ymm5, %ymm4, %ymm11
	vmulps	%ymm3, %ymm2, %ymm14
	vsubps	%ymm1, %ymm4, %ymm12
	vsubps	%ymm0, %ymm4, %ymm13
	vsubps	%ymm15, %ymm4, %ymm0
	vmulps	%ymm3, %ymm10, %ymm1
	vsubps	%ymm8, %ymm4, %ymm2
	vmulps	%ymm3, %ymm2, %ymm2
	vsubps	%ymm2, %ymm4, %ymm2
	vmulps	%ymm3, %ymm2, %ymm2
	vsubps	%ymm2, %ymm4, %ymm2
	vmulps	%ymm3, %ymm2, %ymm2
	vsubps	%ymm2, %ymm4, %ymm2
	vsubps	%ymm1, %ymm4, %ymm8
	vmulps	%ymm3, %ymm2, %ymm1
	vsubps	%ymm1, %ymm4, %ymm1
	vmulps	%ymm3, %ymm1, %ymm1
	vsubps	%ymm1, %ymm4, %ymm1
	vmulps	%ymm3, %ymm1, %ymm1
	vmulps	%ymm3, %ymm0, %ymm10
	vsubps	%ymm1, %ymm4, %ymm1
	vsubps	%ymm14, %ymm4, %ymm0
	vmulps	%ymm3, %ymm0, %ymm0
	vmulps	%ymm3, %ymm1, %ymm14
	vmulps	%ymm3, %ymm13, %ymm1
	vmulps	%ymm3, %ymm12, %ymm5
	vmulps	%ymm3, %ymm11, %ymm2
	vmulps	%ymm3, %ymm9, %ymm6
	vsubps	%ymm6, %ymm4, %ymm6
	vmulps	%ymm3, %ymm6, %ymm6
	vsubps	%ymm6, %ymm4, %ymm6
	vmulps	%ymm3, %ymm6, %ymm6
	vsubps	%ymm6, %ymm4, %ymm6
	vmulps	%ymm3, %ymm6, %ymm9
	vsubps	%ymm2, %ymm4, %ymm2
	vsubps	%ymm5, %ymm4, %ymm11
	vsubps	%ymm1, %ymm4, %ymm12
	vsubps	%ymm14, %ymm4, %ymm5
	vsubps	%ymm0, %ymm4, %ymm1
	vsubps	%ymm10, %ymm4, %ymm0
	vmulps	%ymm3, %ymm0, %ymm6
	vmulps	%ymm3, %ymm8, %ymm0
	vsubps	%ymm0, %ymm4, %ymm0
	vmulps	%ymm3, %ymm0, %ymm0
	vsubps	%ymm0, %ymm4, %ymm0
	vsubps	%ymm6, %ymm4, %ymm10
	vmulps	%ymm3, %ymm1, %ymm1
	vmulps	%ymm3, %ymm5, %ymm13
	vmulps	%ymm3, %ymm12, %ymm5
	vmulps	%ymm3, %ymm11, %ymm6
	vmulps	%ymm3, %ymm2, %ymm2
	vsubps	%ymm2, %ymm4, %ymm2
	vmulps	%ymm3, %ymm2, %ymm2
	vsubps	%ymm2, %ymm4, %ymm2
	vmulps	%ymm3, %ymm2, %ymm8
	vsubps	%ymm6, %ymm4, %ymm11
	vsubps	%ymm9, %ymm4, %ymm2
	vsubps	%ymm5, %ymm4, %ymm9
	vsubps	%ymm13, %ymm4, %ymm13
	vsubps	%ymm1, %ymm4, %ymm1
	vmulps	%ymm3, %ymm10, %ymm5
	vmulps	%ymm3, %ymm0, %ymm0
	vsubps	%ymm0, %ymm4, %ymm0
	vmulps	%ymm3, %ymm0, %ymm0
	vsubps	%ymm0, %ymm4, %ymm0
	vmulps	%ymm3, %ymm0, %ymm0
	vsubps	%ymm0, %ymm4, %ymm0
	vmulps	%ymm3, %ymm0, %ymm10
	vsubps	%ymm5, %ymm4, %ymm12
	vmulps	%ymm3, %ymm1, %ymm0
	vmulps	%ymm3, %ymm13, %ymm13
	vmulps	%ymm3, %ymm9, %ymm1
	vmulps	%ymm3, %ymm2, %ymm2
	vmulps	%ymm3, %ymm11, %ymm5
	vsubps	%ymm8, %ymm4, %ymm6
	vmulps	%ymm3, %ymm6, %ymm6
	vsubps	%ymm6, %ymm4, %ymm6
	vmulps	%ymm3, %ymm6, %ymm6
	vsubps	%ymm6, %ymm4, %ymm6
	vmulps	%ymm3, %ymm6, %ymm6
	vsubps	%ymm6, %ymm4, %ymm9
	vsubps	%ymm5, %ymm4, %ymm8
	vsubps	%ymm2, %ymm4, %ymm11
	vsubps	%ymm1, %ymm4, %ymm2
	vsubps	%ymm13, %ymm4, %ymm13
	vsubps	%ymm0, %ymm4, %ymm0
	vmulps	%ymm3, %ymm12, %ymm1
	vsubps	%ymm10, %ymm4, %ymm5
	vmulps	%ymm3, %ymm5, %ymm5
	vsubps	%ymm5, %ymm4, %ymm5
	vmulps	%ymm3, %ymm5, %ymm5
	vsubps	%ymm5, %ymm4, %ymm5
	vmulps	%ymm3, %ymm5, %ymm5
	vsubps	%ymm5, %ymm4, %ymm6
	vsubps	%ymm1, %ymm4, %ymm5
	vmulps	%ymm3, %ymm6, %ymm1
	vmulps	%ymm3, %ymm0, %ymm0
	vsubps	%ymm0, %ymm4, %ymm10
	vsubps	%ymm1, %ymm4, %ymm12
	vmulps	%ymm3, %ymm13, %ymm0
	vmulps	%ymm3, %ymm2, %ymm1
	vmulps	%ymm3, %ymm11, %ymm2
	vmulps	%ymm3, %ymm8, %ymm6
	vmulps	%ymm3, %ymm5, %ymm5
	vsubps	%ymm5, %ymm4, %ymm8
	vmulps	%ymm3, %ymm9, %ymm5
	vsubps	%ymm5, %ymm4, %ymm5
	vsubps	%ymm6, %ymm4, %ymm6
	vmulps	%ymm3, %ymm6, %ymm6
	vsubps	%ymm6, %ymm4, %ymm6
	vmulps	%ymm3, %ymm6, %ymm6
	vsubps	%ymm6, %ymm4, %ymm14
	vsubps	%ymm2, %ymm4, %ymm11
	vsubps	%ymm1, %ymm4, %ymm9
	vmulps	%ymm3, %ymm5, %ymm1
	vsubps	%ymm1, %ymm4, %ymm2
	vsubps	%ymm0, %ymm4, %ymm0
	vmulps	%ymm3, %ymm12, %ymm1
	vmulps	%ymm3, %ymm10, %ymm5
	vsubps	%ymm5, %ymm4, %ymm5
	vmulps	%ymm3, %ymm5, %ymm5
	vsubps	%ymm5, %ymm4, %ymm5
	vmulps	%ymm3, %ymm5, %ymm5
	vsubps	%ymm5, %ymm4, %ymm12
	vsubps	%ymm1, %ymm4, %ymm13
	vmulps	%ymm3, %ymm14, %ymm14
	vmulps	%ymm3, %ymm0, %ymm1
	vmulps	%ymm3, %ymm9, %ymm0
	vsubps	%ymm0, %ymm4, %ymm0
	vmulps	%ymm3, %ymm0, %ymm0
	vsubps	%ymm0, %ymm4, %ymm9
	vmulps	%ymm3, %ymm2, %ymm10
	vmulps	%ymm3, %ymm11, %ymm0
	vmulps	%ymm3, %ymm8, %ymm5
	vsubps	%ymm1, %ymm4, %ymm1
	vmulps	%ymm3, %ymm1, %ymm1
	vsubps	%ymm1, %ymm4, %ymm1
	vmulps	%ymm3, %ymm1, %ymm1
	vsubps	%ymm1, %ymm4, %ymm2
	vsubps	%ymm14, %ymm4, %ymm1
	vmulps	%ymm3, %ymm13, %ymm6
	vmulps	%ymm3, %ymm12, %ymm7
	vsubps	%ymm7, %ymm4, %ymm7
	vsubps	%ymm5, %ymm4, %ymm5
	vmulps	%ymm3, %ymm5, %ymm5
	vsubps	%ymm5, %ymm4, %ymm5
	vmulps	%ymm3, %ymm5, %ymm11
	vmulps	%ymm3, %ymm7, %ymm12
	vsubps	%ymm6, %ymm4, %ymm13
	vsubps	%ymm0, %ymm4, %ymm8
	vmulps	%ymm3, %ymm1, %ymm0
	vsubps	%ymm0, %ymm4, %ymm0
	vmulps	%ymm3, %ymm0, %ymm15
	vsubps	%ymm10, %ymm4, %ymm1
	vmulps	%ymm3, %ymm2, %ymm0
	vmulps	%ymm3, %ymm9, %ymm2
	vsubps	%ymm2, %ymm4, %ymm2
	vmulps	%ymm3, %ymm2, %ymm2
	vsubps	%ymm2, %ymm4, %ymm2
	vmulps	%ymm3, %ymm2, %ymm2
	vsubps	%ymm2, %ymm4, %ymm9
	vsubps	%ymm0, %ymm4, %ymm0
	vmulps	%ymm3, %ymm1, %ymm14
	vmulps	%ymm3, %ymm13, %ymm1
	vsubps	%ymm15, %ymm4, %ymm5
	vsubps	%ymm12, %ymm4, %ymm2
	vsubps	%ymm11, %ymm4, %ymm6
	vmulps	%ymm3, %ymm6, %ymm6
	vsubps	%ymm6, %ymm4, %ymm6
	vmulps	%ymm3, %ymm6, %ymm6
	vsubps	%ymm6, %ymm4, %ymm6
	vmulps	%ymm3, %ymm6, %ymm6
	vsubps	%ymm6, %ymm4, %ymm10
	vmulps	%ymm3, %ymm2, %ymm2
	vmulps	%ymm3, %ymm5, %ymm12
	vsubps	%ymm1, %ymm4, %ymm1
	vsubps	%ymm14, %ymm4, %ymm11
	vmulps	%ymm3, %ymm0, %ymm5
	vmulps	%ymm3, %ymm9, %ymm6
	vmulps	%ymm3, %ymm8, %ymm0
	vsubps	%ymm0, %ymm4, %ymm0
	vmulps	%ymm3, %ymm0, %ymm0
	vsubps	%ymm0, %ymm4, %ymm0
	vmulps	%ymm3, %ymm0, %ymm0
	vsubps	%ymm0, %ymm4, %ymm0
	vsubps	%ymm6, %ymm4, %ymm8
	vsubps	%ymm5, %ymm4, %ymm9
	vmulps	%ymm3, %ymm11, %ymm11
	vmulps	%ymm3, %ymm1, %ymm13
	vsubps	%ymm12, %ymm4, %ymm1
	vsubps	%ymm2, %ymm4, %ymm2
	vmulps	%ymm3, %ymm10, %ymm5
	vsubps	%ymm5, %ymm4, %ymm5
	vmulps	%ymm3, %ymm5, %ymm5
	vsubps	%ymm5, %ymm4, %ymm5
	vmulps	%ymm3, %ymm5, %ymm5
	vsubps	%ymm5, %ymm4, %ymm5
	vmulps	%ymm3, %ymm5, %ymm6
	vmulps	%ymm3, %ymm2, %ymm5
	vsubps	%ymm6, %ymm4, %ymm2
	vmulps	%ymm3, %ymm1, %ymm1
	vmulps	%ymm3, %ymm0, %ymm0
	vsubps	%ymm0, %ymm4, %ymm0
	vmulps	%ymm3, %ymm0, %ymm0
	vsubps	%ymm0, %ymm4, %ymm10
	vsubps	%ymm1, %ymm4, %ymm12
	vsubps	%ymm13, %ymm4, %ymm0
	vsubps	%ymm5, %ymm4, %ymm1
	vmulps	%ymm3, %ymm2, %ymm2
	vsubps	%ymm11, %ymm4, %ymm6
	vmulps	%ymm3, %ymm9, %ymm9
	vmulps	%ymm3, %ymm8, %ymm5
	vsubps	%ymm5, %ymm4, %ymm5
	vmulps	%ymm3, %ymm5, %ymm5
	vsubps	%ymm5, %ymm4, %ymm5
	vmulps	%ymm3, %ymm5, %ymm5
	vsubps	%ymm5, %ymm4, %ymm5
	vmulps	%ymm3, %ymm5, %ymm5
	vsubps	%ymm9, %ymm4, %ymm8
	vmulps	%ymm3, %ymm6, %ymm11
	vmulps	%ymm3, %ymm1, %ymm6
	vmulps	%ymm3, %ymm0, %ymm9
	vsubps	%ymm2, %ymm4, %ymm0
	vmulps	%ymm3, %ymm0, %ymm0
	vsubps	%ymm0, %ymm4, %ymm0
	vmulps	%ymm3, %ymm12, %ymm12
	vmulps	%ymm3, %ymm10, %ymm1
	vsubps	%ymm5, %ymm4, %ymm5
	vsubps	%ymm6, %ymm4, %ymm2
	vmulps	%ymm3, %ymm2, %ymm2
	vsubps	%ymm2, %ymm4, %ymm2
	vmulps	%ymm3, %ymm2, %ymm2
	vsubps	%ymm11, %ymm4, %ymm10
	vmulps	%ymm3, %ymm5, %ymm5
	vsubps	%ymm5, %ymm4, %ymm5
	vmulps	%ymm3, %ymm5, %ymm5
	vmulps	%ymm3, %ymm0, %ymm11
	vmulps	%ymm3, %ymm8, %ymm0
	vsubps	%ymm0, %ymm4, %ymm0
	vsubps	%ymm1, %ymm4, %ymm6
	vmulps	%ymm3, %ymm10, %ymm1
	vsubps	%ymm1, %ymm4, %ymm8
	vsubps	%ymm11, %ymm4, %ymm10
	vsubps	%ymm5, %ymm4, %ymm11
	vsubps	%ymm12, %ymm4, %ymm12
	vsubps	%ymm9, %ymm4, %ymm1
	vsubps	%ymm2, %ymm4, %ymm5
	vmulps	%ymm3, %ymm6, %ymm2
	vsubps	%ymm2, %ymm4, %ymm2
	vmulps	%ymm3, %ymm2, %ymm2
	vsubps	%ymm2, %ymm4, %ymm2
	vmulps	%ymm3, %ymm2, %ymm2
	vsubps	%ymm2, %ymm4, %ymm2
	vmulps	%ymm3, %ymm0, %ymm0
	vmulps	%ymm3, %ymm5, %ymm5
	vsubps	%ymm5, %ymm4, %ymm5
	vmulps	%ymm3, %ymm5, %ymm5
	vmulps	%ymm3, %ymm1, %ymm1
	vsubps	%ymm1, %ymm4, %ymm1
	vmulps	%ymm3, %ymm1, %ymm9
	vsubps	%ymm5, %ymm4, %ymm13
	vsubps	%ymm0, %ymm4, %ymm0
	vmulps	%ymm3, %ymm2, %ymm14
	vmulps	%ymm3, %ymm12, %ymm1
	vmulps	%ymm3, %ymm11, %ymm2
	vmulps	%ymm3, %ymm10, %ymm5
	vmulps	%ymm3, %ymm8, %ymm6
	vsubps	%ymm6, %ymm4, %ymm6
	vmulps	%ymm3, %ymm6, %ymm6
	vsubps	%ymm6, %ymm4, %ymm6
	vmulps	%ymm3, %ymm6, %ymm6
	vsubps	%ymm6, %ymm4, %ymm6
	vmulps	%ymm3, %ymm6, %ymm8
	vsubps	%ymm5, %ymm4, %ymm10
	vsubps	%ymm2, %ymm4, %ymm12
	vsubps	%ymm1, %ymm4, %ymm2
	vsubps	%ymm14, %ymm4, %ymm1
	vmulps	%ymm3, %ymm0, %ymm0
	vmulps	%ymm3, %ymm13, %ymm5
	vsubps	%ymm5, %ymm4, %ymm5
	vsubps	%ymm9, %ymm4, %ymm9
	vmulps	%ymm3, %ymm5, %ymm5
	vsubps	%ymm5, %ymm4, %ymm5
	vmulps	%ymm3, %ymm5, %ymm5
	vsubps	%ymm5, %ymm4, %ymm6
	vsubps	%ymm0, %ymm4, %ymm0
	vmulps	%ymm3, %ymm0, %ymm0
	vmulps	%ymm3, %ymm1, %ymm5
	vmulps	%ymm3, %ymm6, %ymm1
	vmulps	%ymm3, %ymm2, %ymm2
	vsubps	%ymm2, %ymm4, %ymm11
	vsubps	%ymm1, %ymm4, %ymm2
	vmulps	%ymm3, %ymm12, %ymm12
	vmulps	%ymm3, %ymm10, %ymm13
	vsubps	%ymm8, %ymm4, %ymm1
	vsubps	%ymm5, %ymm4, %ymm5
	vsubps	%ymm0, %ymm4, %ymm0
	vmulps	%ymm3, %ymm0, %ymm0
	vmulps	%ymm3, %ymm9, %ymm6
	vsubps	%ymm6, %ymm4, %ymm6
	vmulps	%ymm3, %ymm6, %ymm6
	vsubps	%ymm6, %ymm4, %ymm9
	vsubps	%ymm0, %ymm4, %ymm0
	vmulps	%ymm3, %ymm5, %ymm10
	vmulps	%ymm3, %ymm1, %ymm1
	vsubps	%ymm13, %ymm4, %ymm13
	vsubps	%ymm12, %ymm4, %ymm5
	vmulps	%ymm3, %ymm2, %ymm2
	vmulps	%ymm3, %ymm11, %ymm6
	vsubps	%ymm6, %ymm4, %ymm6
	vmulps	%ymm3, %ymm6, %ymm6
	vsubps	%ymm6, %ymm4, %ymm6
	vmulps	%ymm3, %ymm6, %ymm6
	vsubps	%ymm6, %ymm4, %ymm8
	vsubps	%ymm2, %ymm4, %ymm12
	vmulps	%ymm3, %ymm5, %ymm2
	vmulps	%ymm3, %ymm13, %ymm13
	vsubps	%ymm1, %ymm4, %ymm1
	vsubps	%ymm10, %ymm4, %ymm5
	vmulps	%ymm3, %ymm0, %ymm0
	vmulps	%ymm3, %ymm9, %ymm6
	vsubps	%ymm6, %ymm4, %ymm6
	vmulps	%ymm3, %ymm6, %ymm6
	vsubps	%ymm6, %ymm4, %ymm6
	vmulps	%ymm3, %ymm6, %ymm6
	vsubps	%ymm6, %ymm4, %ymm6
	vmulps	%ymm3, %ymm6, %ymm10
	vsubps	%ymm0, %ymm4, %ymm11
	vmulps	%ymm3, %ymm5, %ymm0
	vmulps	%ymm3, %ymm1, %ymm14
	vsubps	%ymm13, %ymm4, %ymm1
	vsubps	%ymm2, %ymm4, %ymm2
	vmulps	%ymm3, %ymm12, %ymm5
	vmulps	%ymm3, %ymm8, %ymm6
	vsubps	%ymm6, %ymm4, %ymm6
	vmulps	%ymm3, %ymm6, %ymm6
	vsubps	%ymm6, %ymm4, %ymm6
	vmulps	%ymm3, %ymm6, %ymm6
	vsubps	%ymm6, %ymm4, %ymm6
	vmulps	%ymm3, %ymm6, %ymm12
	vsubps	%ymm5, %ymm4, %ymm9
	vmulps	%ymm3, %ymm2, %ymm8
	vmulps	%ymm3, %ymm1, %ymm13
	vsubps	%ymm14, %ymm4, %ymm1
	vsubps	%ymm0, %ymm4, %ymm0
	vmulps	%ymm3, %ymm11, %ymm2
	vsubps	%ymm10, %ymm4, %ymm5
	vmulps	%ymm3, %ymm5, %ymm5
	vsubps	%ymm5, %ymm4, %ymm5
	vmulps	%ymm3, %ymm5, %ymm5
	vsubps	%ymm5, %ymm4, %ymm5
	vmulps	%ymm3, %ymm5, %ymm5
	vsubps	%ymm5, %ymm4, %ymm5
	vsubps	%ymm2, %ymm4, %ymm10
	vmulps	%ymm3, %ymm5, %ymm2
	vmulps	%ymm3, %ymm0, %ymm11
	vmulps	%ymm3, %ymm1, %ymm14
	vsubps	%ymm2, %ymm4, %ymm0
	vmulps	%ymm3, %ymm0, %ymm1
	vsubps	%ymm12, %ymm4, %ymm2
	vsubps	%ymm13, %ymm4, %ymm0
	vmulps	%ymm3, %ymm0, %ymm0
	vsubps	%ymm0, %ymm4, %ymm0
	vmulps	%ymm3, %ymm0, %ymm0
	vsubps	%ymm8, %ymm4, %ymm8
	vmulps	%ymm3, %ymm2, %ymm2
	vsubps	%ymm2, %ymm4, %ymm2
	vmulps	%ymm3, %ymm2, %ymm2
	vsubps	%ymm1, %ymm4, %ymm1
	vmulps	%ymm3, %ymm1, %ymm1
	vmulps	%ymm3, %ymm9, %ymm5
	vsubps	%ymm5, %ymm4, %ymm5
	vmulps	%ymm3, %ymm5, %ymm5
	vsubps	%ymm5, %ymm4, %ymm12
	vsubps	%ymm1, %ymm4, %ymm13
	vsubps	%ymm2, %ymm4, %ymm15
	vsubps	%ymm0, %ymm4, %ymm0
	vsubps	%ymm14, %ymm4, %ymm1
	vmulps	%ymm3, %ymm10, %ymm2
	vsubps	%ymm11, %ymm4, %ymm5
	vmulps	%ymm3, %ymm5, %ymm5
	vsubps	%ymm5, %ymm4, %ymm5
	vmulps	%ymm3, %ymm5, %ymm5
	vsubps	%ymm5, %ymm4, %ymm5
	vmulps	%ymm3, %ymm5, %ymm5
	vsubps	%ymm5, %ymm4, %ymm5
	vsubps	%ymm2, %ymm4, %ymm9
	vmulps	%ymm3, %ymm5, %ymm5
	vmulps	%ymm3, %ymm1, %ymm1
	vsubps	%ymm1, %ymm4, %ymm1
	vmulps	%ymm3, %ymm1, %ymm1
	vsubps	%ymm1, %ymm4, %ymm2
	vsubps	%ymm5, %ymm4, %ymm14
	vmulps	%ymm3, %ymm0, %ymm0
	vmulps	%ymm3, %ymm15, %ymm1
	vmulps	%ymm3, %ymm13, %ymm5
	vmulps	%ymm3, %ymm12, %ymm6
	vmulps	%ymm3, %ymm8, %ymm7
	vsubps	%ymm7, %ymm4, %ymm7
	vmulps	%ymm3, %ymm7, %ymm7
	vsubps	%ymm7, %ymm4, %ymm7
	vmulps	%ymm3, %ymm7, %ymm7
	vsubps	%ymm7, %ymm4, %ymm8
	vsubps	%ymm6, %ymm4, %ymm10
	vsubps	%ymm5, %ymm4, %ymm11
	vsubps	%ymm1, %ymm4, %ymm15
	vsubps	%ymm0, %ymm4, %ymm1
	vmulps	%ymm3, %ymm14, %ymm0
	vmulps	%ymm3, %ymm2, %ymm2
	vmulps	%ymm3, %ymm9, %ymm5
	vsubps	%ymm5, %ymm4, %ymm5
	vmulps	%ymm3, %ymm5, %ymm5
	vsubps	%ymm5, %ymm4, %ymm5
	vmulps	%ymm3, %ymm5, %ymm5
	vsubps	%ymm5, %ymm4, %ymm5
	vmulps	%ymm3, %ymm5, %ymm12
	vsubps	%ymm2, %ymm4, %ymm13
	vsubps	%ymm0, %ymm4, %ymm0
	vmulps	%ymm3, %ymm1, %ymm2
	vmulps	%ymm3, %ymm15, %ymm1
	vmulps	%ymm3, %ymm11, %ymm5
	vmulps	%ymm3, %ymm10, %ymm6
	vmulps	%ymm3, %ymm8, %ymm7
	vsubps	%ymm7, %ymm4, %ymm7
	vmulps	%ymm3, %ymm7, %ymm7
	vsubps	%ymm7, %ymm4, %ymm7
	vmulps	%ymm3, %ymm7, %ymm7
	vsubps	%ymm7, %ymm4, %ymm7
	vmulps	%ymm3, %ymm7, %ymm8
	vsubps	%ymm6, %ymm4, %ymm9
	vsubps	%ymm5, %ymm4, %ymm10
	vsubps	%ymm1, %ymm4, %ymm11
	vsubps	%ymm2, %ymm4, %ymm2
	vmulps	%ymm3, %ymm0, %ymm0
	vmulps	%ymm3, %ymm13, %ymm1
	vsubps	%ymm12, %ymm4, %ymm5
	vmulps	%ymm3, %ymm5, %ymm5
	vsubps	%ymm5, %ymm4, %ymm5
	vmulps	%ymm3, %ymm5, %ymm5
	vsubps	%ymm5, %ymm4, %ymm5
	vmulps	%ymm3, %ymm5, %ymm5
	vsubps	%ymm5, %ymm4, %ymm5
	vsubps	%ymm1, %ymm4, %ymm1
	vmulps	%ymm3, %ymm1, %ymm1
	vmulps	%ymm3, %ymm5, %ymm5
	vsubps	%ymm0, %ymm4, %ymm0
	vmulps	%ymm3, %ymm0, %ymm0
	vsubps	%ymm0, %ymm4, %ymm0
	vmulps	%ymm3, %ymm0, %ymm0
	vmulps	%ymm3, %ymm2, %ymm2
	vsubps	%ymm0, %ymm4, %ymm0
	vmulps	%ymm3, %ymm0, %ymm6
	vsubps	%ymm5, %ymm4, %ymm5
	vsubps	%ymm1, %ymm4, %ymm0
	vmulps	%ymm3, %ymm0, %ymm12
	vmulps	%ymm3, %ymm11, %ymm11
	vmulps	%ymm3, %ymm10, %ymm0
	vmulps	%ymm3, %ymm9, %ymm9
	vmulps	%ymm3, %ymm5, %ymm5
	vsubps	%ymm6, %ymm4, %ymm1
	vsubps	%ymm8, %ymm4, %ymm6
	vmulps	%ymm3, %ymm6, %ymm6
	vsubps	%ymm6, %ymm4, %ymm6
	vsubps	%ymm2, %ymm4, %ymm2
	vmulps	%ymm3, %ymm2, %ymm2
	vsubps	%ymm2, %ymm4, %ymm2
	vmulps	%ymm3, %ymm6, %ymm13
	vmulps	%ymm3, %ymm1, %ymm1
	vsubps	%ymm5, %ymm4, %ymm5
	vsubps	%ymm9, %ymm4, %ymm6
	vmulps	%ymm3, %ymm6, %ymm6
	vsubps	%ymm6, %ymm4, %ymm9
	vsubps	%ymm0, %ymm4, %ymm10
	vsubps	%ymm11, %ymm4, %ymm11
	vsubps	%ymm12, %ymm4, %ymm8
	vmulps	%ymm3, %ymm5, %ymm0
	vsubps	%ymm0, %ymm4, %ymm0
	vmulps	%ymm3, %ymm0, %ymm0
	vsubps	%ymm0, %ymm4, %ymm5
	vsubps	%ymm1, %ymm4, %ymm1
	vsubps	%ymm13, %ymm4, %ymm0
	vmulps	%ymm3, %ymm0, %ymm0
	vmulps	%ymm3, %ymm2, %ymm2
	vsubps	%ymm2, %ymm4, %ymm2
	vmulps	%ymm3, %ymm2, %ymm2
	vsubps	%ymm2, %ymm4, %ymm12
	vsubps	%ymm0, %ymm4, %ymm0
	vmulps	%ymm3, %ymm1, %ymm13
	vmulps	%ymm3, %ymm5, %ymm1
	vmulps	%ymm3, %ymm11, %ymm2
	vmulps	%ymm3, %ymm10, %ymm5
	vmulps	%ymm3, %ymm9, %ymm6
	vsubps	%ymm6, %ymm4, %ymm6
	vmulps	%ymm3, %ymm6, %ymm6
	vsubps	%ymm6, %ymm4, %ymm6
	vmulps	%ymm3, %ymm6, %ymm6
	vsubps	%ymm6, %ymm4, %ymm6
	vmulps	%ymm3, %ymm6, %ymm10
	vsubps	%ymm5, %ymm4, %ymm11
	vsubps	%ymm2, %ymm4, %ymm2
	vsubps	%ymm1, %ymm4, %ymm9
	vsubps	%ymm13, %ymm4, %ymm1
	vmulps	%ymm3, %ymm0, %ymm5
	vmulps	%ymm3, %ymm12, %ymm6
	vmulps	%ymm3, %ymm8, %ymm0
	vsubps	%ymm0, %ymm4, %ymm0
	vmulps	%ymm3, %ymm0, %ymm0
	vsubps	%ymm0, %ymm4, %ymm0
	vmulps	%ymm3, %ymm0, %ymm0
	vsubps	%ymm0, %ymm4, %ymm0
	vmulps	%ymm3, %ymm0, %ymm0
	vsubps	%ymm6, %ymm4, %ymm12
	vsubps	%ymm5, %ymm4, %ymm14
	vmulps	%ymm3, %ymm1, %ymm1
	vmulps	%ymm3, %ymm9, %ymm5
	vmulps	%ymm3, %ymm2, %ymm2
	vsubps	%ymm2, %ymm4, %ymm2
	vmulps	%ymm3, %ymm2, %ymm2
	vsubps	%ymm2, %ymm4, %ymm2
	vmulps	%ymm3, %ymm2, %ymm9
	vmulps	%ymm3, %ymm11, %ymm8
	vsubps	%ymm5, %ymm4, %ymm11
	vsubps	%ymm1, %ymm4, %ymm13
	vmulps	%ymm3, %ymm14, %ymm2
	vsubps	%ymm10, %ymm4, %ymm1
	vmulps	%ymm3, %ymm12, %ymm5
	vsubps	%ymm0, %ymm4, %ymm0
	vmulps	%ymm3, %ymm0, %ymm0
	vsubps	%ymm0, %ymm4, %ymm0
	vmulps	%ymm3, %ymm0, %ymm0
	vsubps	%ymm0, %ymm4, %ymm0
	vmulps	%ymm3, %ymm0, %ymm0
	vsubps	%ymm0, %ymm4, %ymm0
	vsubps	%ymm5, %ymm4, %ymm14
	vmulps	%ymm3, %ymm0, %ymm0
	vsubps	%ymm0, %ymm4, %ymm0
	vmulps	%ymm3, %ymm0, %ymm0
	vmulps	%ymm3, %ymm1, %ymm1
	vsubps	%ymm1, %ymm4, %ymm10
	vsubps	%ymm0, %ymm4, %ymm12
	vsubps	%ymm2, %ymm4, %ymm2
	vmulps	%ymm3, %ymm13, %ymm0
	vsubps	%ymm8, %ymm4, %ymm8
	vmulps	%ymm3, %ymm11, %ymm1
	vsubps	%ymm1, %ymm4, %ymm1
	vmulps	%ymm3, %ymm1, %ymm1
	vsubps	%ymm9, %ymm4, %ymm5
	vmulps	%ymm3, %ymm14, %ymm6
	vsubps	%ymm6, %ymm4, %ymm6
	vmulps	%ymm3, %ymm6, %ymm6
	vsubps	%ymm6, %ymm4, %ymm6
	vmulps	%ymm3, %ymm6, %ymm6
	vsubps	%ymm6, %ymm4, %ymm6
	vmulps	%ymm3, %ymm6, %ymm13
	vmulps	%ymm3, %ymm5, %ymm11
	vsubps	%ymm1, %ymm4, %ymm1
	vsubps	%ymm0, %ymm4, %ymm15
	vmulps	%ymm3, %ymm2, %ymm2
	vmulps	%ymm3, %ymm12, %ymm5
	vmulps	%ymm3, %ymm10, %ymm0
	vsubps	%ymm0, %ymm4, %ymm0
	vmulps	%ymm3, %ymm0, %ymm0
	vsubps	%ymm0, %ymm4, %ymm0
	vmulps	%ymm3, %ymm0, %ymm0
	vsubps	%ymm0, %ymm4, %ymm0
	vsubps	%ymm5, %ymm4, %ymm14
	vsubps	%ymm2, %ymm4, %ymm9
	vmulps	%ymm3, %ymm15, %ymm10
	vmulps	%ymm3, %ymm1, %ymm12
	vsubps	%ymm11, %ymm4, %ymm2
	vmulps	%ymm3, %ymm8, %ymm11
	vsubps	%ymm13, %ymm4, %ymm1
	vmulps	%ymm3, %ymm1, %ymm1
	vsubps	%ymm1, %ymm4, %ymm1
	vmulps	%ymm3, %ymm1, %ymm1
	vsubps	%ymm1, %ymm4, %ymm1
	vmulps	%ymm3, %ymm1, %ymm1
	vsubps	%ymm1, %ymm4, %ymm1
	vmulps	%ymm3, %ymm1, %ymm1
	vmulps	%ymm3, %ymm14, %ymm6
	vmulps	%ymm3, %ymm0, %ymm0
	vsubps	%ymm0, %ymm4, %ymm0
	vmulps	%ymm3, %ymm0, %ymm0
	vmulps	%ymm3, %ymm2, %ymm2
	vsubps	%ymm2, %ymm4, %ymm2
	vmulps	%ymm3, %ymm2, %ymm5
	vsubps	%ymm0, %ymm4, %ymm8
	vsubps	%ymm6, %ymm4, %ymm13
	vsubps	%ymm1, %ymm4, %ymm14
	vsubps	%ymm12, %ymm4, %ymm0
	vsubps	%ymm10, %ymm4, %ymm1
	vmulps	%ymm3, %ymm9, %ymm6
	vsubps	%ymm11, %ymm4, %ymm2
	vmulps	%ymm3, %ymm2, %ymm2
	vsubps	%ymm5, %ymm4, %ymm5
	vmulps	%ymm3, %ymm5, %ymm5
	vsubps	%ymm5, %ymm4, %ymm5
	vmulps	%ymm3, %ymm5, %ymm5
	vsubps	%ymm5, %ymm4, %ymm7
	vsubps	%ymm6, %ymm4, %ymm5
	vmulps	%ymm3, %ymm5, %ymm5
	vmulps	%ymm3, %ymm7, %ymm6
	vmulps	%ymm3, %ymm1, %ymm1
	vsubps	%ymm1, %ymm4, %ymm11
	vsubps	%ymm6, %ymm4, %ymm15
	vmulps	%ymm3, %ymm0, %ymm9
	vmulps	%ymm3, %ymm14, %ymm10
	vmulps	%ymm3, %ymm13, %ymm0
	vmulps	%ymm3, %ymm8, %ymm8
	vsubps	%ymm5, %ymm4, %ymm1
	vsubps	%ymm2, %ymm4, %ymm2
	vmulps	%ymm3, %ymm2, %ymm2
	vsubps	%ymm2, %ymm4, %ymm2
	vmulps	%ymm3, %ymm2, %ymm2
	vsubps	%ymm2, %ymm4, %ymm2
	vmulps	%ymm3, %ymm2, %ymm2
	vsubps	%ymm2, %ymm4, %ymm2
	vmulps	%ymm3, %ymm1, %ymm12
	vmulps	%ymm3, %ymm15, %ymm1
	vmulps	%ymm3, %ymm11, %ymm11
	vsubps	%ymm8, %ymm4, %ymm5
	vmulps	%ymm3, %ymm5, %ymm5
	vsubps	%ymm5, %ymm4, %ymm6
	vsubps	%ymm0, %ymm4, %ymm0
	vmulps	%ymm3, %ymm0, %ymm0
	vsubps	%ymm10, %ymm4, %ymm10
	vsubps	%ymm9, %ymm4, %ymm5
	vsubps	%ymm11, %ymm4, %ymm7
	vmulps	%ymm3, %ymm7, %ymm7
	vsubps	%ymm7, %ymm4, %ymm8
	vmulps	%ymm3, %ymm6, %ymm9
	vsubps	%ymm1, %ymm4, %ymm11
	vsubps	%ymm12, %ymm4, %ymm1
	vmulps	%ymm3, %ymm2, %ymm6
	vmulps	%ymm3, %ymm5, %ymm2
	vsubps	%ymm2, %ymm4, %ymm2
	vmulps	%ymm3, %ymm2, %ymm2
	vsubps	%ymm2, %ymm4, %ymm2
	vmulps	%ymm3, %ymm2, %ymm2
	vmulps	%ymm3, %ymm10, %ymm5
	vsubps	%ymm0, %ymm4, %ymm7
	vsubps	%ymm6, %ymm4, %ymm0
	vmulps	%ymm3, %ymm0, %ymm12
	vmulps	%ymm3, %ymm1, %ymm0
	vmulps	%ymm3, %ymm7, %ymm1
	vsubps	%ymm1, %ymm4, %ymm1
	vmulps	%ymm3, %ymm1, %ymm10
	vsubps	%ymm5, %ymm4, %ymm14
	vsubps	%ymm2, %ymm4, %ymm2
	vmulps	%ymm3, %ymm11, %ymm1
	vsubps	%ymm9, %ymm4, %ymm5
	vsubps	%ymm0, %ymm4, %ymm0
	vmulps	%ymm3, %ymm0, %ymm13
	vmulps	%ymm3, %ymm8, %ymm0
	vsubps	%ymm12, %ymm4, %ymm9
	vmulps	%ymm3, %ymm5, %ymm5
	vsubps	%ymm5, %ymm4, %ymm5
	vmulps	%ymm3, %ymm5, %ymm5
	vsubps	%ymm5, %ymm4, %ymm5
	vmulps	%ymm3, %ymm5, %ymm5
	vsubps	%ymm5, %ymm4, %ymm5
	vsubps	%ymm1, %ymm4, %ymm1
	vmulps	%ymm3, %ymm1, %ymm1
	vsubps	%ymm1, %ymm4, %ymm11
	vmulps	%ymm3, %ymm5, %ymm12
	vmulps	%ymm3, %ymm2, %ymm2
	vmulps	%ymm3, %ymm14, %ymm1
	vsubps	%ymm10, %ymm4, %ymm5
	vsubps	%ymm0, %ymm4, %ymm0
	vmulps	%ymm3, %ymm0, %ymm0
	vsubps	%ymm0, %ymm4, %ymm14
	vsubps	%ymm13, %ymm4, %ymm10
	vmulps	%ymm3, %ymm5, %ymm0
	vsubps	%ymm0, %ymm4, %ymm0
	vmulps	%ymm3, %ymm0, %ymm0
	vsubps	%ymm0, %ymm4, %ymm0
	vmulps	%ymm3, %ymm0, %ymm0
	vsubps	%ymm0, %ymm4, %ymm5
	vsubps	%ymm1, %ymm4, %ymm0
	vmulps	%ymm3, %ymm0, %ymm0
	vsubps	%ymm0, %ymm4, %ymm0
	vsubps	%ymm2, %ymm4, %ymm8
	vmulps	%ymm3, %ymm5, %ymm2
	vsubps	%ymm12, %ymm4, %ymm6
	vmulps	%ymm3, %ymm11, %ymm5
	vmulps	%ymm3, %ymm14, %ymm1
	vsubps	%ymm1, %ymm4, %ymm1
	vmulps	%ymm3, %ymm1, %ymm1
	vmulps	%ymm3, %ymm9, %ymm7
	vsubps	%ymm7, %ymm4, %ymm7
	vmulps	%ymm3, %ymm7, %ymm13
	vsubps	%ymm1, %ymm4, %ymm1
	vsubps	%ymm5, %ymm4, %ymm5
	vmulps	%ymm3, %ymm6, %ymm6
	vsubps	%ymm2, %ymm4, %ymm2
	vmulps	%ymm3, %ymm2, %ymm2
	vmulps	%ymm3, %ymm0, %ymm0
	vsubps	%ymm0, %ymm4, %ymm0
	vmulps	%ymm3, %ymm0, %ymm0
	vsubps	%ymm0, %ymm4, %ymm9
	vsubps	%ymm2, %ymm4, %ymm11
	vsubps	%ymm6, %ymm4, %ymm2
	vmulps	%ymm3, %ymm5, %ymm12
	vmulps	%ymm3, %ymm1, %ymm1
	vmulps	%ymm3, %ymm10, %ymm0
	vsubps	%ymm13, %ymm4, %ymm5
	vmulps	%ymm3, %ymm5, %ymm5
	vsubps	%ymm5, %ymm4, %ymm5
	vmulps	%ymm3, %ymm5, %ymm5
	vsubps	%ymm5, %ymm4, %ymm5
	vmulps	%ymm3, %ymm5, %ymm5
	vsubps	%ymm5, %ymm4, %ymm5
	vsubps	%ymm0, %ymm4, %ymm0
	vmulps	%ymm3, %ymm0, %ymm0
	vsubps	%ymm0, %ymm4, %ymm10
	vmulps	%ymm3, %ymm5, %ymm0
	vsubps	%ymm1, %ymm4, %ymm13
	vsubps	%ymm12, %ymm4, %ymm1
	vmulps	%ymm3, %ymm2, %ymm5
	vmulps	%ymm3, %ymm11, %ymm2
	vmulps	%ymm3, %ymm9, %ymm6
	vmulps	%ymm3, %ymm8, %ymm7
	vsubps	%ymm7, %ymm4, %ymm7
	vmulps	%ymm3, %ymm7, %ymm7
	vsubps	%ymm7, %ymm4, %ymm7
	vmulps	%ymm3, %ymm7, %ymm8
	vsubps	%ymm6, %ymm4, %ymm9
	vsubps	%ymm2, %ymm4, %ymm2
	vsubps	%ymm5, %ymm4, %ymm12
	vmulps	%ymm3, %ymm1, %ymm1
	vmulps	%ymm3, %ymm13, %ymm5
	vsubps	%ymm0, %ymm4, %ymm0
	vmulps	%ymm3, %ymm10, %ymm6
	vsubps	%ymm6, %ymm4, %ymm6
	vmulps	%ymm3, %ymm6, %ymm6
	vsubps	%ymm6, %ymm4, %ymm6
	vmulps	%ymm3, %ymm6, %ymm6
	vsubps	%ymm6, %ymm4, %ymm6
	vmulps	%ymm3, %ymm6, %ymm10
	vmulps	%ymm3, %ymm0, %ymm0
	vsubps	%ymm5, %ymm4, %ymm11
	vsubps	%ymm1, %ymm4, %ymm14
	vmulps	%ymm3, %ymm12, %ymm1
	vmulps	%ymm3, %ymm2, %ymm5
	vmulps	%ymm3, %ymm9, %ymm2
	vsubps	%ymm2, %ymm4, %ymm2
	vmulps	%ymm3, %ymm2, %ymm2
	vsubps	%ymm2, %ymm4, %ymm2
	vsubps	%ymm8, %ymm4, %ymm6
	vmulps	%ymm3, %ymm6, %ymm9
	vmulps	%ymm3, %ymm2, %ymm2
	vsubps	%ymm5, %ymm4, %ymm13
	vsubps	%ymm1, %ymm4, %ymm1
	vmulps	%ymm3, %ymm14, %ymm8
	vmulps	%ymm3, %ymm11, %ymm11
	vsubps	%ymm0, %ymm4, %ymm0
	vsubps	%ymm10, %ymm4, %ymm5
	vmulps	%ymm3, %ymm5, %ymm5
	vsubps	%ymm5, %ymm4, %ymm5
	vmulps	%ymm3, %ymm5, %ymm5
	vsubps	%ymm5, %ymm4, %ymm5
	vmulps	%ymm3, %ymm5, %ymm5
	vsubps	%ymm5, %ymm4, %ymm5
	vmulps	%ymm3, %ymm0, %ymm0
	vsubps	%ymm0, %ymm4, %ymm12
	vmulps	%ymm3, %ymm1, %ymm0
	vmulps	%ymm3, %ymm13, %ymm1
	vsubps	%ymm2, %ymm4, %ymm2
	vsubps	%ymm9, %ymm4, %ymm6
	vsubps	%ymm11, %ymm4, %ymm11
	vmulps	%ymm3, %ymm5, %ymm5
	vsubps	%ymm5, %ymm4, %ymm7
	vsubps	%ymm8, %ymm4, %ymm5
	vmulps	%ymm3, %ymm5, %ymm5
	vsubps	%ymm5, %ymm4, %ymm5
	vmulps	%ymm3, %ymm5, %ymm5
	vmulps	%ymm3, %ymm7, %ymm14
	vmulps	%ymm3, %ymm6, %ymm9
	vmulps	%ymm3, %ymm2, %ymm10
	vsubps	%ymm1, %ymm4, %ymm2
	vsubps	%ymm0, %ymm4, %ymm13
	vmulps	%ymm3, %ymm12, %ymm8
	vsubps	%ymm14, %ymm4, %ymm0
	vmulps	%ymm3, %ymm0, %ymm0
	vsubps	%ymm0, %ymm4, %ymm1
	vsubps	%ymm5, %ymm4, %ymm5
	vmulps	%ymm3, %ymm11, %ymm0
	vsubps	%ymm0, %ymm4, %ymm0
	vmulps	%ymm3, %ymm0, %ymm0
	vsubps	%ymm0, %ymm4, %ymm0
	vmulps	%ymm3, %ymm0, %ymm0
	vsubps	%ymm0, %ymm4, %ymm0
	vmulps	%ymm3, %ymm0, %ymm0
	vmulps	%ymm3, %ymm5, %ymm11
	vmulps	%ymm3, %ymm1, %ymm1
	vmulps	%ymm3, %ymm13, %ymm5
	vmulps	%ymm3, %ymm2, %ymm2
	vsubps	%ymm10, %ymm4, %ymm6
	vsubps	%ymm9, %ymm4, %ymm7
	vmulps	%ymm3, %ymm7, %ymm7
	vsubps	%ymm7, %ymm4, %ymm7
	vmulps	%ymm3, %ymm7, %ymm7
	vsubps	%ymm7, %ymm4, %ymm9
	vmulps	%ymm3, %ymm6, %ymm10
	vsubps	%ymm2, %ymm4, %ymm2
	vsubps	%ymm5, %ymm4, %ymm14
	vsubps	%ymm1, %ymm4, %ymm1
	vsubps	%ymm11, %ymm4, %ymm5
	vsubps	%ymm0, %ymm4, %ymm0
	vsubps	%ymm8, %ymm4, %ymm6
	vmulps	%ymm3, %ymm6, %ymm6
	vsubps	%ymm6, %ymm4, %ymm6
	vmulps	%ymm3, %ymm6, %ymm6
	vsubps	%ymm6, %ymm4, %ymm6
	vmulps	%ymm3, %ymm6, %ymm6
	vsubps	%ymm6, %ymm4, %ymm11
	vmulps	%ymm3, %ymm0, %ymm12
	vmulps	%ymm3, %ymm5, %ymm0
	vmulps	%ymm3, %ymm1, %ymm13
	vmulps	%ymm3, %ymm14, %ymm1
	vmulps	%ymm3, %ymm2, %ymm2
	vsubps	%ymm10, %ymm4, %ymm5
	vmulps	%ymm3, %ymm9, %ymm6
	vsubps	%ymm6, %ymm4, %ymm6
	vmulps	%ymm3, %ymm6, %ymm6
	vsubps	%ymm6, %ymm4, %ymm6
	vmulps	%ymm3, %ymm6, %ymm6
	vsubps	%ymm6, %ymm4, %ymm6
	vmulps	%ymm3, %ymm6, %ymm9
	vmulps	%ymm3, %ymm5, %ymm8
	vsubps	%ymm2, %ymm4, %ymm10
	vsubps	%ymm1, %ymm4, %ymm14
	vsubps	%ymm13, %ymm4, %ymm2
	vsubps	%ymm0, %ymm4, %ymm0
	vsubps	%ymm12, %ymm4, %ymm1
	vmulps	%ymm3, %ymm11, %ymm5
	vsubps	%ymm5, %ymm4, %ymm5
	vmulps	%ymm3, %ymm5, %ymm5
	vsubps	%ymm5, %ymm4, %ymm5
	vmulps	%ymm3, %ymm5, %ymm5
	vsubps	%ymm5, %ymm4, %ymm5
	vmulps	%ymm3, %ymm5, %ymm5
	vmulps	%ymm3, %ymm1, %ymm1
	vsubps	%ymm1, %ymm4, %ymm12
	vmulps	%ymm3, %ymm0, %ymm13
	vsubps	%ymm5, %ymm4, %ymm0
	vmulps	%ymm3, %ymm0, %ymm5
	vmulps	%ymm3, %ymm2, %ymm0
	vsubps	%ymm0, %ymm4, %ymm0
	vmulps	%ymm3, %ymm0, %ymm1
	vmulps	%ymm3, %ymm14, %ymm0
	vsubps	%ymm0, %ymm4, %ymm0
	vmulps	%ymm3, %ymm0, %ymm0
	vsubps	%ymm1, %ymm4, %ymm1
	vsubps	%ymm5, %ymm4, %ymm2
	vmulps	%ymm3, %ymm10, %ymm5
	vsubps	%ymm5, %ymm4, %ymm5
	vmulps	%ymm3, %ymm5, %ymm5
	vsubps	%ymm5, %ymm4, %ymm5
	vmulps	%ymm3, %ymm5, %ymm5
	vsubps	%ymm5, %ymm4, %ymm14
	vsubps	%ymm8, %ymm4, %ymm8
	vmulps	%ymm3, %ymm2, %ymm2
	vsubps	%ymm2, %ymm4, %ymm10
	vmulps	%ymm3, %ymm1, %ymm11
	vsubps	%ymm9, %ymm4, %ymm9
	vsubps	%ymm0, %ymm4, %ymm0
	vsubps	%ymm13, %ymm4, %ymm1
	vmulps	%ymm3, %ymm12, %ymm2
	vsubps	%ymm2, %ymm4, %ymm2
	vmulps	%ymm3, %ymm2, %ymm2
	vsubps	%ymm2, %ymm4, %ymm2
	vmulps	%ymm3, %ymm2, %ymm2
	vsubps	%ymm2, %ymm4, %ymm2
	vmulps	%ymm3, %ymm2, %ymm2
	vmulps	%ymm3, %ymm1, %ymm13
	vsubps	%ymm2, %ymm4, %ymm1
	vmulps	%ymm3, %ymm1, %ymm1
	vsubps	%ymm1, %ymm4, %ymm1
	vmulps	%ymm3, %ymm1, %ymm1
	vmulps	%ymm3, %ymm0, %ymm15
	vsubps	%ymm1, %ymm4, %ymm1
	vmulps	%ymm3, %ymm14, %ymm0
	vsubps	%ymm0, %ymm4, %ymm0
	vmulps	%ymm3, %ymm0, %ymm0
	vmulps	%ymm3, %ymm9, %ymm2
	vsubps	%ymm2, %ymm4, %ymm2
	vmulps	%ymm3, %ymm2, %ymm12
	vsubps	%ymm0, %ymm4, %ymm0
	vmulps	%ymm3, %ymm1, %ymm2
	vsubps	%ymm11, %ymm4, %ymm1
	vmulps	%ymm3, %ymm10, %ymm5
	vsubps	%ymm15, %ymm4, %ymm6
	vsubps	%ymm13, %ymm4, %ymm7
	vmulps	%ymm3, %ymm7, %ymm7
	vsubps	%ymm7, %ymm4, %ymm7
	vmulps	%ymm3, %ymm7, %ymm7
	vsubps	%ymm7, %ymm4, %ymm7
	vmulps	%ymm3, %ymm7, %ymm7
	vsubps	%ymm7, %ymm4, %ymm9
	vmulps	%ymm3, %ymm6, %ymm11
	vsubps	%ymm5, %ymm4, %ymm13
	vmulps	%ymm3, %ymm1, %ymm14
	vsubps	%ymm2, %ymm4, %ymm1
	vmulps	%ymm3, %ymm0, %ymm0
	vsubps	%ymm12, %ymm4, %ymm5
	vmulps	%ymm3, %ymm8, %ymm2
	vsubps	%ymm2, %ymm4, %ymm2
	vmulps	%ymm3, %ymm2, %ymm2
	vsubps	%ymm2, %ymm4, %ymm2
	vmulps	%ymm3, %ymm2, %ymm2
	vsubps	%ymm2, %ymm4, %ymm2
	vmulps	%ymm3, %ymm2, %ymm2
	vmulps	%ymm3, %ymm5, %ymm12
	vsubps	%ymm0, %ymm4, %ymm8
	vmulps	%ymm3, %ymm1, %ymm10
	vsubps	%ymm14, %ymm4, %ymm0
	vmulps	%ymm3, %ymm13, %ymm14
	vsubps	%ymm11, %ymm4, %ymm1
	vmulps	%ymm3, %ymm9, %ymm5
	vsubps	%ymm5, %ymm4, %ymm5
	vmulps	%ymm3, %ymm5, %ymm5
	vsubps	%ymm5, %ymm4, %ymm5
	vmulps	%ymm3, %ymm5, %ymm5
	vsubps	%ymm5, %ymm4, %ymm5
	vmulps	%ymm3, %ymm5, %ymm5
	vmulps	%ymm3, %ymm1, %ymm1
	vsubps	%ymm1, %ymm4, %ymm11
	vsubps	%ymm12, %ymm4, %ymm13
	vsubps	%ymm2, %ymm4, %ymm2
	vsubps	%ymm5, %ymm4, %ymm5
	vsubps	%ymm14, %ymm4, %ymm1
	vmulps	%ymm3, %ymm0, %ymm0
	vsubps	%ymm0, %ymm4, %ymm0
	vmulps	%ymm3, %ymm0, %ymm0
	vsubps	%ymm0, %ymm4, %ymm0
	vmulps	%ymm3, %ymm0, %ymm9
	vsubps	%ymm10, %ymm4, %ymm12
	vmulps	%ymm3, %ymm8, %ymm0
	vmulps	%ymm3, %ymm1, %ymm1
	vmulps	%ymm3, %ymm5, %ymm5
	vmulps	%ymm3, %ymm2, %ymm2
	vsubps	%ymm2, %ymm4, %ymm2
	vmulps	%ymm3, %ymm2, %ymm10
	vmulps	%ymm3, %ymm13, %ymm13
	vmulps	%ymm3, %ymm11, %ymm8
	vsubps	%ymm5, %ymm4, %ymm2
	vmulps	%ymm3, %ymm2, %ymm2
	vsubps	%ymm2, %ymm4, %ymm2
	vmulps	%ymm3, %ymm2, %ymm2
	vsubps	%ymm2, %ymm4, %ymm5
	vsubps	%ymm1, %ymm4, %ymm1
	vmulps	%ymm3, %ymm1, %ymm1
	vsubps	%ymm1, %ymm4, %ymm2
	vsubps	%ymm0, %ymm4, %ymm11
	vmulps	%ymm3, %ymm5, %ymm1
	vmulps	%ymm3, %ymm12, %ymm0
	vsubps	%ymm0, %ymm4, %ymm0
	vmulps	%ymm3, %ymm0, %ymm0
	vsubps	%ymm0, %ymm4, %ymm0
	vsubps	%ymm1, %ymm4, %ymm1
	vsubps	%ymm9, %ymm4, %ymm5
	vsubps	%ymm13, %ymm4, %ymm9
	vmulps	%ymm3, %ymm2, %ymm2
	vsubps	%ymm2, %ymm4, %ymm6
	vsubps	%ymm10, %ymm4, %ymm2
	vmulps	%ymm3, %ymm2, %ymm2
	vsubps	%ymm2, %ymm4, %ymm2
	vmulps	%ymm3, %ymm2, %ymm2
	vsubps	%ymm2, %ymm4, %ymm2
	vmulps	%ymm3, %ymm6, %ymm10
	vmulps	%ymm3, %ymm5, %ymm13
	vmulps	%ymm3, %ymm1, %ymm1
	vmulps	%ymm3, %ymm0, %ymm5
	vmulps	%ymm3, %ymm11, %ymm0
	vsubps	%ymm0, %ymm4, %ymm0
	vsubps	%ymm8, %ymm4, %ymm6
	vmulps	%ymm3, %ymm6, %ymm6
	vsubps	%ymm6, %ymm4, %ymm6
	vmulps	%ymm3, %ymm6, %ymm11
	vmulps	%ymm3, %ymm0, %ymm0
	vsubps	%ymm5, %ymm4, %ymm12
	vsubps	%ymm1, %ymm4, %ymm1
	vsubps	%ymm13, %ymm4, %ymm5
	vsubps	%ymm10, %ymm4, %ymm6
	vmulps	%ymm3, %ymm2, %ymm2
	vmulps	%ymm3, %ymm9, %ymm7
	vsubps	%ymm7, %ymm4, %ymm7
	vmulps	%ymm3, %ymm7, %ymm7
	vsubps	%ymm7, %ymm4, %ymm7
	vmulps	%ymm3, %ymm7, %ymm8
	vsubps	%ymm2, %ymm4, %ymm10
	vmulps	%ymm3, %ymm6, %ymm2
	vmulps	%ymm3, %ymm5, %ymm13
	vmulps	%ymm3, %ymm1, %ymm1
	vmulps	%ymm3, %ymm12, %ymm5
	vsubps	%ymm0, %ymm4, %ymm0
	vsubps	%ymm11, %ymm4, %ymm6
	vmulps	%ymm3, %ymm6, %ymm6
	vsubps	%ymm6, %ymm4, %ymm6
	vmulps	%ymm3, %ymm6, %ymm6
	vsubps	%ymm6, %ymm4, %ymm6
	vmulps	%ymm3, %ymm6, %ymm6
	vsubps	%ymm6, %ymm4, %ymm9
	vmulps	%ymm3, %ymm0, %ymm11
	vsubps	%ymm5, %ymm4, %ymm0
	vsubps	%ymm1, %ymm4, %ymm12
	vsubps	%ymm13, %ymm4, %ymm1
	vsubps	%ymm2, %ymm4, %ymm5
	vmulps	%ymm3, %ymm10, %ymm6
	vsubps	%ymm8, %ymm4, %ymm2
	vmulps	%ymm3, %ymm2, %ymm2
	vsubps	%ymm2, %ymm4, %ymm2
	vmulps	%ymm3, %ymm2, %ymm2
	vsubps	%ymm2, %ymm4, %ymm2
	vmulps	%ymm3, %ymm2, %ymm2
	vsubps	%ymm2, %ymm4, %ymm2
	vsubps	%ymm6, %ymm4, %ymm13
	vmulps	%ymm3, %ymm5, %ymm8
	vmulps	%ymm3, %ymm1, %ymm10
	vmulps	%ymm3, %ymm12, %ymm12
	vmulps	%ymm3, %ymm0, %ymm0
	vsubps	%ymm11, %ymm4, %ymm1
	vmulps	%ymm3, %ymm9, %ymm5
	vsubps	%ymm5, %ymm4, %ymm5
	vmulps	%ymm3, %ymm5, %ymm5
	vsubps	%ymm5, %ymm4, %ymm5
	vmulps	%ymm3, %ymm5, %ymm5
	vsubps	%ymm5, %ymm4, %ymm5
	vmulps	%ymm3, %ymm5, %ymm5
	vmulps	%ymm3, %ymm1, %ymm1
	vsubps	%ymm1, %ymm4, %ymm11
	vmulps	%ymm3, %ymm13, %ymm13
	vmulps	%ymm3, %ymm2, %ymm1
	vsubps	%ymm5, %ymm4, %ymm5
	vsubps	%ymm0, %ymm4, %ymm0
	vmulps	%ymm3, %ymm0, %ymm0
	vsubps	%ymm0, %ymm4, %ymm0
	vmulps	%ymm3, %ymm0, %ymm0
	vsubps	%ymm0, %ymm4, %ymm9
	vsubps	%ymm12, %ymm4, %ymm12
	vsubps	%ymm10, %ymm4, %ymm2
	vmulps	%ymm3, %ymm5, %ymm0
	vsubps	%ymm0, %ymm4, %ymm0
	vsubps	%ymm8, %ymm4, %ymm5
	vsubps	%ymm1, %ymm4, %ymm1
	vsubps	%ymm13, %ymm4, %ymm6
	vmulps	%ymm3, %ymm6, %ymm6
	vsubps	%ymm6, %ymm4, %ymm6
	vmulps	%ymm3, %ymm6, %ymm6
	vsubps	%ymm6, %ymm4, %ymm6
	vmulps	%ymm3, %ymm6, %ymm8
	vmulps	%ymm3, %ymm11, %ymm11
	vmulps	%ymm3, %ymm1, %ymm6
	vmulps	%ymm3, %ymm5, %ymm5
	vmulps	%ymm3, %ymm2, %ymm1
	vsubps	%ymm1, %ymm4, %ymm1
	vmulps	%ymm3, %ymm1, %ymm1
	vsubps	%ymm1, %ymm4, %ymm10
	vmulps	%ymm3, %ymm0, %ymm13
	vmulps	%ymm3, %ymm12, %ymm2
	vmulps	%ymm3, %ymm9, %ymm1
	vsubps	%ymm5, %ymm4, %ymm5
	vsubps	%ymm6, %ymm4, %ymm6
	vsubps	%ymm11, %ymm4, %ymm0
	vmulps	%ymm3, %ymm0, %ymm0
	vsubps	%ymm0, %ymm4, %ymm0
	vmulps	%ymm3, %ymm0, %ymm0
	vsubps	%ymm0, %ymm4, %ymm0
	vmulps	%ymm3, %ymm0, %ymm11
	vsubps	%ymm8, %ymm4, %ymm0
	vmulps	%ymm3, %ymm6, %ymm6
	vmulps	%ymm3, %ymm5, %ymm5
	vsubps	%ymm1, %ymm4, %ymm1
	vmulps	%ymm3, %ymm1, %ymm1
	vsubps	%ymm1, %ymm4, %ymm1
	vmulps	%ymm3, %ymm1, %ymm8
	vsubps	%ymm2, %ymm4, %ymm12
	vsubps	%ymm13, %ymm4, %ymm2
	vmulps	%ymm3, %ymm10, %ymm1
	vsubps	%ymm5, %ymm4, %ymm5
	vsubps	%ymm6, %ymm4, %ymm6
	vmulps	%ymm3, %ymm0, %ymm0
	vsubps	%ymm0, %ymm4, %ymm0
	vmulps	%ymm3, %ymm0, %ymm0
	vsubps	%ymm0, %ymm4, %ymm0
	vmulps	%ymm3, %ymm0, %ymm0
	vsubps	%ymm0, %ymm4, %ymm9
	vsubps	%ymm11, %ymm4, %ymm0
	vmulps	%ymm3, %ymm6, %ymm6
	vmulps	%ymm3, %ymm5, %ymm5
	vsubps	%ymm1, %ymm4, %ymm1
	vmulps	%ymm3, %ymm1, %ymm1
	vsubps	%ymm1, %ymm4, %ymm1
	vmulps	%ymm3, %ymm1, %ymm10
	vmulps	%ymm3, %ymm2, %ymm11
	vmulps	%ymm3, %ymm12, %ymm12
	vsubps	%ymm8, %ymm4, %ymm1
	vsubps	%ymm5, %ymm4, %ymm5
	vsubps	%ymm6, %ymm4, %ymm6
	vmulps	%ymm3, %ymm0, %ymm0
	vsubps	%ymm0, %ymm4, %ymm0
	vmulps	%ymm3, %ymm0, %ymm0
	vsubps	%ymm0, %ymm4, %ymm0
	vmulps	%ymm3, %ymm0, %ymm0
	vsubps	%ymm0, %ymm4, %ymm2
	vmulps	%ymm3, %ymm9, %ymm0
	vmulps	%ymm3, %ymm6, %ymm6
	vmulps	%ymm3, %ymm5, %ymm5
	vmulps	%ymm3, %ymm1, %ymm1
	vsubps	%ymm1, %ymm4, %ymm1
	vmulps	%ymm3, %ymm1, %ymm1
	vsubps	%ymm1, %ymm4, %ymm8
	vsubps	%ymm12, %ymm4, %ymm9
	vsubps	%ymm11, %ymm4, %ymm12
	vsubps	%ymm10, %ymm4, %ymm1
	vsubps	%ymm5, %ymm4, %ymm5
	vsubps	%ymm6, %ymm4, %ymm10
	vsubps	%ymm0, %ymm4, %ymm0
	vmulps	%ymm3, %ymm0, %ymm0
	vsubps	%ymm0, %ymm4, %ymm0
	vmulps	%ymm3, %ymm0, %ymm6
	vmulps	%ymm3, %ymm2, %ymm0
	vsubps	%ymm0, %ymm4, %ymm0
	vmulps	%ymm3, %ymm0, %ymm2
	vmulps	%ymm3, %ymm10, %ymm0
	vmulps	%ymm3, %ymm5, %ymm5
	vmulps	%ymm3, %ymm1, %ymm11
	vsubps	%ymm2, %ymm4, %ymm13
	vsubps	%ymm6, %ymm4, %ymm1
	vmulps	%ymm3, %ymm12, %ymm2
	vsubps	%ymm2, %ymm4, %ymm2
	vmulps	%ymm3, %ymm2, %ymm2
	vsubps	%ymm2, %ymm4, %ymm2
	vmulps	%ymm3, %ymm2, %ymm2
	vmulps	%ymm3, %ymm9, %ymm9
	vsubps	%ymm5, %ymm4, %ymm10
	vmulps	%ymm3, %ymm1, %ymm1
	vsubps	%ymm1, %ymm4, %ymm1
	vmulps	%ymm3, %ymm13, %ymm5
	vmulps	%ymm3, %ymm8, %ymm6
	vsubps	%ymm0, %ymm4, %ymm0
	vmulps	%ymm3, %ymm0, %ymm0
	vsubps	%ymm0, %ymm4, %ymm0
	vmulps	%ymm3, %ymm0, %ymm0
	vsubps	%ymm0, %ymm4, %ymm0
	vmulps	%ymm3, %ymm0, %ymm0
	vsubps	%ymm0, %ymm4, %ymm13
	vsubps	%ymm6, %ymm4, %ymm0
	vsubps	%ymm5, %ymm4, %ymm5
	vmulps	%ymm3, %ymm1, %ymm1
	vsubps	%ymm2, %ymm4, %ymm6
	vsubps	%ymm11, %ymm4, %ymm2
	vmulps	%ymm3, %ymm2, %ymm2
	vsubps	%ymm2, %ymm4, %ymm2
	vmulps	%ymm3, %ymm2, %ymm2
	vsubps	%ymm2, %ymm4, %ymm2
	vmulps	%ymm3, %ymm6, %ymm14
	vsubps	%ymm1, %ymm4, %ymm8
	vmulps	%ymm3, %ymm5, %ymm11
	vmulps	%ymm3, %ymm0, %ymm12
	vmulps	%ymm3, %ymm10, %ymm0
	vsubps	%ymm9, %ymm4, %ymm1
	vmulps	%ymm3, %ymm13, %ymm5
	vsubps	%ymm5, %ymm4, %ymm5
	vmulps	%ymm3, %ymm5, %ymm5
	vsubps	%ymm5, %ymm4, %ymm5
	vmulps	%ymm3, %ymm5, %ymm5
	vsubps	%ymm5, %ymm4, %ymm5
	vmulps	%ymm3, %ymm5, %ymm5
	vsubps	%ymm5, %ymm4, %ymm13
	vsubps	%ymm14, %ymm4, %ymm5
	vmulps	%ymm3, %ymm2, %ymm2
	vsubps	%ymm2, %ymm4, %ymm2
	vmulps	%ymm3, %ymm2, %ymm2
	vmulps	%ymm3, %ymm1, %ymm1
	vsubps	%ymm1, %ymm4, %ymm10
	vsubps	%ymm0, %ymm4, %ymm0
	vsubps	%ymm2, %ymm4, %ymm2
	vmulps	%ymm3, %ymm5, %ymm5
	vsubps	%ymm12, %ymm4, %ymm9
	vmulps	%ymm3, %ymm13, %ymm1
	vsubps	%ymm1, %ymm4, %ymm1
	vsubps	%ymm11, %ymm4, %ymm6
	vmulps	%ymm3, %ymm6, %ymm6
	vsubps	%ymm6, %ymm4, %ymm11
	vmulps	%ymm3, %ymm1, %ymm13
	vmulps	%ymm3, %ymm8, %ymm1
	vsubps	%ymm5, %ymm4, %ymm6
	vmulps	%ymm3, %ymm2, %ymm7
	vmulps	%ymm3, %ymm0, %ymm0
	vsubps	%ymm0, %ymm4, %ymm0
	vmulps	%ymm3, %ymm0, %ymm2
	vmulps	%ymm3, %ymm10, %ymm5
	vsubps	%ymm7, %ymm4, %ymm0
	vmulps	%ymm3, %ymm0, %ymm0
	vsubps	%ymm0, %ymm4, %ymm0
	vmulps	%ymm3, %ymm0, %ymm12
	vmulps	%ymm3, %ymm6, %ymm10
	vsubps	%ymm1, %ymm4, %ymm0
	vsubps	%ymm13, %ymm4, %ymm13
	vmulps	%ymm3, %ymm11, %ymm11
	vmulps	%ymm3, %ymm9, %ymm6
	vsubps	%ymm5, %ymm4, %ymm1
	vmulps	%ymm3, %ymm1, %ymm1
	vsubps	%ymm1, %ymm4, %ymm1
	vmulps	%ymm3, %ymm1, %ymm1
	vsubps	%ymm1, %ymm4, %ymm1
	vmulps	%ymm3, %ymm1, %ymm1
	vsubps	%ymm2, %ymm4, %ymm2
	vsubps	%ymm6, %ymm4, %ymm5
	vmulps	%ymm3, %ymm5, %ymm5
	vsubps	%ymm5, %ymm4, %ymm8
	vsubps	%ymm11, %ymm4, %ymm11
	vmulps	%ymm3, %ymm13, %ymm13
	vmulps	%ymm3, %ymm0, %ymm0
	vsubps	%ymm10, %ymm4, %ymm5
	vmulps	%ymm3, %ymm2, %ymm10
	vsubps	%ymm12, %ymm4, %ymm2
	vmulps	%ymm3, %ymm2, %ymm2
	vsubps	%ymm2, %ymm4, %ymm6
	vsubps	%ymm1, %ymm4, %ymm2
	vmulps	%ymm3, %ymm6, %ymm1
	vsubps	%ymm1, %ymm4, %ymm1
	vmulps	%ymm3, %ymm1, %ymm1
	vmulps	%ymm3, %ymm5, %ymm5
	vsubps	%ymm5, %ymm4, %ymm5
	vmulps	%ymm3, %ymm5, %ymm5
	vsubps	%ymm1, %ymm4, %ymm1
	vsubps	%ymm0, %ymm4, %ymm0
	vmulps	%ymm3, %ymm0, %ymm0
	vsubps	%ymm0, %ymm4, %ymm9
	vmulps	%ymm3, %ymm1, %ymm12
	vsubps	%ymm13, %ymm4, %ymm13
	vmulps	%ymm3, %ymm11, %ymm0
	vmulps	%ymm3, %ymm8, %ymm1
	vsubps	%ymm5, %ymm4, %ymm6
	vmulps	%ymm3, %ymm2, %ymm5
	vsubps	%ymm10, %ymm4, %ymm2
	vmulps	%ymm3, %ymm2, %ymm2
	vsubps	%ymm2, %ymm4, %ymm2
	vmulps	%ymm3, %ymm2, %ymm2
	vsubps	%ymm2, %ymm4, %ymm2
	vmulps	%ymm3, %ymm2, %ymm2
	vsubps	%ymm2, %ymm4, %ymm2
	vsubps	%ymm5, %ymm4, %ymm5
	vmulps	%ymm3, %ymm6, %ymm6
	vsubps	%ymm1, %ymm4, %ymm1
	vmulps	%ymm3, %ymm1, %ymm1
	vsubps	%ymm1, %ymm4, %ymm8
	vsubps	%ymm0, %ymm4, %ymm10
	vmulps	%ymm3, %ymm13, %ymm11
	vsubps	%ymm12, %ymm4, %ymm0
	vmulps	%ymm3, %ymm9, %ymm1
	vsubps	%ymm6, %ymm4, %ymm6
	vmulps	%ymm3, %ymm5, %ymm5
	vsubps	%ymm5, %ymm4, %ymm5
	vmulps	%ymm3, %ymm5, %ymm5
	vsubps	%ymm5, %ymm4, %ymm5
	vmulps	%ymm3, %ymm5, %ymm5
	vsubps	%ymm5, %ymm4, %ymm12
	vmulps	%ymm3, %ymm2, %ymm2
	vmulps	%ymm3, %ymm6, %ymm6
	vsubps	%ymm1, %ymm4, %ymm1
	vmulps	%ymm3, %ymm1, %ymm1
	vsubps	%ymm1, %ymm4, %ymm1
	vmulps	%ymm3, %ymm1, %ymm1
	vsubps	%ymm1, %ymm4, %ymm13
	vmulps	%ymm3, %ymm0, %ymm5
	vsubps	%ymm11, %ymm4, %ymm1
	vsubps	%ymm6, %ymm4, %ymm0
	vmulps	%ymm3, %ymm0, %ymm0
	vsubps	%ymm0, %ymm4, %ymm0
	vmulps	%ymm3, %ymm0, %ymm9
	vmulps	%ymm3, %ymm10, %ymm11
	vmulps	%ymm3, %ymm8, %ymm0
	vsubps	%ymm2, %ymm4, %ymm2
	vmulps	%ymm3, %ymm1, %ymm1
	vsubps	%ymm5, %ymm4, %ymm5
	vmulps	%ymm3, %ymm13, %ymm6
	vmulps	%ymm3, %ymm12, %ymm7
	vsubps	%ymm7, %ymm4, %ymm7
	vmulps	%ymm3, %ymm7, %ymm7
	vsubps	%ymm7, %ymm4, %ymm7
	vmulps	%ymm3, %ymm7, %ymm7
	vmulps	%ymm3, %ymm2, %ymm2
	vsubps	%ymm7, %ymm4, %ymm12
	vsubps	%ymm6, %ymm4, %ymm13
	vmulps	%ymm3, %ymm5, %ymm5
	vsubps	%ymm1, %ymm4, %ymm1
	vsubps	%ymm0, %ymm4, %ymm0
	vmulps	%ymm3, %ymm0, %ymm0
	vsubps	%ymm0, %ymm4, %ymm0
	vmulps	%ymm3, %ymm0, %ymm0
	vsubps	%ymm0, %ymm4, %ymm10
	vsubps	%ymm11, %ymm4, %ymm8
	vmulps	%ymm3, %ymm1, %ymm0
	vsubps	%ymm0, %ymm4, %ymm0
	vsubps	%ymm5, %ymm4, %ymm1
	vmulps	%ymm3, %ymm13, %ymm11
	vmulps	%ymm3, %ymm12, %ymm5
	vsubps	%ymm9, %ymm4, %ymm6
	vsubps	%ymm2, %ymm4, %ymm2
	vmulps	%ymm3, %ymm2, %ymm2
	vsubps	%ymm2, %ymm4, %ymm2
	vmulps	%ymm3, %ymm2, %ymm2
	vsubps	%ymm2, %ymm4, %ymm2
	vmulps	%ymm3, %ymm2, %ymm2
	vmulps	%ymm3, %ymm6, %ymm12
	vsubps	%ymm5, %ymm4, %ymm14
	vsubps	%ymm11, %ymm4, %ymm5
	vmulps	%ymm3, %ymm1, %ymm1
	vmulps	%ymm3, %ymm0, %ymm0
	vsubps	%ymm0, %ymm4, %ymm0
	vmulps	%ymm3, %ymm0, %ymm0
	vmulps	%ymm3, %ymm10, %ymm6
	vsubps	%ymm6, %ymm4, %ymm6
	vmulps	%ymm3, %ymm6, %ymm9
	vsubps	%ymm0, %ymm4, %ymm0
	vsubps	%ymm1, %ymm4, %ymm11
	vmulps	%ymm3, %ymm5, %ymm13
	vmulps	%ymm3, %ymm14, %ymm1
	vsubps	%ymm12, %ymm4, %ymm5
	vsubps	%ymm2, %ymm4, %ymm2
	vmulps	%ymm3, %ymm2, %ymm2
	vmulps	%ymm3, %ymm8, %ymm6
	vsubps	%ymm6, %ymm4, %ymm6
	vmulps	%ymm3, %ymm6, %ymm6
	vsubps	%ymm6, %ymm4, %ymm10
	vsubps	%ymm2, %ymm4, %ymm2
	vmulps	%ymm3, %ymm5, %ymm12
	vsubps	%ymm1, %ymm4, %ymm1
	vsubps	%ymm13, %ymm4, %ymm5
	vmulps	%ymm3, %ymm11, %ymm6
	vmulps	%ymm3, %ymm0, %ymm0
	vsubps	%ymm0, %ymm4, %ymm0
	vsubps	%ymm9, %ymm4, %ymm7
	vmulps	%ymm3, %ymm7, %ymm7
	vsubps	%ymm7, %ymm4, %ymm7
	vmulps	%ymm3, %ymm7, %ymm8
	vmulps	%ymm3, %ymm0, %ymm9
	vsubps	%ymm6, %ymm4, %ymm0
	vmulps	%ymm3, %ymm5, %ymm11
	vmulps	%ymm3, %ymm1, %ymm1
	vsubps	%ymm12, %ymm4, %ymm5
	vmulps	%ymm3, %ymm2, %ymm2
	vmulps	%ymm3, %ymm10, %ymm6
	vsubps	%ymm6, %ymm4, %ymm6
	vmulps	%ymm3, %ymm6, %ymm6
	vsubps	%ymm6, %ymm4, %ymm6
	vmulps	%ymm3, %ymm6, %ymm6
	vsubps	%ymm6, %ymm4, %ymm6
	vmulps	%ymm3, %ymm6, %ymm12
	vsubps	%ymm2, %ymm4, %ymm2
	vmulps	%ymm3, %ymm5, %ymm13
	vsubps	%ymm1, %ymm4, %ymm1
	vsubps	%ymm11, %ymm4, %ymm5
	vmulps	%ymm3, %ymm0, %ymm0
	vsubps	%ymm9, %ymm4, %ymm6
	vmulps	%ymm3, %ymm6, %ymm6
	vsubps	%ymm6, %ymm4, %ymm6
	vsubps	%ymm8, %ymm4, %ymm7
	vmulps	%ymm3, %ymm7, %ymm7
	vsubps	%ymm7, %ymm4, %ymm8
	vmulps	%ymm3, %ymm6, %ymm10
	vsubps	%ymm0, %ymm4, %ymm11
	vmulps	%ymm3, %ymm5, %ymm9
	vmulps	%ymm3, %ymm1, %ymm0
	vsubps	%ymm13, %ymm4, %ymm13
	vmulps	%ymm3, %ymm2, %ymm1
	vsubps	%ymm12, %ymm4, %ymm2
	vmulps	%ymm3, %ymm2, %ymm2
	vsubps	%ymm2, %ymm4, %ymm2
	vmulps	%ymm3, %ymm2, %ymm2
	vsubps	%ymm2, %ymm4, %ymm2
	vmulps	%ymm3, %ymm2, %ymm2
	vsubps	%ymm2, %ymm4, %ymm2
	vsubps	%ymm1, %ymm4, %ymm1
	vmulps	%ymm3, %ymm1, %ymm1
	vmulps	%ymm3, %ymm2, %ymm5
	vmulps	%ymm3, %ymm13, %ymm2
	vsubps	%ymm2, %ymm4, %ymm2
	vmulps	%ymm3, %ymm2, %ymm2
	vsubps	%ymm0, %ymm4, %ymm0
	vsubps	%ymm5, %ymm4, %ymm5
	vsubps	%ymm9, %ymm4, %ymm6
	vmulps	%ymm3, %ymm6, %ymm9
	vmulps	%ymm3, %ymm11, %ymm11
	vsubps	%ymm10, %ymm4, %ymm12
	vmulps	%ymm3, %ymm8, %ymm8
	vsubps	%ymm1, %ymm4, %ymm10
	vmulps	%ymm3, %ymm5, %ymm1
	vmulps	%ymm3, %ymm0, %ymm0
	vsubps	%ymm0, %ymm4, %ymm0
	vmulps	%ymm3, %ymm0, %ymm0
	vsubps	%ymm0, %ymm4, %ymm0
	vsubps	%ymm1, %ymm4, %ymm1
	vsubps	%ymm2, %ymm4, %ymm2
	vmulps	%ymm3, %ymm2, %ymm2
	vsubps	%ymm2, %ymm4, %ymm2
	vmulps	%ymm3, %ymm2, %ymm2
	vsubps	%ymm2, %ymm4, %ymm2
	vmulps	%ymm3, %ymm2, %ymm2
	vsubps	%ymm2, %ymm4, %ymm2
	vmulps	%ymm3, %ymm1, %ymm13
	vmulps	%ymm3, %ymm12, %ymm1
	vmulps	%ymm3, %ymm0, %ymm0
	vsubps	%ymm0, %ymm4, %ymm0
	vmulps	%ymm3, %ymm0, %ymm0
	vsubps	%ymm0, %ymm4, %ymm12
	vsubps	%ymm11, %ymm4, %ymm0
	vsubps	%ymm9, %ymm4, %ymm6
	vmulps	%ymm3, %ymm10, %ymm9
	vsubps	%ymm1, %ymm4, %ymm5
	vsubps	%ymm8, %ymm4, %ymm1
	vmulps	%ymm3, %ymm1, %ymm1
	vsubps	%ymm1, %ymm4, %ymm1
	vmulps	%ymm3, %ymm1, %ymm1
	vmulps	%ymm3, %ymm5, %ymm5
	vsubps	%ymm13, %ymm4, %ymm10
	vmulps	%ymm3, %ymm2, %ymm11
	vmulps	%ymm3, %ymm6, %ymm2
	vsubps	%ymm2, %ymm4, %ymm2
	vmulps	%ymm3, %ymm2, %ymm2
	vsubps	%ymm2, %ymm4, %ymm2
	vmulps	%ymm3, %ymm0, %ymm8
	vsubps	%ymm11, %ymm4, %ymm0
	vmulps	%ymm3, %ymm10, %ymm10
	vsubps	%ymm5, %ymm4, %ymm5
	vmulps	%ymm3, %ymm12, %ymm6
	vsubps	%ymm1, %ymm4, %ymm1
	vmulps	%ymm3, %ymm1, %ymm1
	vsubps	%ymm1, %ymm4, %ymm1
	vsubps	%ymm9, %ymm4, %ymm7
	vmulps	%ymm3, %ymm7, %ymm7
	vsubps	%ymm7, %ymm4, %ymm11
	vmulps	%ymm3, %ymm1, %ymm12
	vsubps	%ymm6, %ymm4, %ymm14
	vmulps	%ymm3, %ymm5, %ymm1
	vsubps	%ymm10, %ymm4, %ymm5
	vmulps	%ymm3, %ymm0, %ymm0
	vmulps	%ymm3, %ymm2, %ymm2
	vsubps	%ymm2, %ymm4, %ymm2
	vmulps	%ymm3, %ymm2, %ymm2
	vsubps	%ymm2, %ymm4, %ymm2
	vmulps	%ymm3, %ymm2, %ymm2
	vsubps	%ymm2, %ymm4, %ymm2
	vmulps	%ymm3, %ymm2, %ymm9
	vsubps	%ymm0, %ymm4, %ymm10
	vmulps	%ymm3, %ymm5, %ymm13
	vsubps	%ymm1, %ymm4, %ymm0
	vmulps	%ymm3, %ymm14, %ymm14
	vsubps	%ymm12, %ymm4, %ymm1
	vsubps	%ymm8, %ymm4, %ymm2
	vmulps	%ymm3, %ymm11, %ymm5
	vsubps	%ymm5, %ymm4, %ymm5
	vmulps	%ymm3, %ymm5, %ymm5
	vsubps	%ymm5, %ymm4, %ymm5
	vmulps	%ymm3, %ymm5, %ymm5
	vsubps	%ymm5, %ymm4, %ymm5
	vmulps	%ymm3, %ymm5, %ymm5
	vmulps	%ymm3, %ymm2, %ymm2
	vsubps	%ymm2, %ymm4, %ymm11
	vsubps	%ymm5, %ymm4, %ymm12
	vmulps	%ymm3, %ymm1, %ymm2
	vsubps	%ymm14, %ymm4, %ymm14
	vmulps	%ymm3, %ymm0, %ymm0
	vsubps	%ymm13, %ymm4, %ymm1
	vmulps	%ymm3, %ymm10, %ymm5
	vsubps	%ymm9, %ymm4, %ymm6
	vmulps	%ymm3, %ymm6, %ymm6
	vsubps	%ymm6, %ymm4, %ymm6
	vmulps	%ymm3, %ymm6, %ymm6
	vsubps	%ymm6, %ymm4, %ymm6
	vmulps	%ymm3, %ymm6, %ymm6
	vsubps	%ymm6, %ymm4, %ymm8
	vsubps	%ymm5, %ymm4, %ymm10
	vmulps	%ymm3, %ymm1, %ymm13
	vsubps	%ymm0, %ymm4, %ymm0
	vmulps	%ymm3, %ymm14, %ymm1
	vsubps	%ymm2, %ymm4, %ymm2
	vmulps	%ymm3, %ymm12, %ymm5
	vmulps	%ymm3, %ymm11, %ymm12
	vsubps	%ymm5, %ymm4, %ymm5
	vmulps	%ymm3, %ymm5, %ymm5
	vsubps	%ymm5, %ymm4, %ymm5
	vmulps	%ymm3, %ymm5, %ymm5
	vsubps	%ymm5, %ymm4, %ymm5
	vmulps	%ymm3, %ymm5, %ymm5
	vmulps	%ymm3, %ymm2, %ymm2
	vsubps	%ymm5, %ymm4, %ymm6
	vsubps	%ymm1, %ymm4, %ymm1
	vmulps	%ymm3, %ymm1, %ymm5
	vmulps	%ymm3, %ymm6, %ymm1
	vmulps	%ymm3, %ymm0, %ymm0
	vsubps	%ymm0, %ymm4, %ymm9
	vsubps	%ymm1, %ymm4, %ymm11
	vsubps	%ymm13, %ymm4, %ymm13
	vmulps	%ymm3, %ymm10, %ymm1
	vmulps	%ymm3, %ymm8, %ymm6
	vsubps	%ymm5, %ymm4, %ymm5
	vsubps	%ymm2, %ymm4, %ymm2
	vsubps	%ymm12, %ymm4, %ymm0
	vmulps	%ymm3, %ymm0, %ymm0
	vsubps	%ymm0, %ymm4, %ymm0
	vmulps	%ymm3, %ymm0, %ymm0
	vsubps	%ymm0, %ymm4, %ymm0
	vmulps	%ymm3, %ymm2, %ymm14
	vmulps	%ymm3, %ymm5, %ymm5
	vsubps	%ymm6, %ymm4, %ymm2
	vsubps	%ymm1, %ymm4, %ymm1
	vmulps	%ymm3, %ymm1, %ymm1
	vsubps	%ymm1, %ymm4, %ymm1
	vmulps	%ymm3, %ymm1, %ymm1
	vmulps	%ymm3, %ymm2, %ymm10
	vmulps	%ymm3, %ymm13, %ymm12
	vmulps	%ymm3, %ymm11, %ymm2
	vmulps	%ymm3, %ymm9, %ymm8
	vsubps	%ymm5, %ymm4, %ymm6
	vsubps	%ymm14, %ymm4, %ymm5
	vmulps	%ymm3, %ymm0, %ymm0
	vsubps	%ymm0, %ymm4, %ymm0
	vmulps	%ymm3, %ymm0, %ymm0
	vsubps	%ymm0, %ymm4, %ymm0
	vmulps	%ymm3, %ymm0, %ymm0
	vsubps	%ymm0, %ymm4, %ymm13
	vsubps	%ymm1, %ymm4, %ymm1
	vmulps	%ymm3, %ymm5, %ymm5
	vmulps	%ymm3, %ymm6, %ymm0
	vsubps	%ymm8, %ymm4, %ymm6
	vmulps	%ymm3, %ymm6, %ymm6
	vsubps	%ymm6, %ymm4, %ymm6
	vmulps	%ymm3, %ymm6, %ymm8
	vsubps	%ymm2, %ymm4, %ymm9
	vsubps	%ymm12, %ymm4, %ymm11
	vsubps	%ymm10, %ymm4, %ymm10
	vsubps	%ymm0, %ymm4, %ymm0
	vsubps	%ymm5, %ymm4, %ymm2
	vmulps	%ymm3, %ymm1, %ymm1
	vsubps	%ymm1, %ymm4, %ymm1
	vmulps	%ymm3, %ymm1, %ymm1
	vsubps	%ymm1, %ymm4, %ymm1
	vmulps	%ymm3, %ymm1, %ymm1
	vmulps	%ymm3, %ymm13, %ymm5
	vsubps	%ymm5, %ymm4, %ymm12
	vmulps	%ymm3, %ymm2, %ymm2
	vsubps	%ymm1, %ymm4, %ymm1
	vmulps	%ymm3, %ymm1, %ymm5
	vmulps	%ymm3, %ymm0, %ymm0
	vsubps	%ymm0, %ymm4, %ymm0
	vmulps	%ymm3, %ymm0, %ymm1
	vsubps	%ymm5, %ymm4, %ymm0
	vmulps	%ymm3, %ymm10, %ymm5
	vmulps	%ymm3, %ymm11, %ymm6
	vsubps	%ymm6, %ymm4, %ymm6
	vmulps	%ymm3, %ymm6, %ymm6
	vsubps	%ymm6, %ymm4, %ymm10
	vsubps	%ymm5, %ymm4, %ymm11
	vmulps	%ymm3, %ymm9, %ymm13
	vsubps	%ymm8, %ymm4, %ymm8
	vmulps	%ymm3, %ymm0, %ymm0
	vsubps	%ymm1, %ymm4, %ymm1
	vsubps	%ymm2, %ymm4, %ymm2
	vmulps	%ymm3, %ymm12, %ymm5
	vsubps	%ymm5, %ymm4, %ymm5
	vmulps	%ymm3, %ymm5, %ymm5
	vsubps	%ymm5, %ymm4, %ymm5
	vmulps	%ymm3, %ymm5, %ymm5
	vsubps	%ymm5, %ymm4, %ymm5
	vmulps	%ymm3, %ymm5, %ymm6
	vmulps	%ymm3, %ymm2, %ymm2
	vsubps	%ymm2, %ymm4, %ymm2
	vmulps	%ymm3, %ymm2, %ymm5
	vsubps	%ymm6, %ymm4, %ymm9
	vmulps	%ymm3, %ymm1, %ymm12
	vmulps	%ymm3, %ymm8, %ymm14
	vsubps	%ymm0, %ymm4, %ymm0
	vmulps	%ymm3, %ymm0, %ymm0
	vsubps	%ymm0, %ymm4, %ymm15
	vsubps	%ymm13, %ymm4, %ymm2
	vmulps	%ymm3, %ymm11, %ymm0
	vmulps	%ymm3, %ymm10, %ymm1
	vsubps	%ymm5, %ymm4, %ymm5
	vmulps	%ymm3, %ymm5, %ymm5
	vsubps	%ymm5, %ymm4, %ymm5
	vmulps	%ymm3, %ymm5, %ymm5
	vsubps	%ymm5, %ymm4, %ymm5
	vmulps	%ymm3, %ymm5, %ymm5
	vsubps	%ymm5, %ymm4, %ymm5
	vsubps	%ymm1, %ymm4, %ymm1
	vmulps	%ymm3, %ymm5, %ymm5
	vsubps	%ymm5, %ymm4, %ymm5
	vmulps	%ymm3, %ymm5, %ymm11
	vsubps	%ymm0, %ymm4, %ymm0
	vmulps	%ymm3, %ymm2, %ymm8
	vsubps	%ymm14, %ymm4, %ymm10
	vsubps	%ymm12, %ymm4, %ymm13
	vmulps	%ymm3, %ymm15, %ymm2
	vsubps	%ymm2, %ymm4, %ymm2
	vmulps	%ymm3, %ymm9, %ymm5
	vmulps	%ymm3, %ymm1, %ymm1
	vsubps	%ymm1, %ymm4, %ymm1
	vmulps	%ymm3, %ymm1, %ymm1
	vsubps	%ymm1, %ymm4, %ymm1
	vmulps	%ymm3, %ymm1, %ymm1
	vsubps	%ymm1, %ymm4, %ymm1
	vmulps	%ymm3, %ymm1, %ymm1
	vsubps	%ymm5, %ymm4, %ymm5
	vmulps	%ymm3, %ymm2, %ymm2
	vmulps	%ymm3, %ymm0, %ymm0
	vsubps	%ymm0, %ymm4, %ymm0
	vmulps	%ymm3, %ymm0, %ymm0
	vsubps	%ymm0, %ymm4, %ymm9
	vsubps	%ymm2, %ymm4, %ymm12
	vsubps	%ymm11, %ymm4, %ymm11
	vmulps	%ymm3, %ymm5, %ymm0
	vmulps	%ymm3, %ymm13, %ymm2
	vmulps	%ymm3, %ymm10, %ymm10
	vsubps	%ymm1, %ymm4, %ymm1
	vmulps	%ymm3, %ymm1, %ymm1
	vsubps	%ymm1, %ymm4, %ymm5
	vsubps	%ymm8, %ymm4, %ymm1
	vmulps	%ymm3, %ymm1, %ymm1
	vsubps	%ymm1, %ymm4, %ymm1
	vmulps	%ymm3, %ymm1, %ymm1
	vsubps	%ymm2, %ymm4, %ymm8
	vmulps	%ymm3, %ymm5, %ymm2
	vsubps	%ymm2, %ymm4, %ymm2
	vmulps	%ymm3, %ymm2, %ymm2
	vsubps	%ymm2, %ymm4, %ymm2
	vsubps	%ymm0, %ymm4, %ymm0
	vmulps	%ymm3, %ymm0, %ymm0
	vmulps	%ymm3, %ymm2, %ymm5
	vmulps	%ymm3, %ymm11, %ymm11
	vmulps	%ymm3, %ymm12, %ymm2
	vmulps	%ymm3, %ymm9, %ymm12
	vsubps	%ymm1, %ymm4, %ymm1
	vsubps	%ymm10, %ymm4, %ymm6
	vmulps	%ymm3, %ymm6, %ymm6
	vsubps	%ymm6, %ymm4, %ymm6
	vmulps	%ymm3, %ymm6, %ymm10
	vmulps	%ymm3, %ymm1, %ymm9
	vsubps	%ymm5, %ymm4, %ymm5
	vsubps	%ymm0, %ymm4, %ymm0
	vmulps	%ymm3, %ymm0, %ymm13
	vmulps	%ymm3, %ymm8, %ymm1
	vsubps	%ymm12, %ymm4, %ymm0
	vmulps	%ymm3, %ymm0, %ymm0
	vsubps	%ymm0, %ymm4, %ymm0
	vmulps	%ymm3, %ymm0, %ymm14
	vmulps	%ymm3, %ymm5, %ymm0
	vsubps	%ymm2, %ymm4, %ymm12
	vsubps	%ymm11, %ymm4, %ymm5
	vsubps	%ymm1, %ymm4, %ymm1
	vmulps	%ymm3, %ymm1, %ymm1
	vsubps	%ymm1, %ymm4, %ymm1
	vmulps	%ymm3, %ymm1, %ymm1
	vsubps	%ymm1, %ymm4, %ymm2
	vsubps	%ymm13, %ymm4, %ymm1
	vsubps	%ymm10, %ymm4, %ymm8
	vmulps	%ymm3, %ymm5, %ymm5
	vsubps	%ymm5, %ymm4, %ymm5
	vmulps	%ymm3, %ymm5, %ymm5
	vsubps	%ymm5, %ymm4, %ymm5
	vmulps	%ymm3, %ymm5, %ymm11
	vmulps	%ymm3, %ymm12, %ymm12
	vsubps	%ymm0, %ymm4, %ymm13
	vsubps	%ymm14, %ymm4, %ymm0
	vsubps	%ymm9, %ymm4, %ymm5
	vmulps	%ymm3, %ymm1, %ymm1
	vsubps	%ymm1, %ymm4, %ymm1
	vmulps	%ymm3, %ymm1, %ymm1
	vsubps	%ymm1, %ymm4, %ymm1
	vmulps	%ymm3, %ymm1, %ymm1
	vmulps	%ymm3, %ymm2, %ymm2
	vsubps	%ymm2, %ymm4, %ymm2
	vmulps	%ymm3, %ymm5, %ymm10
	vsubps	%ymm1, %ymm4, %ymm1
	vmulps	%ymm3, %ymm1, %ymm1
	vsubps	%ymm1, %ymm4, %ymm1
	vmulps	%ymm3, %ymm1, %ymm1
	vmulps	%ymm3, %ymm0, %ymm0
	vsubps	%ymm0, %ymm4, %ymm14
	vsubps	%ymm1, %ymm4, %ymm0
	vmulps	%ymm3, %ymm13, %ymm13
	vsubps	%ymm12, %ymm4, %ymm1
	vsubps	%ymm11, %ymm4, %ymm5
	vmulps	%ymm3, %ymm2, %ymm6
	vmulps	%ymm3, %ymm8, %ymm2
	vsubps	%ymm2, %ymm4, %ymm2
	vmulps	%ymm3, %ymm2, %ymm2
	vsubps	%ymm2, %ymm4, %ymm2
	vmulps	%ymm3, %ymm2, %ymm2
	vsubps	%ymm2, %ymm4, %ymm2
	vsubps	%ymm6, %ymm4, %ymm6
	vmulps	%ymm3, %ymm5, %ymm5
	vsubps	%ymm5, %ymm4, %ymm8
	vmulps	%ymm3, %ymm1, %ymm9
	vsubps	%ymm13, %ymm4, %ymm12
	vmulps	%ymm3, %ymm0, %ymm13
	vmulps	%ymm3, %ymm14, %ymm0
	vsubps	%ymm10, %ymm4, %ymm1
	vmulps	%ymm3, %ymm6, %ymm5
	vsubps	%ymm5, %ymm4, %ymm5
	vmulps	%ymm3, %ymm5, %ymm5
	vsubps	%ymm5, %ymm4, %ymm5
	vmulps	%ymm3, %ymm5, %ymm5
	vmulps	%ymm3, %ymm2, %ymm2
	vsubps	%ymm2, %ymm4, %ymm10
	vmulps	%ymm3, %ymm1, %ymm11
	vsubps	%ymm5, %ymm4, %ymm1
	vmulps	%ymm3, %ymm1, %ymm1
	vsubps	%ymm1, %ymm4, %ymm1
	vmulps	%ymm3, %ymm1, %ymm1
	vsubps	%ymm1, %ymm4, %ymm1
	vsubps	%ymm0, %ymm4, %ymm0
	vmulps	%ymm3, %ymm0, %ymm0
	vmulps	%ymm3, %ymm1, %ymm1
	vsubps	%ymm13, %ymm4, %ymm2
	vmulps	%ymm3, %ymm12, %ymm5
	vsubps	%ymm5, %ymm4, %ymm5
	vmulps	%ymm3, %ymm5, %ymm5
	vsubps	%ymm5, %ymm4, %ymm5
	vsubps	%ymm9, %ymm4, %ymm6
	vmulps	%ymm3, %ymm6, %ymm9
	vmulps	%ymm3, %ymm5, %ymm12
	vmulps	%ymm3, %ymm2, %ymm14
	vsubps	%ymm1, %ymm4, %ymm2
	vmulps	%ymm3, %ymm8, %ymm8
	vsubps	%ymm0, %ymm4, %ymm1
	vsubps	%ymm11, %ymm4, %ymm0
	vmulps	%ymm3, %ymm10, %ymm5
	vsubps	%ymm5, %ymm4, %ymm5
	vmulps	%ymm3, %ymm5, %ymm5
	vsubps	%ymm5, %ymm4, %ymm5
	vmulps	%ymm3, %ymm5, %ymm5
	vsubps	%ymm5, %ymm4, %ymm5
	vmulps	%ymm3, %ymm5, %ymm5
	vmulps	%ymm3, %ymm0, %ymm0
	vsubps	%ymm0, %ymm4, %ymm13
	vsubps	%ymm5, %ymm4, %ymm0
	vmulps	%ymm3, %ymm1, %ymm15
	vsubps	%ymm8, %ymm4, %ymm1
	vmulps	%ymm3, %ymm2, %ymm2
	vsubps	%ymm14, %ymm4, %ymm5
	vsubps	%ymm12, %ymm4, %ymm6
	vsubps	%ymm9, %ymm4, %ymm7
	vmulps	%ymm3, %ymm7, %ymm7
	vsubps	%ymm7, %ymm4, %ymm7
	vmulps	%ymm3, %ymm7, %ymm7
	vsubps	%ymm7, %ymm4, %ymm8
	vmulps	%ymm3, %ymm6, %ymm10
	vmulps	%ymm3, %ymm5, %ymm11
	vsubps	%ymm2, %ymm4, %ymm9
	vmulps	%ymm3, %ymm1, %ymm1
	vsubps	%ymm15, %ymm4, %ymm2
	vmulps	%ymm3, %ymm0, %ymm0
	vmulps	%ymm3, %ymm13, %ymm12
	vsubps	%ymm0, %ymm4, %ymm0
	vmulps	%ymm3, %ymm0, %ymm0
	vsubps	%ymm0, %ymm4, %ymm0
	vmulps	%ymm3, %ymm0, %ymm0
	vsubps	%ymm0, %ymm4, %ymm0
	vmulps	%ymm3, %ymm0, %ymm0
	vmulps	%ymm3, %ymm2, %ymm2
	vsubps	%ymm0, %ymm4, %ymm5
	vsubps	%ymm1, %ymm4, %ymm0
	vmulps	%ymm3, %ymm0, %ymm0
	vsubps	%ymm0, %ymm4, %ymm0
	vmulps	%ymm3, %ymm0, %ymm0
	vsubps	%ymm0, %ymm4, %ymm0
	vmulps	%ymm3, %ymm5, %ymm14
	vmulps	%ymm3, %ymm9, %ymm9
	vsubps	%ymm11, %ymm4, %ymm11
	vsubps	%ymm10, %ymm4, %ymm13
	vmulps	%ymm3, %ymm8, %ymm1
	vsubps	%ymm2, %ymm4, %ymm2
	vsubps	%ymm12, %ymm4, %ymm5
	vmulps	%ymm3, %ymm5, %ymm5
	vsubps	%ymm5, %ymm4, %ymm5
	vmulps	%ymm3, %ymm5, %ymm10
	vmulps	%ymm3, %ymm2, %ymm8
	vsubps	%ymm14, %ymm4, %ymm2
	vmulps	%ymm3, %ymm0, %ymm0
	vsubps	%ymm0, %ymm4, %ymm0
	vmulps	%ymm3, %ymm0, %ymm0
	vsubps	%ymm0, %ymm4, %ymm5
	vsubps	%ymm1, %ymm4, %ymm0
	vmulps	%ymm3, %ymm5, %ymm1
	vsubps	%ymm1, %ymm4, %ymm5
	vmulps	%ymm3, %ymm2, %ymm1
	vsubps	%ymm1, %ymm4, %ymm1
	vmulps	%ymm3, %ymm1, %ymm1
	vmulps	%ymm3, %ymm13, %ymm2
	vsubps	%ymm2, %ymm4, %ymm2
	vmulps	%ymm3, %ymm11, %ymm12
	vsubps	%ymm1, %ymm4, %ymm1
	vmulps	%ymm3, %ymm5, %ymm5
	vsubps	%ymm9, %ymm4, %ymm6
	vmulps	%ymm3, %ymm0, %ymm0
	vsubps	%ymm0, %ymm4, %ymm0
	vsubps	%ymm10, %ymm4, %ymm7
	vmulps	%ymm3, %ymm7, %ymm7
	vsubps	%ymm7, %ymm4, %ymm7
	vmulps	%ymm3, %ymm7, %ymm9
	vmulps	%ymm3, %ymm0, %ymm11
	vmulps	%ymm3, %ymm6, %ymm0
	vsubps	%ymm5, %ymm4, %ymm13
	vsubps	%ymm12, %ymm4, %ymm12
	vmulps	%ymm3, %ymm1, %ymm1
	vmulps	%ymm3, %ymm2, %ymm2
	vsubps	%ymm8, %ymm4, %ymm5
	vmulps	%ymm3, %ymm5, %ymm5
	vsubps	%ymm5, %ymm4, %ymm5
	vmulps	%ymm3, %ymm5, %ymm5
	vsubps	%ymm5, %ymm4, %ymm5
	vmulps	%ymm3, %ymm5, %ymm5
	vsubps	%ymm5, %ymm4, %ymm8
	vsubps	%ymm2, %ymm4, %ymm10
	vmulps	%ymm3, %ymm12, %ymm14
	vsubps	%ymm1, %ymm4, %ymm12
	vmulps	%ymm3, %ymm13, %ymm1
	vsubps	%ymm0, %ymm4, %ymm0
	vsubps	%ymm11, %ymm4, %ymm2
	vsubps	%ymm9, %ymm4, %ymm5
	vmulps	%ymm3, %ymm5, %ymm5
	vsubps	%ymm5, %ymm4, %ymm5
	vmulps	%ymm3, %ymm5, %ymm5
	vsubps	%ymm5, %ymm4, %ymm5
	vmulps	%ymm3, %ymm5, %ymm5
	vsubps	%ymm5, %ymm4, %ymm9
	vmulps	%ymm3, %ymm2, %ymm13
	vmulps	%ymm3, %ymm0, %ymm2
	vsubps	%ymm1, %ymm4, %ymm1
	vsubps	%ymm14, %ymm4, %ymm11
	vmulps	%ymm3, %ymm12, %ymm12
	vmulps	%ymm3, %ymm10, %ymm0
	vmulps	%ymm3, %ymm8, %ymm5
	vsubps	%ymm5, %ymm4, %ymm5
	vmulps	%ymm3, %ymm5, %ymm5
	vsubps	%ymm5, %ymm4, %ymm5
	vmulps	%ymm3, %ymm5, %ymm5
	vsubps	%ymm5, %ymm4, %ymm5
	vmulps	%ymm3, %ymm5, %ymm10
	vsubps	%ymm0, %ymm4, %ymm0
	vmulps	%ymm3, %ymm11, %ymm8
	vmulps	%ymm3, %ymm1, %ymm11
	vsubps	%ymm12, %ymm4, %ymm12
	vsubps	%ymm2, %ymm4, %ymm14
	vsubps	%ymm13, %ymm4, %ymm1
	vmulps	%ymm3, %ymm9, %ymm2
	vsubps	%ymm2, %ymm4, %ymm2
	vmulps	%ymm3, %ymm2, %ymm2
	vsubps	%ymm2, %ymm4, %ymm2
	vmulps	%ymm3, %ymm2, %ymm2
	vsubps	%ymm2, %ymm4, %ymm2
	vmulps	%ymm3, %ymm2, %ymm2
	vmulps	%ymm3, %ymm1, %ymm9
	vsubps	%ymm2, %ymm4, %ymm1
	vmulps	%ymm3, %ymm1, %ymm1
	vmulps	%ymm3, %ymm0, %ymm0
	vsubps	%ymm0, %ymm4, %ymm0
	vmulps	%ymm3, %ymm0, %ymm2
	vmulps	%ymm3, %ymm14, %ymm0
	vsubps	%ymm1, %ymm4, %ymm13
	vmulps	%ymm3, %ymm12, %ymm1
	vsubps	%ymm10, %ymm4, %ymm5
	vsubps	%ymm11, %ymm4, %ymm6
	vsubps	%ymm8, %ymm4, %ymm7
	vmulps	%ymm3, %ymm7, %ymm7
	vsubps	%ymm7, %ymm4, %ymm7
	vmulps	%ymm3, %ymm7, %ymm7
	vsubps	%ymm7, %ymm4, %ymm7
	vmulps	%ymm3, %ymm7, %ymm11
	vmulps	%ymm3, %ymm6, %ymm8
	vmulps	%ymm3, %ymm5, %ymm10
	vsubps	%ymm1, %ymm4, %ymm12
	vsubps	%ymm0, %ymm4, %ymm0
	vmulps	%ymm3, %ymm13, %ymm5
	vsubps	%ymm2, %ymm4, %ymm1
	vsubps	%ymm9, %ymm4, %ymm2
	vmulps	%ymm3, %ymm2, %ymm2
	vsubps	%ymm2, %ymm4, %ymm2
	vmulps	%ymm3, %ymm2, %ymm2
	vsubps	%ymm2, %ymm4, %ymm2
	vmulps	%ymm3, %ymm2, %ymm2
	vsubps	%ymm2, %ymm4, %ymm14
	vmulps	%ymm3, %ymm1, %ymm1
	vsubps	%ymm5, %ymm4, %ymm2
	vsubps	%ymm11, %ymm4, %ymm5
	vmulps	%ymm3, %ymm5, %ymm5
	vsubps	%ymm5, %ymm4, %ymm5
	vmulps	%ymm3, %ymm5, %ymm5
	vmulps	%ymm3, %ymm0, %ymm0
	vsubps	%ymm0, %ymm4, %ymm9
	vsubps	%ymm5, %ymm4, %ymm11
	vmulps	%ymm3, %ymm2, %ymm13
	vmulps	%ymm3, %ymm12, %ymm15
	vsubps	%ymm10, %ymm4, %ymm2
	vsubps	%ymm8, %ymm4, %ymm0
	vsubps	%ymm1, %ymm4, %ymm1
	vmulps	%ymm3, %ymm14, %ymm5
	vsubps	%ymm5, %ymm4, %ymm5
	vmulps	%ymm3, %ymm5, %ymm5
	vsubps	%ymm5, %ymm4, %ymm5
	vmulps	%ymm3, %ymm5, %ymm5
	vsubps	%ymm5, %ymm4, %ymm5
	vmulps	%ymm3, %ymm5, %ymm5
	vmulps	%ymm3, %ymm1, %ymm1
	vsubps	%ymm1, %ymm4, %ymm1
	vmulps	%ymm3, %ymm1, %ymm1
	vsubps	%ymm1, %ymm4, %ymm12
	vsubps	%ymm5, %ymm4, %ymm14
	vmulps	%ymm3, %ymm0, %ymm0
	vmulps	%ymm3, %ymm2, %ymm2
	vsubps	%ymm15, %ymm4, %ymm1
	vsubps	%ymm13, %ymm4, %ymm5
	vmulps	%ymm3, %ymm11, %ymm6
	vmulps	%ymm3, %ymm9, %ymm7
	vsubps	%ymm7, %ymm4, %ymm7
	vmulps	%ymm3, %ymm7, %ymm7
	vsubps	%ymm7, %ymm4, %ymm7
	vmulps	%ymm3, %ymm7, %ymm7
	vsubps	%ymm7, %ymm4, %ymm7
	vmulps	%ymm3, %ymm7, %ymm8
	vsubps	%ymm6, %ymm4, %ymm9
	vmulps	%ymm3, %ymm5, %ymm10
	vmulps	%ymm3, %ymm1, %ymm11
	vsubps	%ymm2, %ymm4, %ymm2
	vsubps	%ymm0, %ymm4, %ymm0
	vmulps	%ymm3, %ymm14, %ymm1
	vmulps	%ymm3, %ymm12, %ymm5
	vsubps	%ymm5, %ymm4, %ymm5
	vmulps	%ymm3, %ymm5, %ymm5
	vsubps	%ymm5, %ymm4, %ymm5
	vmulps	%ymm3, %ymm5, %ymm5
	vsubps	%ymm5, %ymm4, %ymm5
	vmulps	%ymm3, %ymm5, %ymm12
	vsubps	%ymm1, %ymm4, %ymm1
	vmulps	%ymm3, %ymm1, %ymm5
	vmulps	%ymm3, %ymm0, %ymm0
	vsubps	%ymm0, %ymm4, %ymm0
	vmulps	%ymm3, %ymm0, %ymm1
	vmulps	%ymm3, %ymm2, %ymm6
	vsubps	%ymm5, %ymm4, %ymm5
	vsubps	%ymm12, %ymm4, %ymm0
	vsubps	%ymm11, %ymm4, %ymm2
	vmulps	%ymm3, %ymm2, %ymm12
	vmulps	%ymm3, %ymm0, %ymm13
	vsubps	%ymm10, %ymm4, %ymm10
	vmulps	%ymm3, %ymm9, %ymm0
	vsubps	%ymm8, %ymm4, %ymm2
	vsubps	%ymm6, %ymm4, %ymm8
	vmulps	%ymm3, %ymm5, %ymm6
	vsubps	%ymm1, %ymm4, %ymm1
	vmulps	%ymm3, %ymm1, %ymm1
	vsubps	%ymm1, %ymm4, %ymm1
	vmulps	%ymm3, %ymm1, %ymm1
	vsubps	%ymm1, %ymm4, %ymm1
	vmulps	%ymm3, %ymm1, %ymm9
	vmulps	%ymm3, %ymm2, %ymm5
	vsubps	%ymm6, %ymm4, %ymm1
	vsubps	%ymm0, %ymm4, %ymm0
	vmulps	%ymm3, %ymm0, %ymm0
	vsubps	%ymm0, %ymm4, %ymm0
	vmulps	%ymm3, %ymm0, %ymm2
	vmulps	%ymm3, %ymm1, %ymm1
	vmulps	%ymm3, %ymm10, %ymm11
	vsubps	%ymm13, %ymm4, %ymm14
	vsubps	%ymm12, %ymm4, %ymm0
	vsubps	%ymm5, %ymm4, %ymm13
	vmulps	%ymm3, %ymm8, %ymm15
	vsubps	%ymm9, %ymm4, %ymm5
	vmulps	%ymm3, %ymm5, %ymm5
	vsubps	%ymm5, %ymm4, %ymm5
	vmulps	%ymm3, %ymm5, %ymm5
	vsubps	%ymm5, %ymm4, %ymm5
	vmulps	%ymm3, %ymm5, %ymm5
	vsubps	%ymm5, %ymm4, %ymm5
	vsubps	%ymm1, %ymm4, %ymm1
	vsubps	%ymm2, %ymm4, %ymm2
	vmulps	%ymm3, %ymm2, %ymm2
	vsubps	%ymm2, %ymm4, %ymm2
	vmulps	%ymm3, %ymm2, %ymm6
	vmulps	%ymm3, %ymm0, %ymm0
	vsubps	%ymm0, %ymm4, %ymm2
	vsubps	%ymm6, %ymm4, %ymm8
	vmulps	%ymm3, %ymm1, %ymm9
	vmulps	%ymm3, %ymm5, %ymm10
	vmulps	%ymm3, %ymm14, %ymm12
	vsubps	%ymm11, %ymm4, %ymm0
	vsubps	%ymm15, %ymm4, %ymm1
	vmulps	%ymm3, %ymm13, %ymm5
	vsubps	%ymm5, %ymm4, %ymm5
	vmulps	%ymm3, %ymm5, %ymm5
	vsubps	%ymm5, %ymm4, %ymm5
	vmulps	%ymm3, %ymm5, %ymm5
	vsubps	%ymm5, %ymm4, %ymm5
	vmulps	%ymm3, %ymm5, %ymm5
	vmulps	%ymm3, %ymm1, %ymm13
	vsubps	%ymm5, %ymm4, %ymm1
	vmulps	%ymm3, %ymm1, %ymm5
	vmulps	%ymm3, %ymm2, %ymm1
	vsubps	%ymm1, %ymm4, %ymm1
	vmulps	%ymm3, %ymm1, %ymm1
	vmulps	%ymm3, %ymm0, %ymm11
	vsubps	%ymm5, %ymm4, %ymm0
	vmulps	%ymm3, %ymm0, %ymm0
	vsubps	%ymm0, %ymm4, %ymm0
	vmulps	%ymm3, %ymm0, %ymm0
	vsubps	%ymm0, %ymm4, %ymm0
	vsubps	%ymm12, %ymm4, %ymm2
	vmulps	%ymm3, %ymm2, %ymm2
	vmulps	%ymm3, %ymm0, %ymm12
	vsubps	%ymm10, %ymm4, %ymm14
	vsubps	%ymm9, %ymm4, %ymm5
	vmulps	%ymm3, %ymm8, %ymm0
	vsubps	%ymm1, %ymm4, %ymm1
	vmulps	%ymm3, %ymm1, %ymm1
	vsubps	%ymm1, %ymm4, %ymm1
	vsubps	%ymm13, %ymm4, %ymm6
	vmulps	%ymm3, %ymm6, %ymm6
	vsubps	%ymm6, %ymm4, %ymm9
	vmulps	%ymm3, %ymm1, %ymm10
	vsubps	%ymm0, %ymm4, %ymm0
	vmulps	%ymm3, %ymm5, %ymm13
	vmulps	%ymm3, %ymm14, %ymm14
	vsubps	%ymm12, %ymm4, %ymm1
	vsubps	%ymm2, %ymm4, %ymm2
	vsubps	%ymm11, %ymm4, %ymm5
	vmulps	%ymm3, %ymm5, %ymm5
	vsubps	%ymm5, %ymm4, %ymm5
	vmulps	%ymm3, %ymm5, %ymm5
	vsubps	%ymm5, %ymm4, %ymm5
	vmulps	%ymm3, %ymm5, %ymm5
	vsubps	%ymm5, %ymm4, %ymm8
	vmulps	%ymm3, %ymm2, %ymm12
	vmulps	%ymm3, %ymm1, %ymm1
	vsubps	%ymm14, %ymm4, %ymm11
	vsubps	%ymm13, %ymm4, %ymm14
	vmulps	%ymm3, %ymm0, %ymm0
	vsubps	%ymm10, %ymm4, %ymm5
	vmulps	%ymm3, %ymm9, %ymm2
	vsubps	%ymm2, %ymm4, %ymm2
	vmulps	%ymm3, %ymm2, %ymm2
	vsubps	%ymm2, %ymm4, %ymm2
	vmulps	%ymm3, %ymm2, %ymm2
	vsubps	%ymm2, %ymm4, %ymm2
	vmulps	%ymm3, %ymm2, %ymm2
	vmulps	%ymm3, %ymm5, %ymm10
	vsubps	%ymm1, %ymm4, %ymm1
	vsubps	%ymm0, %ymm4, %ymm0
	vmulps	%ymm3, %ymm0, %ymm0
	vsubps	%ymm0, %ymm4, %ymm0
	vmulps	%ymm3, %ymm0, %ymm9
	vsubps	%ymm12, %ymm4, %ymm13
	vmulps	%ymm3, %ymm1, %ymm12
	vmulps	%ymm3, %ymm14, %ymm0
	vmulps	%ymm3, %ymm11, %ymm11
	vmulps	%ymm3, %ymm8, %ymm1
	vsubps	%ymm2, %ymm4, %ymm2
	vmulps	%ymm3, %ymm2, %ymm2
	vsubps	%ymm2, %ymm4, %ymm2
	vmulps	%ymm3, %ymm2, %ymm2
	vsubps	%ymm2, %ymm4, %ymm2
	vmulps	%ymm3, %ymm2, %ymm2
	vsubps	%ymm2, %ymm4, %ymm5
	vsubps	%ymm1, %ymm4, %ymm1
	vmulps	%ymm3, %ymm1, %ymm1
	vsubps	%ymm1, %ymm4, %ymm2
	vsubps	%ymm10, %ymm4, %ymm6
	vmulps	%ymm3, %ymm5, %ymm10
	vsubps	%ymm11, %ymm4, %ymm11
	vsubps	%ymm0, %ymm4, %ymm0
	vmulps	%ymm3, %ymm13, %ymm8
	vsubps	%ymm12, %ymm4, %ymm1
	vmulps	%ymm3, %ymm1, %ymm1
	vsubps	%ymm9, %ymm4, %ymm5
	vmulps	%ymm3, %ymm6, %ymm6
	vsubps	%ymm6, %ymm4, %ymm6
	vmulps	%ymm3, %ymm6, %ymm6
	vsubps	%ymm6, %ymm4, %ymm6
	vmulps	%ymm3, %ymm6, %ymm6
	vsubps	%ymm6, %ymm4, %ymm13
	vmulps	%ymm3, %ymm2, %ymm6
	vmulps	%ymm3, %ymm5, %ymm9
	vsubps	%ymm8, %ymm4, %ymm12
	vmulps	%ymm3, %ymm0, %ymm8
	vsubps	%ymm1, %ymm4, %ymm0
	vmulps	%ymm3, %ymm0, %ymm0
	vsubps	%ymm0, %ymm4, %ymm2
	vmulps	%ymm3, %ymm11, %ymm5
	vsubps	%ymm10, %ymm4, %ymm10
	vsubps	%ymm6, %ymm4, %ymm0
	vmulps	%ymm3, %ymm0, %ymm0
	vsubps	%ymm0, %ymm4, %ymm0
	vmulps	%ymm3, %ymm0, %ymm0
	vsubps	%ymm0, %ymm4, %ymm0
	vmulps	%ymm3, %ymm0, %ymm0
	vmulps	%ymm3, %ymm13, %ymm1
	vmulps	%ymm3, %ymm10, %ymm6
	vsubps	%ymm5, %ymm4, %ymm5
	vmulps	%ymm3, %ymm5, %ymm5
	vmulps	%ymm3, %ymm12, %ymm7
	vsubps	%ymm7, %ymm4, %ymm11
	vsubps	%ymm5, %ymm4, %ymm13
	vsubps	%ymm9, %ymm4, %ymm9
	vmulps	%ymm3, %ymm2, %ymm2
	vsubps	%ymm6, %ymm4, %ymm5
	vsubps	%ymm1, %ymm4, %ymm1
	vmulps	%ymm3, %ymm1, %ymm1
	vsubps	%ymm1, %ymm4, %ymm1
	vmulps	%ymm3, %ymm1, %ymm1
	vsubps	%ymm1, %ymm4, %ymm10
	vsubps	%ymm0, %ymm4, %ymm12
	vsubps	%ymm8, %ymm4, %ymm8
	vmulps	%ymm3, %ymm5, %ymm0
	vsubps	%ymm0, %ymm4, %ymm0
	vmulps	%ymm3, %ymm0, %ymm0
	vsubps	%ymm0, %ymm4, %ymm0
	vmulps	%ymm3, %ymm0, %ymm0
	vsubps	%ymm0, %ymm4, %ymm0
	vsubps	%ymm2, %ymm4, %ymm1
	vmulps	%ymm3, %ymm13, %ymm2
	vmulps	%ymm3, %ymm11, %ymm5
	vsubps	%ymm5, %ymm4, %ymm5
	vmulps	%ymm3, %ymm5, %ymm5
	vsubps	%ymm5, %ymm4, %ymm5
	vmulps	%ymm3, %ymm5, %ymm11
	vsubps	%ymm2, %ymm4, %ymm2
	vmulps	%ymm3, %ymm1, %ymm14
	vmulps	%ymm3, %ymm0, %ymm1
	vmulps	%ymm3, %ymm12, %ymm5
	vmulps	%ymm3, %ymm10, %ymm0
	vmulps	%ymm3, %ymm9, %ymm6
	vsubps	%ymm6, %ymm4, %ymm6
	vmulps	%ymm3, %ymm6, %ymm6
	vsubps	%ymm6, %ymm4, %ymm6
	vmulps	%ymm3, %ymm6, %ymm6
	vsubps	%ymm6, %ymm4, %ymm6
	vmulps	%ymm3, %ymm6, %ymm10
	vsubps	%ymm0, %ymm4, %ymm0
	vsubps	%ymm5, %ymm4, %ymm13
	vsubps	%ymm1, %ymm4, %ymm1
	vsubps	%ymm14, %ymm4, %ymm5
	vmulps	%ymm3, %ymm2, %ymm2
	vsubps	%ymm11, %ymm4, %ymm6
	vmulps	%ymm3, %ymm6, %ymm6
	vmulps	%ymm3, %ymm8, %ymm7
	vsubps	%ymm7, %ymm4, %ymm7
	vmulps	%ymm3, %ymm7, %ymm7
	vsubps	%ymm7, %ymm4, %ymm9
	vsubps	%ymm6, %ymm4, %ymm12
	vsubps	%ymm2, %ymm4, %ymm2
	vmulps	%ymm3, %ymm5, %ymm14
	vmulps	%ymm3, %ymm1, %ymm1
	vmulps	%ymm3, %ymm13, %ymm5
	vmulps	%ymm3, %ymm0, %ymm0
	vsubps	%ymm10, %ymm4, %ymm6
	vmulps	%ymm3, %ymm6, %ymm6
	vsubps	%ymm6, %ymm4, %ymm6
	vmulps	%ymm3, %ymm6, %ymm6
	vsubps	%ymm6, %ymm4, %ymm6
	vmulps	%ymm3, %ymm6, %ymm6
	vsubps	%ymm6, %ymm4, %ymm13
	vsubps	%ymm0, %ymm4, %ymm8
	vsubps	%ymm5, %ymm4, %ymm10
	vsubps	%ymm1, %ymm4, %ymm11
	vsubps	%ymm14, %ymm4, %ymm0
	vmulps	%ymm3, %ymm2, %ymm2
	vmulps	%ymm3, %ymm12, %ymm5
	vmulps	%ymm3, %ymm9, %ymm1
	vsubps	%ymm1, %ymm4, %ymm1
	vmulps	%ymm3, %ymm1, %ymm1
	vsubps	%ymm1, %ymm4, %ymm1
	vmulps	%ymm3, %ymm1, %ymm1
	vsubps	%ymm1, %ymm4, %ymm1
	vmulps	%ymm3, %ymm1, %ymm1
	vsubps	%ymm5, %ymm4, %ymm9
	vmulps	%ymm3, %ymm13, %ymm5
	vsubps	%ymm2, %ymm4, %ymm2
	vmulps	%ymm3, %ymm2, %ymm2
	vsubps	%ymm2, %ymm4, %ymm2
	vmulps	%ymm3, %ymm2, %ymm2
	vmulps	%ymm3, %ymm0, %ymm0
	vmulps	%ymm3, %ymm11, %ymm12
	vmulps	%ymm3, %ymm10, %ymm10
	vsubps	%ymm5, %ymm4, %ymm5
	vsubps	%ymm1, %ymm4, %ymm1
	vmulps	%ymm3, %ymm1, %ymm1
	vmulps	%ymm3, %ymm5, %ymm5
	vmulps	%ymm3, %ymm8, %ymm6
	vsubps	%ymm6, %ymm4, %ymm6
	vmulps	%ymm3, %ymm6, %ymm6
	vsubps	%ymm6, %ymm4, %ymm6
	vmulps	%ymm3, %ymm6, %ymm6
	vsubps	%ymm6, %ymm4, %ymm8
	vsubps	%ymm5, %ymm4, %ymm11
	vsubps	%ymm12, %ymm4, %ymm12
	vsubps	%ymm0, %ymm4, %ymm13
	vsubps	%ymm2, %ymm4, %ymm0
	vmulps	%ymm3, %ymm9, %ymm2
	vsubps	%ymm1, %ymm4, %ymm1
	vmulps	%ymm3, %ymm1, %ymm1
	vsubps	%ymm1, %ymm4, %ymm1
	vmulps	%ymm3, %ymm1, %ymm1
	vsubps	%ymm1, %ymm4, %ymm1
	vsubps	%ymm10, %ymm4, %ymm5
	vmulps	%ymm3, %ymm5, %ymm9
	vsubps	%ymm2, %ymm4, %ymm10
	vmulps	%ymm3, %ymm1, %ymm1
	vsubps	%ymm1, %ymm4, %ymm1
	vmulps	%ymm3, %ymm1, %ymm1
	vsubps	%ymm1, %ymm4, %ymm1
	vmulps	%ymm3, %ymm1, %ymm1
	vmulps	%ymm3, %ymm0, %ymm0
	vsubps	%ymm0, %ymm4, %ymm0
	vmulps	%ymm3, %ymm13, %ymm2
	vsubps	%ymm1, %ymm4, %ymm1
	vmulps	%ymm3, %ymm12, %ymm5
	vmulps	%ymm3, %ymm11, %ymm6
	vmulps	%ymm3, %ymm8, %ymm7
	vsubps	%ymm7, %ymm4, %ymm7
	vmulps	%ymm3, %ymm7, %ymm7
	vsubps	%ymm7, %ymm4, %ymm7
	vmulps	%ymm3, %ymm7, %ymm7
	vsubps	%ymm7, %ymm4, %ymm7
	vmulps	%ymm3, %ymm7, %ymm12
	vsubps	%ymm6, %ymm4, %ymm8
	vsubps	%ymm5, %ymm4, %ymm11
	vsubps	%ymm2, %ymm4, %ymm13
	vmulps	%ymm3, %ymm1, %ymm2
	vmulps	%ymm3, %ymm0, %ymm15
	vmulps	%ymm3, %ymm10, %ymm0
	vsubps	%ymm9, %ymm4, %ymm1
	vmulps	%ymm3, %ymm1, %ymm1
	vsubps	%ymm1, %ymm4, %ymm1
	vmulps	%ymm3, %ymm1, %ymm1
	vsubps	%ymm1, %ymm4, %ymm1
	vmulps	%ymm3, %ymm1, %ymm1
	vsubps	%ymm1, %ymm4, %ymm1
	vsubps	%ymm0, %ymm4, %ymm0
	vmulps	%ymm3, %ymm0, %ymm0
	vsubps	%ymm0, %ymm4, %ymm0
	vmulps	%ymm3, %ymm0, %ymm0
	vmulps	%ymm3, %ymm1, %ymm14
	vsubps	%ymm15, %ymm4, %ymm1
	vmulps	%ymm3, %ymm13, %ymm9
	vsubps	%ymm2, %ymm4, %ymm2
	vmulps	%ymm3, %ymm2, %ymm5
	vsubps	%ymm12, %ymm4, %ymm2
	vmulps	%ymm3, %ymm2, %ymm2
	vmulps	%ymm3, %ymm11, %ymm6
	vsubps	%ymm6, %ymm4, %ymm6
	vmulps	%ymm3, %ymm6, %ymm10
	vmulps	%ymm3, %ymm1, %ymm12
	vsubps	%ymm2, %ymm4, %ymm2
	vsubps	%ymm5, %ymm4, %ymm1
	vmulps	%ymm3, %ymm8, %ymm5
	vsubps	%ymm14, %ymm4, %ymm6
	vsubps	%ymm0, %ymm4, %ymm0
	vmulps	%ymm3, %ymm0, %ymm0
	vsubps	%ymm0, %ymm4, %ymm0
	vmulps	%ymm3, %ymm0, %ymm0
	vsubps	%ymm0, %ymm4, %ymm0
	vmulps	%ymm3, %ymm0, %ymm0
	vsubps	%ymm0, %ymm4, %ymm11
	vmulps	%ymm3, %ymm6, %ymm13
	vsubps	%ymm5, %ymm4, %ymm0
	vsubps	%ymm12, %ymm4, %ymm8
	vmulps	%ymm3, %ymm1, %ymm1
	vmulps	%ymm3, %ymm2, %ymm2
	vsubps	%ymm10, %ymm4, %ymm5
	vsubps	%ymm9, %ymm4, %ymm6
	vmulps	%ymm3, %ymm6, %ymm6
	vsubps	%ymm6, %ymm4, %ymm6
	vmulps	%ymm3, %ymm6, %ymm6
	vsubps	%ymm6, %ymm4, %ymm6
	vmulps	%ymm3, %ymm6, %ymm6
	vsubps	%ymm6, %ymm4, %ymm9
	vmulps	%ymm3, %ymm5, %ymm10
	vmulps	%ymm3, %ymm8, %ymm8
	vsubps	%ymm2, %ymm4, %ymm12
	vsubps	%ymm1, %ymm4, %ymm2
	vmulps	%ymm3, %ymm0, %ymm0
	vsubps	%ymm13, %ymm4, %ymm1
