	.file	"/tmp/3e436228-7ef0-4190-8274-e7e3673194e1.TMP"
	.text
	.globl	flops_16
	.align	16, 0x90
	.type	flops_16,@function
flops_16:                               # @flops_16
.Ltmp3:
	.cfi_startproc
# BB#0:                                 # %entry
	pushq	%rbp
.Ltmp4:
	.cfi_def_cfa_offset 16
.Ltmp5:
	.cfi_offset %rbp, -16
	movq	%rsp, %rbp
.Ltmp6:
	.cfi_def_cfa_register %rbp
	pushq	%r15
	pushq	%r14
	pushq	%r13
	pushq	%r12
	pushq	%rbx
.Ltmp7:
	.cfi_offset %rbx, -56
.Ltmp8:
	.cfi_offset %r12, -48
.Ltmp9:
	.cfi_offset %r13, -40
.Ltmp10:
	.cfi_offset %r14, -32
.Ltmp11:
	.cfi_offset %r15, -24
	vbroadcastss	28(%rdi), %ymm0
	vbroadcastss	24(%rdi), %ymm1
	movl	20(%rdi), %r13d
	movq	32(%rdi), %rax
	movq	48(%rdi), %rcx
	movl	16(%rdi), %r8d
	xorl	%r10d, %r10d
	movq	(%rdi), %r12
	movq	8(%rdi), %rdi
	movq	(%rcx), %r9
	movq	8(%rcx), %r14
	movq	56(%rax), %r15
	movq	64(%rax), %r11
	.align	16, 0x90
.LBB0_1:                                # %dim_0_pre_head.i
                                        # =>This Loop Header: Depth=1
                                        #     Child Loop BB0_2 Depth 2
                                        #       Child Loop BB0_3 Depth 3
	movl	%r14d, %ebx
	imull	%r8d, %ebx
	xorl	%ecx, %ecx
	movq	%r9, %rdx
	.align	16, 0x90
.LBB0_2:                                # %scalar_kernel_entry.i
                                        #   Parent Loop BB0_1 Depth=1
                                        # =>  This Loop Header: Depth=2
                                        #       Child Loop BB0_3 Depth 3
	movq	%rdx, %rax
	shlq	$4, %rax
	addl	%ebx, %eax
	movslq	%eax, %rsi
	vmovups	32(%r12,%rsi,4), %ymm2
	vmovups	(%r12,%rsi,4), %ymm3
	testl	%r13d, %r13d
	movl	%r13d, %eax
	jle	.LBB0_4
	.align	16, 0x90
.LBB0_3:                                # %.lr.ph.i
                                        #   Parent Loop BB0_1 Depth=1
                                        #     Parent Loop BB0_2 Depth=2
                                        # =>    This Inner Loop Header: Depth=3
	vmulps	%ymm0, %ymm3, %ymm3
	vsubps	%ymm3, %ymm1, %ymm3
	vmulps	%ymm0, %ymm3, %ymm3
	vsubps	%ymm3, %ymm1, %ymm3
	vmulps	%ymm0, %ymm3, %ymm3
	vsubps	%ymm3, %ymm1, %ymm3
	vmulps	%ymm0, %ymm2, %ymm2
	vsubps	%ymm2, %ymm1, %ymm2
	vmulps	%ymm0, %ymm2, %ymm2
	vsubps	%ymm2, %ymm1, %ymm2
	vmulps	%ymm0, %ymm2, %ymm2
	vmulps	%ymm0, %ymm3, %ymm3
	decl	%eax
	vsubps	%ymm3, %ymm1, %ymm3
	vmulps	%ymm0, %ymm3, %ymm3
	vsubps	%ymm3, %ymm1, %ymm3
	vmulps	%ymm0, %ymm3, %ymm3
	vsubps	%ymm3, %ymm1, %ymm3
	vsubps	%ymm2, %ymm1, %ymm2
	vmulps	%ymm0, %ymm2, %ymm2
	vsubps	%ymm2, %ymm1, %ymm2
	vmulps	%ymm0, %ymm2, %ymm2
	vsubps	%ymm2, %ymm1, %ymm2
	vmulps	%ymm0, %ymm2, %ymm2
	vsubps	%ymm2, %ymm1, %ymm2
	vmulps	%ymm0, %ymm3, %ymm3
	vsubps	%ymm3, %ymm1, %ymm3
	vmulps	%ymm0, %ymm3, %ymm3
	vsubps	%ymm3, %ymm1, %ymm3
	vmulps	%ymm0, %ymm3, %ymm3
	vsubps	%ymm3, %ymm1, %ymm3
	vmulps	%ymm0, %ymm3, %ymm3
	vmulps	%ymm0, %ymm2, %ymm2
	vsubps	%ymm2, %ymm1, %ymm2
	vmulps	%ymm0, %ymm2, %ymm2
	vsubps	%ymm2, %ymm1, %ymm2
	vmulps	%ymm0, %ymm2, %ymm2
	vsubps	%ymm2, %ymm1, %ymm2
	vmulps	%ymm0, %ymm2, %ymm2
	vsubps	%ymm3, %ymm1, %ymm3
	vmulps	%ymm0, %ymm3, %ymm3
	vsubps	%ymm3, %ymm1, %ymm3
	vmulps	%ymm0, %ymm3, %ymm3
	vsubps	%ymm3, %ymm1, %ymm3
	vmulps	%ymm0, %ymm3, %ymm3
	vsubps	%ymm3, %ymm1, %ymm3
	vsubps	%ymm2, %ymm1, %ymm2
	vmulps	%ymm0, %ymm2, %ymm2
	vsubps	%ymm2, %ymm1, %ymm2
	vmulps	%ymm0, %ymm2, %ymm2
	vsubps	%ymm2, %ymm1, %ymm2
	vmulps	%ymm0, %ymm2, %ymm2
	vsubps	%ymm2, %ymm1, %ymm2
	vmulps	%ymm0, %ymm3, %ymm3
	vsubps	%ymm3, %ymm1, %ymm3
	vmulps	%ymm0, %ymm3, %ymm3
	vsubps	%ymm3, %ymm1, %ymm3
	vmulps	%ymm0, %ymm3, %ymm3
	vsubps	%ymm3, %ymm1, %ymm3
	vmulps	%ymm0, %ymm3, %ymm3
	vmulps	%ymm0, %ymm2, %ymm2
	vsubps	%ymm2, %ymm1, %ymm2
	vmulps	%ymm0, %ymm2, %ymm2
	vsubps	%ymm2, %ymm1, %ymm2
	vmulps	%ymm0, %ymm2, %ymm2
	vsubps	%ymm2, %ymm1, %ymm2
	vmulps	%ymm0, %ymm2, %ymm2
	vsubps	%ymm3, %ymm1, %ymm3
	vmulps	%ymm0, %ymm3, %ymm3
	vsubps	%ymm3, %ymm1, %ymm3
	vmulps	%ymm0, %ymm3, %ymm3
	vsubps	%ymm3, %ymm1, %ymm3
	vmulps	%ymm0, %ymm3, %ymm3
	vsubps	%ymm3, %ymm1, %ymm3
	vsubps	%ymm2, %ymm1, %ymm2
	vmulps	%ymm0, %ymm2, %ymm2
	vsubps	%ymm2, %ymm1, %ymm2
	vmulps	%ymm0, %ymm2, %ymm2
	vsubps	%ymm2, %ymm1, %ymm2
	vmulps	%ymm0, %ymm2, %ymm2
	vsubps	%ymm2, %ymm1, %ymm2
	vmulps	%ymm0, %ymm3, %ymm3
	vsubps	%ymm3, %ymm1, %ymm3
	vmulps	%ymm0, %ymm3, %ymm3
	vsubps	%ymm3, %ymm1, %ymm3
	vmulps	%ymm0, %ymm3, %ymm3
	vsubps	%ymm3, %ymm1, %ymm3
	vmulps	%ymm0, %ymm3, %ymm3
	vmulps	%ymm0, %ymm2, %ymm2
	vsubps	%ymm2, %ymm1, %ymm2
	vmulps	%ymm0, %ymm2, %ymm2
	vsubps	%ymm2, %ymm1, %ymm2
	vmulps	%ymm0, %ymm2, %ymm2
	vsubps	%ymm2, %ymm1, %ymm2
	vmulps	%ymm0, %ymm2, %ymm2
	vsubps	%ymm3, %ymm1, %ymm3
	vmulps	%ymm0, %ymm3, %ymm3
	vsubps	%ymm3, %ymm1, %ymm3
	vmulps	%ymm0, %ymm3, %ymm3
	vsubps	%ymm3, %ymm1, %ymm3
	vmulps	%ymm0, %ymm3, %ymm3
	vsubps	%ymm3, %ymm1, %ymm3
	vsubps	%ymm2, %ymm1, %ymm2
	vmulps	%ymm0, %ymm2, %ymm2
	vsubps	%ymm2, %ymm1, %ymm2
	vmulps	%ymm0, %ymm2, %ymm2
	vsubps	%ymm2, %ymm1, %ymm2
	vmulps	%ymm0, %ymm2, %ymm2
	vsubps	%ymm2, %ymm1, %ymm2
	vmulps	%ymm0, %ymm3, %ymm3
	vsubps	%ymm3, %ymm1, %ymm3
	vmulps	%ymm0, %ymm3, %ymm3
	vsubps	%ymm3, %ymm1, %ymm3
	vmulps	%ymm0, %ymm3, %ymm3
	vsubps	%ymm3, %ymm1, %ymm3
	vmulps	%ymm0, %ymm3, %ymm3
	vmulps	%ymm0, %ymm2, %ymm2
	vsubps	%ymm2, %ymm1, %ymm2
	vmulps	%ymm0, %ymm2, %ymm2
	vsubps	%ymm2, %ymm1, %ymm2
	vmulps	%ymm0, %ymm2, %ymm2
	vsubps	%ymm2, %ymm1, %ymm2
	vmulps	%ymm0, %ymm2, %ymm2
	vsubps	%ymm3, %ymm1, %ymm3
	vmulps	%ymm0, %ymm3, %ymm3
	vsubps	%ymm3, %ymm1, %ymm3
	vmulps	%ymm0, %ymm3, %ymm3
	vsubps	%ymm3, %ymm1, %ymm3
	vmulps	%ymm0, %ymm3, %ymm3
	vsubps	%ymm3, %ymm1, %ymm3
	vsubps	%ymm2, %ymm1, %ymm2
	vmulps	%ymm0, %ymm2, %ymm2
	vsubps	%ymm2, %ymm1, %ymm2
	vmulps	%ymm0, %ymm2, %ymm2
	vsubps	%ymm2, %ymm1, %ymm2
	vmulps	%ymm0, %ymm2, %ymm2
	vsubps	%ymm2, %ymm1, %ymm2
	vmulps	%ymm0, %ymm3, %ymm3
	vsubps	%ymm3, %ymm1, %ymm3
	vmulps	%ymm0, %ymm3, %ymm3
	vsubps	%ymm3, %ymm1, %ymm3
	vmulps	%ymm0, %ymm3, %ymm3
	vsubps	%ymm3, %ymm1, %ymm3
	vmulps	%ymm0, %ymm3, %ymm3
	vmulps	%ymm0, %ymm2, %ymm2
	vsubps	%ymm2, %ymm1, %ymm2
	vmulps	%ymm0, %ymm2, %ymm2
	vsubps	%ymm2, %ymm1, %ymm2
	vmulps	%ymm0, %ymm2, %ymm2
	vsubps	%ymm2, %ymm1, %ymm2
	vmulps	%ymm0, %ymm2, %ymm2
	vsubps	%ymm3, %ymm1, %ymm3
	vmulps	%ymm0, %ymm3, %ymm3
	vsubps	%ymm3, %ymm1, %ymm3
	vmulps	%ymm0, %ymm3, %ymm3
	vsubps	%ymm3, %ymm1, %ymm3
	vmulps	%ymm0, %ymm3, %ymm3
	vsubps	%ymm3, %ymm1, %ymm3
	vsubps	%ymm2, %ymm1, %ymm2
	vmulps	%ymm0, %ymm2, %ymm2
	vsubps	%ymm2, %ymm1, %ymm2
	vmulps	%ymm0, %ymm2, %ymm2
	vsubps	%ymm2, %ymm1, %ymm2
	vmulps	%ymm0, %ymm2, %ymm2
	vsubps	%ymm2, %ymm1, %ymm2
	vmulps	%ymm0, %ymm3, %ymm3
	vsubps	%ymm3, %ymm1, %ymm3
	vmulps	%ymm0, %ymm3, %ymm3
	vsubps	%ymm3, %ymm1, %ymm3
	vmulps	%ymm0, %ymm3, %ymm3
	vsubps	%ymm3, %ymm1, %ymm3
	vmulps	%ymm0, %ymm3, %ymm3
	vmulps	%ymm0, %ymm2, %ymm2
	vsubps	%ymm2, %ymm1, %ymm2
	vmulps	%ymm0, %ymm2, %ymm2
	vsubps	%ymm2, %ymm1, %ymm2
	vmulps	%ymm0, %ymm2, %ymm2
	vsubps	%ymm2, %ymm1, %ymm2
	vmulps	%ymm0, %ymm2, %ymm2
	vsubps	%ymm3, %ymm1, %ymm3
	vmulps	%ymm0, %ymm3, %ymm3
	vsubps	%ymm3, %ymm1, %ymm3
	vmulps	%ymm0, %ymm3, %ymm3
	vsubps	%ymm3, %ymm1, %ymm3
	vmulps	%ymm0, %ymm3, %ymm3
	vsubps	%ymm3, %ymm1, %ymm3
	vsubps	%ymm2, %ymm1, %ymm2
	vmulps	%ymm0, %ymm2, %ymm2
	vsubps	%ymm2, %ymm1, %ymm2
	vmulps	%ymm0, %ymm2, %ymm2
	vsubps	%ymm2, %ymm1, %ymm2
	vmulps	%ymm0, %ymm2, %ymm2
	vsubps	%ymm2, %ymm1, %ymm2
	vmulps	%ymm0, %ymm3, %ymm3
	vsubps	%ymm3, %ymm1, %ymm3
	vmulps	%ymm0, %ymm3, %ymm3
	vsubps	%ymm3, %ymm1, %ymm3
	vmulps	%ymm0, %ymm3, %ymm3
	vsubps	%ymm3, %ymm1, %ymm3
	vmulps	%ymm0, %ymm3, %ymm3
	vmulps	%ymm0, %ymm2, %ymm2
	vsubps	%ymm2, %ymm1, %ymm2
	vmulps	%ymm0, %ymm2, %ymm2
	vsubps	%ymm2, %ymm1, %ymm2
	vmulps	%ymm0, %ymm2, %ymm2
	vsubps	%ymm2, %ymm1, %ymm2
	vmulps	%ymm0, %ymm2, %ymm2
	vsubps	%ymm3, %ymm1, %ymm3
	vmulps	%ymm0, %ymm3, %ymm3
	vsubps	%ymm3, %ymm1, %ymm3
	vmulps	%ymm0, %ymm3, %ymm3
	vsubps	%ymm3, %ymm1, %ymm3
	vmulps	%ymm0, %ymm3, %ymm3
	vsubps	%ymm3, %ymm1, %ymm3
	vsubps	%ymm2, %ymm1, %ymm2
	vmulps	%ymm0, %ymm2, %ymm2
	vsubps	%ymm2, %ymm1, %ymm2
	vmulps	%ymm0, %ymm2, %ymm2
	vsubps	%ymm2, %ymm1, %ymm2
	vmulps	%ymm0, %ymm2, %ymm2
	vsubps	%ymm2, %ymm1, %ymm2
	vmulps	%ymm0, %ymm3, %ymm3
	vsubps	%ymm3, %ymm1, %ymm3
	vmulps	%ymm0, %ymm3, %ymm3
	vsubps	%ymm3, %ymm1, %ymm3
	vmulps	%ymm0, %ymm3, %ymm3
	vsubps	%ymm3, %ymm1, %ymm3
	vmulps	%ymm0, %ymm3, %ymm3
	vmulps	%ymm0, %ymm2, %ymm2
	vsubps	%ymm2, %ymm1, %ymm2
	vmulps	%ymm0, %ymm2, %ymm2
	vsubps	%ymm2, %ymm1, %ymm2
	vmulps	%ymm0, %ymm2, %ymm2
	vsubps	%ymm2, %ymm1, %ymm2
	vmulps	%ymm0, %ymm2, %ymm2
	vsubps	%ymm3, %ymm1, %ymm3
	vmulps	%ymm0, %ymm3, %ymm3
	vsubps	%ymm3, %ymm1, %ymm3
	vmulps	%ymm0, %ymm3, %ymm3
	vsubps	%ymm3, %ymm1, %ymm3
	vmulps	%ymm0, %ymm3, %ymm3
	vsubps	%ymm3, %ymm1, %ymm3
	vsubps	%ymm2, %ymm1, %ymm2
	vmulps	%ymm0, %ymm2, %ymm2
	vsubps	%ymm2, %ymm1, %ymm2
	vmulps	%ymm0, %ymm2, %ymm2
	vsubps	%ymm2, %ymm1, %ymm2
	vmulps	%ymm0, %ymm2, %ymm2
	vsubps	%ymm2, %ymm1, %ymm2
	vmulps	%ymm0, %ymm3, %ymm3
	vsubps	%ymm3, %ymm1, %ymm3
	vmulps	%ymm0, %ymm3, %ymm3
	vsubps	%ymm3, %ymm1, %ymm3
	vmulps	%ymm0, %ymm3, %ymm3
	vsubps	%ymm3, %ymm1, %ymm3
	vmulps	%ymm0, %ymm3, %ymm3
	vmulps	%ymm0, %ymm2, %ymm2
	vsubps	%ymm2, %ymm1, %ymm2
	vmulps	%ymm0, %ymm2, %ymm2
	vsubps	%ymm2, %ymm1, %ymm2
	vmulps	%ymm0, %ymm2, %ymm2
	vsubps	%ymm2, %ymm1, %ymm2
	vmulps	%ymm0, %ymm2, %ymm2
	vsubps	%ymm3, %ymm1, %ymm3
	vmulps	%ymm0, %ymm3, %ymm3
	vsubps	%ymm3, %ymm1, %ymm3
	vmulps	%ymm0, %ymm3, %ymm3
	vsubps	%ymm3, %ymm1, %ymm3
	vmulps	%ymm0, %ymm3, %ymm3
	vsubps	%ymm3, %ymm1, %ymm3
	vsubps	%ymm2, %ymm1, %ymm2
	vmulps	%ymm0, %ymm2, %ymm2
	vsubps	%ymm2, %ymm1, %ymm2
	vmulps	%ymm0, %ymm2, %ymm2
	vsubps	%ymm2, %ymm1, %ymm2
	vmulps	%ymm0, %ymm2, %ymm2
	vsubps	%ymm2, %ymm1, %ymm2
	vmulps	%ymm0, %ymm3, %ymm3
	vsubps	%ymm3, %ymm1, %ymm3
	vmulps	%ymm0, %ymm3, %ymm3
	vsubps	%ymm3, %ymm1, %ymm3
	vmulps	%ymm0, %ymm3, %ymm3
	vsubps	%ymm3, %ymm1, %ymm3
	vmulps	%ymm0, %ymm3, %ymm3
	vmulps	%ymm0, %ymm2, %ymm2
	vsubps	%ymm2, %ymm1, %ymm2
	vmulps	%ymm0, %ymm2, %ymm2
	vsubps	%ymm2, %ymm1, %ymm2
	vmulps	%ymm0, %ymm2, %ymm2
	vsubps	%ymm2, %ymm1, %ymm2
	vmulps	%ymm0, %ymm2, %ymm2
	vsubps	%ymm3, %ymm1, %ymm3
	vmulps	%ymm0, %ymm3, %ymm3
	vsubps	%ymm3, %ymm1, %ymm3
	vmulps	%ymm0, %ymm3, %ymm3
	vsubps	%ymm3, %ymm1, %ymm3
	vmulps	%ymm0, %ymm3, %ymm3
	vsubps	%ymm3, %ymm1, %ymm3
	vsubps	%ymm2, %ymm1, %ymm2
	vmulps	%ymm0, %ymm2, %ymm2
	vsubps	%ymm2, %ymm1, %ymm2
	vmulps	%ymm0, %ymm2, %ymm2
	vsubps	%ymm2, %ymm1, %ymm2
	vmulps	%ymm0, %ymm2, %ymm2
	vsubps	%ymm2, %ymm1, %ymm2
	vmulps	%ymm0, %ymm3, %ymm3
	vsubps	%ymm3, %ymm1, %ymm3
	vmulps	%ymm0, %ymm3, %ymm3
	vsubps	%ymm3, %ymm1, %ymm3
	vmulps	%ymm0, %ymm3, %ymm3
	vsubps	%ymm3, %ymm1, %ymm3
	vmulps	%ymm0, %ymm3, %ymm3
	vmulps	%ymm0, %ymm2, %ymm2
	vsubps	%ymm2, %ymm1, %ymm2
	vmulps	%ymm0, %ymm2, %ymm2
	vsubps	%ymm2, %ymm1, %ymm2
	vmulps	%ymm0, %ymm2, %ymm2
	vsubps	%ymm2, %ymm1, %ymm2
	vmulps	%ymm0, %ymm2, %ymm2
	vsubps	%ymm3, %ymm1, %ymm3
	vmulps	%ymm0, %ymm3, %ymm3
	vsubps	%ymm3, %ymm1, %ymm3
	vmulps	%ymm0, %ymm3, %ymm3
	vsubps	%ymm3, %ymm1, %ymm3
	vmulps	%ymm0, %ymm3, %ymm3
	vsubps	%ymm3, %ymm1, %ymm3
	vsubps	%ymm2, %ymm1, %ymm2
	vmulps	%ymm0, %ymm2, %ymm2
	vsubps	%ymm2, %ymm1, %ymm2
	vmulps	%ymm0, %ymm2, %ymm2
	vsubps	%ymm2, %ymm1, %ymm2
	vmulps	%ymm0, %ymm2, %ymm2
	vsubps	%ymm2, %ymm1, %ymm2
	vmulps	%ymm0, %ymm3, %ymm3
	vsubps	%ymm3, %ymm1, %ymm3
	vmulps	%ymm0, %ymm3, %ymm3
	vsubps	%ymm3, %ymm1, %ymm3
	vmulps	%ymm0, %ymm3, %ymm3
	vsubps	%ymm3, %ymm1, %ymm3
	vmulps	%ymm0, %ymm3, %ymm3
	vmulps	%ymm0, %ymm2, %ymm2
	vsubps	%ymm2, %ymm1, %ymm2
	vmulps	%ymm0, %ymm2, %ymm2
	vsubps	%ymm2, %ymm1, %ymm2
	vmulps	%ymm0, %ymm2, %ymm2
	vsubps	%ymm2, %ymm1, %ymm2
	vmulps	%ymm0, %ymm2, %ymm2
	vsubps	%ymm3, %ymm1, %ymm3
	vmulps	%ymm0, %ymm3, %ymm3
	vsubps	%ymm3, %ymm1, %ymm3
	vmulps	%ymm0, %ymm3, %ymm3
	vsubps	%ymm3, %ymm1, %ymm3
	vmulps	%ymm0, %ymm3, %ymm3
	vsubps	%ymm3, %ymm1, %ymm3
	vsubps	%ymm2, %ymm1, %ymm2
	vmulps	%ymm0, %ymm2, %ymm2
	vsubps	%ymm2, %ymm1, %ymm2
	vmulps	%ymm0, %ymm2, %ymm2
	vsubps	%ymm2, %ymm1, %ymm2
	vmulps	%ymm0, %ymm2, %ymm2
	vsubps	%ymm2, %ymm1, %ymm2
	vmulps	%ymm0, %ymm3, %ymm3
	vsubps	%ymm3, %ymm1, %ymm3
	vmulps	%ymm0, %ymm3, %ymm3
	vsubps	%ymm3, %ymm1, %ymm3
	vmulps	%ymm0, %ymm3, %ymm3
	vsubps	%ymm3, %ymm1, %ymm3
	vmulps	%ymm0, %ymm3, %ymm3
	vmulps	%ymm0, %ymm2, %ymm2
	vsubps	%ymm2, %ymm1, %ymm2
	vmulps	%ymm0, %ymm2, %ymm2
	vsubps	%ymm2, %ymm1, %ymm2
	vmulps	%ymm0, %ymm2, %ymm2
	vsubps	%ymm2, %ymm1, %ymm2
	vmulps	%ymm0, %ymm2, %ymm2
	vsubps	%ymm3, %ymm1, %ymm3
	vmulps	%ymm0, %ymm3, %ymm3
	vsubps	%ymm3, %ymm1, %ymm3
	vmulps	%ymm0, %ymm3, %ymm3
	vsubps	%ymm3, %ymm1, %ymm3
	vmulps	%ymm0, %ymm3, %ymm3
	vsubps	%ymm3, %ymm1, %ymm3
	vsubps	%ymm2, %ymm1, %ymm2
	vmulps	%ymm0, %ymm2, %ymm2
	vsubps	%ymm2, %ymm1, %ymm2
	vmulps	%ymm0, %ymm2, %ymm2
	vsubps	%ymm2, %ymm1, %ymm2
	vmulps	%ymm0, %ymm2, %ymm2
	vsubps	%ymm2, %ymm1, %ymm2
	vmulps	%ymm0, %ymm3, %ymm3
	vsubps	%ymm3, %ymm1, %ymm3
	vmulps	%ymm0, %ymm3, %ymm3
	vsubps	%ymm3, %ymm1, %ymm3
	vmulps	%ymm0, %ymm3, %ymm3
	vsubps	%ymm3, %ymm1, %ymm3
	vmulps	%ymm0, %ymm3, %ymm3
	vmulps	%ymm0, %ymm2, %ymm2
	vsubps	%ymm2, %ymm1, %ymm2
	vmulps	%ymm0, %ymm2, %ymm2
	vsubps	%ymm2, %ymm1, %ymm2
	vmulps	%ymm0, %ymm2, %ymm2
	vsubps	%ymm2, %ymm1, %ymm2
	vmulps	%ymm0, %ymm2, %ymm2
	vsubps	%ymm3, %ymm1, %ymm3
	vmulps	%ymm0, %ymm3, %ymm3
	vsubps	%ymm3, %ymm1, %ymm3
	vmulps	%ymm0, %ymm3, %ymm3
	vsubps	%ymm3, %ymm1, %ymm3
	vmulps	%ymm0, %ymm3, %ymm3
	vsubps	%ymm3, %ymm1, %ymm3
	vsubps	%ymm2, %ymm1, %ymm2
	vmulps	%ymm0, %ymm2, %ymm2
	vsubps	%ymm2, %ymm1, %ymm2
	vmulps	%ymm0, %ymm2, %ymm2
	vsubps	%ymm2, %ymm1, %ymm2
	vmulps	%ymm0, %ymm2, %ymm2
	vsubps	%ymm2, %ymm1, %ymm2
	vmulps	%ymm0, %ymm3, %ymm3
	vsubps	%ymm3, %ymm1, %ymm3
	vmulps	%ymm0, %ymm3, %ymm3
	vsubps	%ymm3, %ymm1, %ymm3
	vmulps	%ymm0, %ymm3, %ymm3
	vsubps	%ymm3, %ymm1, %ymm3
	vmulps	%ymm0, %ymm3, %ymm3
	vmulps	%ymm0, %ymm2, %ymm2
	vsubps	%ymm2, %ymm1, %ymm2
	vmulps	%ymm0, %ymm2, %ymm2
	vsubps	%ymm2, %ymm1, %ymm2
	vmulps	%ymm0, %ymm2, %ymm2
	vsubps	%ymm2, %ymm1, %ymm2
	vmulps	%ymm0, %ymm2, %ymm2
	vsubps	%ymm3, %ymm1, %ymm3
	vmulps	%ymm0, %ymm3, %ymm3
	vsubps	%ymm3, %ymm1, %ymm3
	vmulps	%ymm0, %ymm3, %ymm3
	vsubps	%ymm3, %ymm1, %ymm3
	vmulps	%ymm0, %ymm3, %ymm3
	vsubps	%ymm3, %ymm1, %ymm3
	vsubps	%ymm2, %ymm1, %ymm2
	vmulps	%ymm0, %ymm2, %ymm2
	vsubps	%ymm2, %ymm1, %ymm2
	vmulps	%ymm0, %ymm2, %ymm2
	vsubps	%ymm2, %ymm1, %ymm2
	vmulps	%ymm0, %ymm2, %ymm2
	vsubps	%ymm2, %ymm1, %ymm2
	vmulps	%ymm0, %ymm3, %ymm3
	vsubps	%ymm3, %ymm1, %ymm3
	vmulps	%ymm0, %ymm3, %ymm3
	vsubps	%ymm3, %ymm1, %ymm3
	vmulps	%ymm0, %ymm3, %ymm3
	vsubps	%ymm3, %ymm1, %ymm3
	vmulps	%ymm0, %ymm3, %ymm3
	vmulps	%ymm0, %ymm2, %ymm2
	vsubps	%ymm2, %ymm1, %ymm2
	vmulps	%ymm0, %ymm2, %ymm2
	vsubps	%ymm2, %ymm1, %ymm2
	vmulps	%ymm0, %ymm2, %ymm2
	vsubps	%ymm2, %ymm1, %ymm2
	vmulps	%ymm0, %ymm2, %ymm2
	vsubps	%ymm3, %ymm1, %ymm3
	vmulps	%ymm0, %ymm3, %ymm3
	vsubps	%ymm3, %ymm1, %ymm3
	vmulps	%ymm0, %ymm3, %ymm3
	vsubps	%ymm3, %ymm1, %ymm3
	vmulps	%ymm0, %ymm3, %ymm3
	vsubps	%ymm3, %ymm1, %ymm3
	vsubps	%ymm2, %ymm1, %ymm2
	vmulps	%ymm0, %ymm2, %ymm2
	vsubps	%ymm2, %ymm1, %ymm2
	vmulps	%ymm0, %ymm2, %ymm2
	vsubps	%ymm2, %ymm1, %ymm2
	vmulps	%ymm0, %ymm2, %ymm2
	vsubps	%ymm2, %ymm1, %ymm2
	vmulps	%ymm0, %ymm3, %ymm3
	vsubps	%ymm3, %ymm1, %ymm3
	vmulps	%ymm0, %ymm3, %ymm3
	vsubps	%ymm3, %ymm1, %ymm3
	vmulps	%ymm0, %ymm3, %ymm3
	vsubps	%ymm3, %ymm1, %ymm3
	vmulps	%ymm0, %ymm3, %ymm3
	vmulps	%ymm0, %ymm2, %ymm2
	vsubps	%ymm2, %ymm1, %ymm2
	vmulps	%ymm0, %ymm2, %ymm2
	vsubps	%ymm2, %ymm1, %ymm2
	vmulps	%ymm0, %ymm2, %ymm2
	vsubps	%ymm2, %ymm1, %ymm2
	vmulps	%ymm0, %ymm2, %ymm2
	vsubps	%ymm3, %ymm1, %ymm3
	vmulps	%ymm0, %ymm3, %ymm3
	vsubps	%ymm3, %ymm1, %ymm3
	vmulps	%ymm0, %ymm3, %ymm3
	vsubps	%ymm3, %ymm1, %ymm3
	vmulps	%ymm0, %ymm3, %ymm3
	vsubps	%ymm3, %ymm1, %ymm3
	vsubps	%ymm2, %ymm1, %ymm2
	vmulps	%ymm0, %ymm2, %ymm2
	vsubps	%ymm2, %ymm1, %ymm2
	vmulps	%ymm0, %ymm2, %ymm2
	vsubps	%ymm2, %ymm1, %ymm2
	vmulps	%ymm0, %ymm2, %ymm2
	vsubps	%ymm2, %ymm1, %ymm2
	vmulps	%ymm0, %ymm3, %ymm3
	vsubps	%ymm3, %ymm1, %ymm3
	vmulps	%ymm0, %ymm3, %ymm3
	vsubps	%ymm3, %ymm1, %ymm3
	vmulps	%ymm0, %ymm3, %ymm3
	vsubps	%ymm3, %ymm1, %ymm3
	vmulps	%ymm0, %ymm3, %ymm3
	vmulps	%ymm0, %ymm2, %ymm2
	vsubps	%ymm2, %ymm1, %ymm2
	vmulps	%ymm0, %ymm2, %ymm2
	vsubps	%ymm2, %ymm1, %ymm2
	vmulps	%ymm0, %ymm2, %ymm2
	vsubps	%ymm2, %ymm1, %ymm2
	vmulps	%ymm0, %ymm2, %ymm2
	vsubps	%ymm3, %ymm1, %ymm3
	vmulps	%ymm0, %ymm3, %ymm3
	vsubps	%ymm3, %ymm1, %ymm3
	vmulps	%ymm0, %ymm3, %ymm3
	vsubps	%ymm3, %ymm1, %ymm3
	vmulps	%ymm0, %ymm3, %ymm3
	vsubps	%ymm3, %ymm1, %ymm3
	vsubps	%ymm2, %ymm1, %ymm2
	vmulps	%ymm0, %ymm2, %ymm2
	vsubps	%ymm2, %ymm1, %ymm2
	vmulps	%ymm0, %ymm2, %ymm2
	vsubps	%ymm2, %ymm1, %ymm2
	vmulps	%ymm0, %ymm2, %ymm2
	vsubps	%ymm2, %ymm1, %ymm2
	vmulps	%ymm0, %ymm3, %ymm3
	vsubps	%ymm3, %ymm1, %ymm3
	vmulps	%ymm0, %ymm3, %ymm3
	vsubps	%ymm3, %ymm1, %ymm3
	vmulps	%ymm0, %ymm3, %ymm3
	vsubps	%ymm3, %ymm1, %ymm3
	vmulps	%ymm0, %ymm3, %ymm3
	vmulps	%ymm0, %ymm2, %ymm2
	vsubps	%ymm2, %ymm1, %ymm2
	vmulps	%ymm0, %ymm2, %ymm2
	vsubps	%ymm2, %ymm1, %ymm2
	vmulps	%ymm0, %ymm2, %ymm2
	vsubps	%ymm2, %ymm1, %ymm2
	vmulps	%ymm0, %ymm2, %ymm2
	vsubps	%ymm3, %ymm1, %ymm3
	vmulps	%ymm0, %ymm3, %ymm3
	vsubps	%ymm3, %ymm1, %ymm3
	vmulps	%ymm0, %ymm3, %ymm3
	vsubps	%ymm3, %ymm1, %ymm3
	vmulps	%ymm0, %ymm3, %ymm3
	vsubps	%ymm3, %ymm1, %ymm3
	vsubps	%ymm2, %ymm1, %ymm2
	vmulps	%ymm0, %ymm2, %ymm2
	vsubps	%ymm2, %ymm1, %ymm2
	vmulps	%ymm0, %ymm2, %ymm2
	vsubps	%ymm2, %ymm1, %ymm2
	vmulps	%ymm0, %ymm2, %ymm2
	vsubps	%ymm2, %ymm1, %ymm2
	vmulps	%ymm0, %ymm3, %ymm3
	vsubps	%ymm3, %ymm1, %ymm3
	vmulps	%ymm0, %ymm3, %ymm3
	vsubps	%ymm3, %ymm1, %ymm3
	vmulps	%ymm0, %ymm3, %ymm3
	vsubps	%ymm3, %ymm1, %ymm3
	vmulps	%ymm0, %ymm3, %ymm3
	vmulps	%ymm0, %ymm2, %ymm2
	vsubps	%ymm2, %ymm1, %ymm2
	vmulps	%ymm0, %ymm2, %ymm2
	vsubps	%ymm2, %ymm1, %ymm2
	vmulps	%ymm0, %ymm2, %ymm2
	vsubps	%ymm2, %ymm1, %ymm2
	vmulps	%ymm0, %ymm2, %ymm2
	vsubps	%ymm3, %ymm1, %ymm3
	vmulps	%ymm0, %ymm3, %ymm3
	vsubps	%ymm3, %ymm1, %ymm3
	vmulps	%ymm0, %ymm3, %ymm3
	vsubps	%ymm3, %ymm1, %ymm3
	vmulps	%ymm0, %ymm3, %ymm3
	vsubps	%ymm3, %ymm1, %ymm3
	vsubps	%ymm2, %ymm1, %ymm2
	vmulps	%ymm0, %ymm2, %ymm2
	vsubps	%ymm2, %ymm1, %ymm2
	vmulps	%ymm0, %ymm2, %ymm2
	vsubps	%ymm2, %ymm1, %ymm2
	vmulps	%ymm0, %ymm2, %ymm2
	vsubps	%ymm2, %ymm1, %ymm2
	vmulps	%ymm0, %ymm3, %ymm3
	vsubps	%ymm3, %ymm1, %ymm3
	vmulps	%ymm0, %ymm3, %ymm3
	vsubps	%ymm3, %ymm1, %ymm3
	vmulps	%ymm0, %ymm3, %ymm3
	vsubps	%ymm3, %ymm1, %ymm3
	vmulps	%ymm0, %ymm3, %ymm3
	vmulps	%ymm0, %ymm2, %ymm2
	vsubps	%ymm2, %ymm1, %ymm2
	vmulps	%ymm0, %ymm2, %ymm2
	vsubps	%ymm2, %ymm1, %ymm2
	vmulps	%ymm0, %ymm2, %ymm2
	vsubps	%ymm2, %ymm1, %ymm2
	vmulps	%ymm0, %ymm2, %ymm2
	vsubps	%ymm3, %ymm1, %ymm3
	vmulps	%ymm0, %ymm3, %ymm3
	vsubps	%ymm3, %ymm1, %ymm3
	vmulps	%ymm0, %ymm3, %ymm3
	vsubps	%ymm3, %ymm1, %ymm3
	vmulps	%ymm0, %ymm3, %ymm3
	vsubps	%ymm3, %ymm1, %ymm3
	vsubps	%ymm2, %ymm1, %ymm2
	vmulps	%ymm0, %ymm2, %ymm2
	vsubps	%ymm2, %ymm1, %ymm2
	vmulps	%ymm0, %ymm2, %ymm2
	vsubps	%ymm2, %ymm1, %ymm2
	vmulps	%ymm0, %ymm2, %ymm2
	vsubps	%ymm2, %ymm1, %ymm2
	vmulps	%ymm0, %ymm3, %ymm3
	vsubps	%ymm3, %ymm1, %ymm3
	vmulps	%ymm0, %ymm3, %ymm3
	vsubps	%ymm3, %ymm1, %ymm3
	vmulps	%ymm0, %ymm3, %ymm3
	vsubps	%ymm3, %ymm1, %ymm3
	vmulps	%ymm0, %ymm3, %ymm3
	vmulps	%ymm0, %ymm2, %ymm2
	vsubps	%ymm2, %ymm1, %ymm2
	vmulps	%ymm0, %ymm2, %ymm2
	vsubps	%ymm2, %ymm1, %ymm2
	vmulps	%ymm0, %ymm2, %ymm2
	vsubps	%ymm2, %ymm1, %ymm2
	vmulps	%ymm0, %ymm2, %ymm2
	vsubps	%ymm3, %ymm1, %ymm3
	vmulps	%ymm0, %ymm3, %ymm3
	vsubps	%ymm3, %ymm1, %ymm3
	vmulps	%ymm0, %ymm3, %ymm3
	vsubps	%ymm3, %ymm1, %ymm3
	vmulps	%ymm0, %ymm3, %ymm3
	vsubps	%ymm3, %ymm1, %ymm3
	vsubps	%ymm2, %ymm1, %ymm2
	vmulps	%ymm0, %ymm2, %ymm2
	vsubps	%ymm2, %ymm1, %ymm2
	vmulps	%ymm0, %ymm2, %ymm2
	vsubps	%ymm2, %ymm1, %ymm2
	vmulps	%ymm0, %ymm2, %ymm2
	vsubps	%ymm2, %ymm1, %ymm2
	vmulps	%ymm0, %ymm3, %ymm3
	vsubps	%ymm3, %ymm1, %ymm3
	vmulps	%ymm0, %ymm3, %ymm3
	vsubps	%ymm3, %ymm1, %ymm3
	vmulps	%ymm0, %ymm3, %ymm3
	vsubps	%ymm3, %ymm1, %ymm3
	vmulps	%ymm0, %ymm3, %ymm3
	vmulps	%ymm0, %ymm2, %ymm2
	vsubps	%ymm2, %ymm1, %ymm2
	vmulps	%ymm0, %ymm2, %ymm2
	vsubps	%ymm2, %ymm1, %ymm2
	vmulps	%ymm0, %ymm2, %ymm2
	vsubps	%ymm2, %ymm1, %ymm2
	vmulps	%ymm0, %ymm2, %ymm2
	vsubps	%ymm3, %ymm1, %ymm3
	vmulps	%ymm0, %ymm3, %ymm3
	vsubps	%ymm3, %ymm1, %ymm3
	vmulps	%ymm0, %ymm3, %ymm3
	vsubps	%ymm3, %ymm1, %ymm3
	vmulps	%ymm0, %ymm3, %ymm3
	vsubps	%ymm3, %ymm1, %ymm3
	vsubps	%ymm2, %ymm1, %ymm2
	vmulps	%ymm0, %ymm2, %ymm2
	vsubps	%ymm2, %ymm1, %ymm2
	vmulps	%ymm0, %ymm2, %ymm2
	vsubps	%ymm2, %ymm1, %ymm2
	vmulps	%ymm0, %ymm2, %ymm2
	vsubps	%ymm2, %ymm1, %ymm2
	vmulps	%ymm0, %ymm3, %ymm3
	vsubps	%ymm3, %ymm1, %ymm3
	vmulps	%ymm0, %ymm3, %ymm3
	vsubps	%ymm3, %ymm1, %ymm3
	vmulps	%ymm0, %ymm3, %ymm3
	vsubps	%ymm3, %ymm1, %ymm3
	vmulps	%ymm0, %ymm3, %ymm3
	vmulps	%ymm0, %ymm2, %ymm2
	vsubps	%ymm2, %ymm1, %ymm2
	vmulps	%ymm0, %ymm2, %ymm2
	vsubps	%ymm2, %ymm1, %ymm2
	vmulps	%ymm0, %ymm2, %ymm2
	vsubps	%ymm2, %ymm1, %ymm2
	vmulps	%ymm0, %ymm2, %ymm2
	vsubps	%ymm3, %ymm1, %ymm3
	vmulps	%ymm0, %ymm3, %ymm3
	vsubps	%ymm3, %ymm1, %ymm3
	vmulps	%ymm0, %ymm3, %ymm3
	vsubps	%ymm3, %ymm1, %ymm3
	vmulps	%ymm0, %ymm3, %ymm3
	vsubps	%ymm3, %ymm1, %ymm3
	vsubps	%ymm2, %ymm1, %ymm2
	vmulps	%ymm0, %ymm2, %ymm2
	vsubps	%ymm2, %ymm1, %ymm2
	vmulps	%ymm0, %ymm2, %ymm2
	vsubps	%ymm2, %ymm1, %ymm2
	vmulps	%ymm0, %ymm2, %ymm2
	vsubps	%ymm2, %ymm1, %ymm2
	vmulps	%ymm0, %ymm3, %ymm3
	vsubps	%ymm3, %ymm1, %ymm3
	vmulps	%ymm0, %ymm3, %ymm3
	vsubps	%ymm3, %ymm1, %ymm3
	vmulps	%ymm0, %ymm3, %ymm3
	vsubps	%ymm3, %ymm1, %ymm3
	vmulps	%ymm0, %ymm3, %ymm3
	vmulps	%ymm0, %ymm2, %ymm2
	vsubps	%ymm2, %ymm1, %ymm2
	vmulps	%ymm0, %ymm2, %ymm2
	vsubps	%ymm2, %ymm1, %ymm2
	vmulps	%ymm0, %ymm2, %ymm2
	vsubps	%ymm2, %ymm1, %ymm2
	vmulps	%ymm0, %ymm2, %ymm2
	vsubps	%ymm3, %ymm1, %ymm3
	vmulps	%ymm0, %ymm3, %ymm3
	vsubps	%ymm3, %ymm1, %ymm3
	vmulps	%ymm0, %ymm3, %ymm3
	vsubps	%ymm3, %ymm1, %ymm3
	vmulps	%ymm0, %ymm3, %ymm3
	vsubps	%ymm3, %ymm1, %ymm3
	vsubps	%ymm2, %ymm1, %ymm2
	vmulps	%ymm0, %ymm2, %ymm2
	vsubps	%ymm2, %ymm1, %ymm2
	vmulps	%ymm0, %ymm2, %ymm2
	vsubps	%ymm2, %ymm1, %ymm2
	vmulps	%ymm0, %ymm2, %ymm2
	vsubps	%ymm2, %ymm1, %ymm2
	vmulps	%ymm0, %ymm3, %ymm3
	vsubps	%ymm3, %ymm1, %ymm3
	vmulps	%ymm0, %ymm3, %ymm3
	vsubps	%ymm3, %ymm1, %ymm3
	vmulps	%ymm0, %ymm3, %ymm3
	vsubps	%ymm3, %ymm1, %ymm3
	vmulps	%ymm0, %ymm3, %ymm3
	vmulps	%ymm0, %ymm2, %ymm2
	vsubps	%ymm2, %ymm1, %ymm2
	vmulps	%ymm0, %ymm2, %ymm2
	vsubps	%ymm2, %ymm1, %ymm2
	vmulps	%ymm0, %ymm2, %ymm2
	vsubps	%ymm2, %ymm1, %ymm2
	vmulps	%ymm0, %ymm2, %ymm2
	vsubps	%ymm3, %ymm1, %ymm3
	vmulps	%ymm0, %ymm3, %ymm3
	vsubps	%ymm3, %ymm1, %ymm3
	vmulps	%ymm0, %ymm3, %ymm3
	vsubps	%ymm3, %ymm1, %ymm3
	vmulps	%ymm0, %ymm3, %ymm3
	vsubps	%ymm3, %ymm1, %ymm3
	vsubps	%ymm2, %ymm1, %ymm2
	vmulps	%ymm0, %ymm2, %ymm2
	vsubps	%ymm2, %ymm1, %ymm2
	vmulps	%ymm0, %ymm2, %ymm2
	vsubps	%ymm2, %ymm1, %ymm2
	vmulps	%ymm0, %ymm2, %ymm2
	vsubps	%ymm2, %ymm1, %ymm2
	vmulps	%ymm0, %ymm3, %ymm3
	vsubps	%ymm3, %ymm1, %ymm3
	vmulps	%ymm0, %ymm3, %ymm3
	vsubps	%ymm3, %ymm1, %ymm3
	vmulps	%ymm0, %ymm3, %ymm3
	vsubps	%ymm3, %ymm1, %ymm3
	vmulps	%ymm0, %ymm3, %ymm3
	vmulps	%ymm0, %ymm2, %ymm2
	vsubps	%ymm2, %ymm1, %ymm2
	vmulps	%ymm0, %ymm2, %ymm2
	vsubps	%ymm2, %ymm1, %ymm2
	vmulps	%ymm0, %ymm2, %ymm2
	vsubps	%ymm2, %ymm1, %ymm2
	vmulps	%ymm0, %ymm2, %ymm2
	vsubps	%ymm3, %ymm1, %ymm3
	vmulps	%ymm0, %ymm3, %ymm3
	vsubps	%ymm3, %ymm1, %ymm3
	vmulps	%ymm0, %ymm3, %ymm3
	vsubps	%ymm3, %ymm1, %ymm3
	vmulps	%ymm0, %ymm3, %ymm3
	vsubps	%ymm3, %ymm1, %ymm3
	vsubps	%ymm2, %ymm1, %ymm2
	vmulps	%ymm0, %ymm2, %ymm2
	vsubps	%ymm2, %ymm1, %ymm2
	vmulps	%ymm0, %ymm2, %ymm2
	vsubps	%ymm2, %ymm1, %ymm2
	vmulps	%ymm0, %ymm2, %ymm2
	vsubps	%ymm2, %ymm1, %ymm2
	vmulps	%ymm0, %ymm3, %ymm3
	vsubps	%ymm3, %ymm1, %ymm3
	vmulps	%ymm0, %ymm3, %ymm3
	vsubps	%ymm3, %ymm1, %ymm3
	vmulps	%ymm0, %ymm3, %ymm3
	vsubps	%ymm3, %ymm1, %ymm3
	vmulps	%ymm0, %ymm3, %ymm3
	vmulps	%ymm0, %ymm2, %ymm2
	vsubps	%ymm2, %ymm1, %ymm2
	vmulps	%ymm0, %ymm2, %ymm2
	vsubps	%ymm2, %ymm1, %ymm2
	vmulps	%ymm0, %ymm2, %ymm2
	vsubps	%ymm2, %ymm1, %ymm2
	vmulps	%ymm0, %ymm2, %ymm2
	vsubps	%ymm3, %ymm1, %ymm3
	vmulps	%ymm0, %ymm3, %ymm3
	vsubps	%ymm3, %ymm1, %ymm3
	vmulps	%ymm0, %ymm3, %ymm3
	vsubps	%ymm3, %ymm1, %ymm3
	vmulps	%ymm0, %ymm3, %ymm3
	vsubps	%ymm3, %ymm1, %ymm3
	vsubps	%ymm2, %ymm1, %ymm2
	vmulps	%ymm0, %ymm2, %ymm2
	vsubps	%ymm2, %ymm1, %ymm2
	vmulps	%ymm0, %ymm2, %ymm2
	vsubps	%ymm2, %ymm1, %ymm2
	vmulps	%ymm0, %ymm2, %ymm2
	vsubps	%ymm2, %ymm1, %ymm2
	vmulps	%ymm0, %ymm3, %ymm3
	vsubps	%ymm3, %ymm1, %ymm3
	vmulps	%ymm0, %ymm3, %ymm3
	vsubps	%ymm3, %ymm1, %ymm3
	vmulps	%ymm0, %ymm3, %ymm3
	vsubps	%ymm3, %ymm1, %ymm3
	vmulps	%ymm0, %ymm3, %ymm3
	vmulps	%ymm0, %ymm2, %ymm2
	vsubps	%ymm2, %ymm1, %ymm2
	vmulps	%ymm0, %ymm2, %ymm2
	vsubps	%ymm2, %ymm1, %ymm2
	vmulps	%ymm0, %ymm2, %ymm2
	vsubps	%ymm2, %ymm1, %ymm2
	vmulps	%ymm0, %ymm2, %ymm2
	vsubps	%ymm3, %ymm1, %ymm3
	vmulps	%ymm0, %ymm3, %ymm3
	vsubps	%ymm3, %ymm1, %ymm3
	vmulps	%ymm0, %ymm3, %ymm3
	vsubps	%ymm3, %ymm1, %ymm3
	vmulps	%ymm0, %ymm3, %ymm3
	vsubps	%ymm3, %ymm1, %ymm3
	vsubps	%ymm2, %ymm1, %ymm2
	vmulps	%ymm0, %ymm2, %ymm2
	vsubps	%ymm2, %ymm1, %ymm2
	vmulps	%ymm0, %ymm2, %ymm2
	vsubps	%ymm2, %ymm1, %ymm2
	vmulps	%ymm0, %ymm2, %ymm2
	vsubps	%ymm2, %ymm1, %ymm2
	vmulps	%ymm0, %ymm3, %ymm3
	vsubps	%ymm3, %ymm1, %ymm3
	vmulps	%ymm0, %ymm3, %ymm3
	vsubps	%ymm3, %ymm1, %ymm3
	vmulps	%ymm0, %ymm3, %ymm3
	vsubps	%ymm3, %ymm1, %ymm3
	vmulps	%ymm0, %ymm3, %ymm3
	vmulps	%ymm0, %ymm2, %ymm2
	vsubps	%ymm2, %ymm1, %ymm2
	vmulps	%ymm0, %ymm2, %ymm2
	vsubps	%ymm2, %ymm1, %ymm2
	vmulps	%ymm0, %ymm2, %ymm2
	vsubps	%ymm2, %ymm1, %ymm2
	vmulps	%ymm0, %ymm2, %ymm2
	vsubps	%ymm3, %ymm1, %ymm3
	vmulps	%ymm0, %ymm3, %ymm3
	vsubps	%ymm3, %ymm1, %ymm3
	vmulps	%ymm0, %ymm3, %ymm3
	vsubps	%ymm3, %ymm1, %ymm3
	vmulps	%ymm0, %ymm3, %ymm3
	vsubps	%ymm3, %ymm1, %ymm3
	vsubps	%ymm2, %ymm1, %ymm2
	vmulps	%ymm0, %ymm2, %ymm2
	vsubps	%ymm2, %ymm1, %ymm2
	vmulps	%ymm0, %ymm2, %ymm2
	vsubps	%ymm2, %ymm1, %ymm2
	vmulps	%ymm0, %ymm2, %ymm2
	vsubps	%ymm2, %ymm1, %ymm2
	vmulps	%ymm0, %ymm3, %ymm3
	vsubps	%ymm3, %ymm1, %ymm3
	vmulps	%ymm0, %ymm3, %ymm3
	vsubps	%ymm3, %ymm1, %ymm3
	vmulps	%ymm0, %ymm3, %ymm3
	vsubps	%ymm3, %ymm1, %ymm3
	vmulps	%ymm0, %ymm3, %ymm3
	vmulps	%ymm0, %ymm2, %ymm2
	vsubps	%ymm2, %ymm1, %ymm2
	vmulps	%ymm0, %ymm2, %ymm2
	vsubps	%ymm2, %ymm1, %ymm2
	vmulps	%ymm0, %ymm2, %ymm2
	vsubps	%ymm2, %ymm1, %ymm2
	vmulps	%ymm0, %ymm2, %ymm2
	vsubps	%ymm3, %ymm1, %ymm3
	vmulps	%ymm0, %ymm3, %ymm3
	vsubps	%ymm3, %ymm1, %ymm3
	vmulps	%ymm0, %ymm3, %ymm3
	vsubps	%ymm3, %ymm1, %ymm3
	vmulps	%ymm0, %ymm3, %ymm3
	vsubps	%ymm3, %ymm1, %ymm3
	vsubps	%ymm2, %ymm1, %ymm2
	vmulps	%ymm0, %ymm2, %ymm2
	vsubps	%ymm2, %ymm1, %ymm2
	vmulps	%ymm0, %ymm2, %ymm2
	vsubps	%ymm2, %ymm1, %ymm2
	vmulps	%ymm0, %ymm2, %ymm2
	vsubps	%ymm2, %ymm1, %ymm2
	vmulps	%ymm0, %ymm3, %ymm3
	vsubps	%ymm3, %ymm1, %ymm3
	vmulps	%ymm0, %ymm3, %ymm3
	vsubps	%ymm3, %ymm1, %ymm3
	vmulps	%ymm0, %ymm3, %ymm3
	vsubps	%ymm3, %ymm1, %ymm3
	vmulps	%ymm0, %ymm3, %ymm3
	vmulps	%ymm0, %ymm2, %ymm2
	vsubps	%ymm2, %ymm1, %ymm2
	vmulps	%ymm0, %ymm2, %ymm2
	vsubps	%ymm2, %ymm1, %ymm2
	vmulps	%ymm0, %ymm2, %ymm2
	vsubps	%ymm2, %ymm1, %ymm2
	vmulps	%ymm0, %ymm2, %ymm2
	vsubps	%ymm3, %ymm1, %ymm3
	vmulps	%ymm0, %ymm3, %ymm3
	vsubps	%ymm3, %ymm1, %ymm3
	vmulps	%ymm0, %ymm3, %ymm3
	vsubps	%ymm3, %ymm1, %ymm3
	vmulps	%ymm0, %ymm3, %ymm3
	vsubps	%ymm3, %ymm1, %ymm3
	vsubps	%ymm2, %ymm1, %ymm2
	vmulps	%ymm0, %ymm2, %ymm2
	vsubps	%ymm2, %ymm1, %ymm2
	vmulps	%ymm0, %ymm2, %ymm2
	vsubps	%ymm2, %ymm1, %ymm2
	vmulps	%ymm0, %ymm2, %ymm2
	vsubps	%ymm2, %ymm1, %ymm2
	vmulps	%ymm0, %ymm3, %ymm3
	vsubps	%ymm3, %ymm1, %ymm3
	vmulps	%ymm0, %ymm3, %ymm3
	vsubps	%ymm3, %ymm1, %ymm3
	vmulps	%ymm0, %ymm3, %ymm3
	vsubps	%ymm3, %ymm1, %ymm3
	vmulps	%ymm0, %ymm3, %ymm3
	vmulps	%ymm0, %ymm2, %ymm2
	vsubps	%ymm2, %ymm1, %ymm2
	vmulps	%ymm0, %ymm2, %ymm2
	vsubps	%ymm2, %ymm1, %ymm2
	vmulps	%ymm0, %ymm2, %ymm2
	vsubps	%ymm2, %ymm1, %ymm2
	vmulps	%ymm0, %ymm2, %ymm2
	vsubps	%ymm3, %ymm1, %ymm3
	vmulps	%ymm0, %ymm3, %ymm3
	vsubps	%ymm3, %ymm1, %ymm3
	vmulps	%ymm0, %ymm3, %ymm3
	vsubps	%ymm3, %ymm1, %ymm3
	vmulps	%ymm0, %ymm3, %ymm3
	vsubps	%ymm3, %ymm1, %ymm3
	vsubps	%ymm2, %ymm1, %ymm2
	vmulps	%ymm0, %ymm2, %ymm2
	vsubps	%ymm2, %ymm1, %ymm2
	vmulps	%ymm0, %ymm2, %ymm2
	vsubps	%ymm2, %ymm1, %ymm2
	vmulps	%ymm0, %ymm2, %ymm2
	vsubps	%ymm2, %ymm1, %ymm2
	vmulps	%ymm0, %ymm3, %ymm3
	vsubps	%ymm3, %ymm1, %ymm3
	vmulps	%ymm0, %ymm3, %ymm3
	vsubps	%ymm3, %ymm1, %ymm3
	vmulps	%ymm0, %ymm3, %ymm3
	vsubps	%ymm3, %ymm1, %ymm3
	vmulps	%ymm0, %ymm3, %ymm3
	vmulps	%ymm0, %ymm2, %ymm2
	vsubps	%ymm2, %ymm1, %ymm2
	vmulps	%ymm0, %ymm2, %ymm2
	vsubps	%ymm2, %ymm1, %ymm2
	vmulps	%ymm0, %ymm2, %ymm2
	vsubps	%ymm2, %ymm1, %ymm2
	vmulps	%ymm0, %ymm2, %ymm2
	vsubps	%ymm3, %ymm1, %ymm3
	vmulps	%ymm0, %ymm3, %ymm3
	vsubps	%ymm3, %ymm1, %ymm3
	vmulps	%ymm0, %ymm3, %ymm3
	vsubps	%ymm3, %ymm1, %ymm3
	vmulps	%ymm0, %ymm3, %ymm3
	vsubps	%ymm3, %ymm1, %ymm3
	vsubps	%ymm2, %ymm1, %ymm2
	vmulps	%ymm0, %ymm2, %ymm2
	vsubps	%ymm2, %ymm1, %ymm2
	vmulps	%ymm0, %ymm2, %ymm2
	vsubps	%ymm2, %ymm1, %ymm2
	vmulps	%ymm0, %ymm2, %ymm2
	vsubps	%ymm2, %ymm1, %ymm2
	vmulps	%ymm0, %ymm3, %ymm3
	vsubps	%ymm3, %ymm1, %ymm3
	vmulps	%ymm0, %ymm3, %ymm3
	vsubps	%ymm3, %ymm1, %ymm3
	vmulps	%ymm0, %ymm3, %ymm3
	vsubps	%ymm3, %ymm1, %ymm3
	vmulps	%ymm0, %ymm3, %ymm3
	vmulps	%ymm0, %ymm2, %ymm2
	vsubps	%ymm2, %ymm1, %ymm2
	vmulps	%ymm0, %ymm2, %ymm2
	vsubps	%ymm2, %ymm1, %ymm2
	vmulps	%ymm0, %ymm2, %ymm2
	vsubps	%ymm2, %ymm1, %ymm2
	vmulps	%ymm0, %ymm2, %ymm2
	vsubps	%ymm3, %ymm1, %ymm3
	vmulps	%ymm0, %ymm3, %ymm3
	vsubps	%ymm3, %ymm1, %ymm3
	vmulps	%ymm0, %ymm3, %ymm3
	vsubps	%ymm3, %ymm1, %ymm3
	vmulps	%ymm0, %ymm3, %ymm3
	vsubps	%ymm3, %ymm1, %ymm3
	vsubps	%ymm2, %ymm1, %ymm2
	vmulps	%ymm0, %ymm2, %ymm2
	vsubps	%ymm2, %ymm1, %ymm2
	vmulps	%ymm0, %ymm2, %ymm2
	vsubps	%ymm2, %ymm1, %ymm2
	vmulps	%ymm0, %ymm2, %ymm2
	vsubps	%ymm2, %ymm1, %ymm2
	vmulps	%ymm0, %ymm3, %ymm3
	vsubps	%ymm3, %ymm1, %ymm3
	vmulps	%ymm0, %ymm3, %ymm3
	vsubps	%ymm3, %ymm1, %ymm3
	vmulps	%ymm0, %ymm3, %ymm3
	vsubps	%ymm3, %ymm1, %ymm3
	vmulps	%ymm0, %ymm3, %ymm3
	vmulps	%ymm0, %ymm2, %ymm2
	vsubps	%ymm2, %ymm1, %ymm2
	vmulps	%ymm0, %ymm2, %ymm2
	vsubps	%ymm2, %ymm1, %ymm2
	vmulps	%ymm0, %ymm2, %ymm2
	vsubps	%ymm2, %ymm1, %ymm2
	vmulps	%ymm0, %ymm2, %ymm2
	vsubps	%ymm3, %ymm1, %ymm3
	vmulps	%ymm0, %ymm3, %ymm3
	vsubps	%ymm3, %ymm1, %ymm3
	vmulps	%ymm0, %ymm3, %ymm3
	vsubps	%ymm3, %ymm1, %ymm3
	vmulps	%ymm0, %ymm3, %ymm3
	vsubps	%ymm3, %ymm1, %ymm3
	vsubps	%ymm2, %ymm1, %ymm2
	vmulps	%ymm0, %ymm2, %ymm2
	vsubps	%ymm2, %ymm1, %ymm2
	vmulps	%ymm0, %ymm2, %ymm2
	vsubps	%ymm2, %ymm1, %ymm2
	vmulps	%ymm0, %ymm2, %ymm2
	vsubps	%ymm2, %ymm1, %ymm2
	vmulps	%ymm0, %ymm3, %ymm3
	vsubps	%ymm3, %ymm1, %ymm3
	vmulps	%ymm0, %ymm3, %ymm3
	vsubps	%ymm3, %ymm1, %ymm3
	vmulps	%ymm0, %ymm3, %ymm3
	vsubps	%ymm3, %ymm1, %ymm3
	vmulps	%ymm0, %ymm3, %ymm3
	vmulps	%ymm0, %ymm2, %ymm2
	vsubps	%ymm2, %ymm1, %ymm2
	vmulps	%ymm0, %ymm2, %ymm2
	vsubps	%ymm2, %ymm1, %ymm2
	vmulps	%ymm0, %ymm2, %ymm2
	vsubps	%ymm2, %ymm1, %ymm2
	vmulps	%ymm0, %ymm2, %ymm2
	vsubps	%ymm3, %ymm1, %ymm3
	vmulps	%ymm0, %ymm3, %ymm3
	vsubps	%ymm3, %ymm1, %ymm3
	vmulps	%ymm0, %ymm3, %ymm3
	vsubps	%ymm3, %ymm1, %ymm3
	vmulps	%ymm0, %ymm3, %ymm3
	vsubps	%ymm3, %ymm1, %ymm3
	vsubps	%ymm2, %ymm1, %ymm2
	vmulps	%ymm0, %ymm2, %ymm2
	vsubps	%ymm2, %ymm1, %ymm2
	vmulps	%ymm0, %ymm2, %ymm2
	vsubps	%ymm2, %ymm1, %ymm2
	vmulps	%ymm0, %ymm2, %ymm2
	vsubps	%ymm2, %ymm1, %ymm2
	vmulps	%ymm0, %ymm3, %ymm3
	vsubps	%ymm3, %ymm1, %ymm3
	vmulps	%ymm0, %ymm3, %ymm3
	vsubps	%ymm3, %ymm1, %ymm3
	vmulps	%ymm0, %ymm3, %ymm3
	vsubps	%ymm3, %ymm1, %ymm3
	vmulps	%ymm0, %ymm3, %ymm3
	vmulps	%ymm0, %ymm2, %ymm2
	vsubps	%ymm2, %ymm1, %ymm2
	vmulps	%ymm0, %ymm2, %ymm2
	vsubps	%ymm2, %ymm1, %ymm2
	vmulps	%ymm0, %ymm2, %ymm2
	vsubps	%ymm2, %ymm1, %ymm2
	vmulps	%ymm0, %ymm2, %ymm2
	vsubps	%ymm3, %ymm1, %ymm3
	vmulps	%ymm0, %ymm3, %ymm3
	vsubps	%ymm3, %ymm1, %ymm3
	vmulps	%ymm0, %ymm3, %ymm3
	vsubps	%ymm3, %ymm1, %ymm3
	vmulps	%ymm0, %ymm3, %ymm3
	vsubps	%ymm3, %ymm1, %ymm3
	vsubps	%ymm2, %ymm1, %ymm2
	vmulps	%ymm0, %ymm2, %ymm2
	vsubps	%ymm2, %ymm1, %ymm2
	vmulps	%ymm0, %ymm2, %ymm2
	vsubps	%ymm2, %ymm1, %ymm2
	vmulps	%ymm0, %ymm2, %ymm2
	vsubps	%ymm2, %ymm1, %ymm2
	vmulps	%ymm0, %ymm3, %ymm3
	vsubps	%ymm3, %ymm1, %ymm3
	vmulps	%ymm0, %ymm3, %ymm3
	vsubps	%ymm3, %ymm1, %ymm3
	vmulps	%ymm0, %ymm3, %ymm3
	vsubps	%ymm3, %ymm1, %ymm3
	vmulps	%ymm0, %ymm3, %ymm3
	vmulps	%ymm0, %ymm2, %ymm2
	vsubps	%ymm2, %ymm1, %ymm2
	vmulps	%ymm0, %ymm2, %ymm2
	vsubps	%ymm2, %ymm1, %ymm2
	vmulps	%ymm0, %ymm2, %ymm2
	vsubps	%ymm2, %ymm1, %ymm2
	vmulps	%ymm0, %ymm2, %ymm2
	vsubps	%ymm3, %ymm1, %ymm3
	vmulps	%ymm0, %ymm3, %ymm3
	vsubps	%ymm3, %ymm1, %ymm3
	vmulps	%ymm0, %ymm3, %ymm3
	vsubps	%ymm3, %ymm1, %ymm3
	vmulps	%ymm0, %ymm3, %ymm3
	vsubps	%ymm3, %ymm1, %ymm3
	vsubps	%ymm2, %ymm1, %ymm2
	vmulps	%ymm0, %ymm2, %ymm2
	vsubps	%ymm2, %ymm1, %ymm2
	vmulps	%ymm0, %ymm2, %ymm2
	vsubps	%ymm2, %ymm1, %ymm2
	vmulps	%ymm0, %ymm2, %ymm2
	vsubps	%ymm2, %ymm1, %ymm2
	vmulps	%ymm0, %ymm3, %ymm3
	vsubps	%ymm3, %ymm1, %ymm3
	vmulps	%ymm0, %ymm3, %ymm3
	vsubps	%ymm3, %ymm1, %ymm3
	vmulps	%ymm0, %ymm3, %ymm3
	vsubps	%ymm3, %ymm1, %ymm3
	vmulps	%ymm0, %ymm3, %ymm3
	vmulps	%ymm0, %ymm2, %ymm2
	vsubps	%ymm2, %ymm1, %ymm2
	vmulps	%ymm0, %ymm2, %ymm2
	vsubps	%ymm2, %ymm1, %ymm2
	vmulps	%ymm0, %ymm2, %ymm2
	vsubps	%ymm2, %ymm1, %ymm2
	vmulps	%ymm0, %ymm2, %ymm2
	vsubps	%ymm3, %ymm1, %ymm3
	vmulps	%ymm0, %ymm3, %ymm3
	vsubps	%ymm3, %ymm1, %ymm3
	vmulps	%ymm0, %ymm3, %ymm3
	vsubps	%ymm3, %ymm1, %ymm3
	vmulps	%ymm0, %ymm3, %ymm3
	vsubps	%ymm3, %ymm1, %ymm3
	vsubps	%ymm2, %ymm1, %ymm2
	vmulps	%ymm0, %ymm2, %ymm2
	vsubps	%ymm2, %ymm1, %ymm2
	vmulps	%ymm0, %ymm2, %ymm2
	vsubps	%ymm2, %ymm1, %ymm2
	vmulps	%ymm0, %ymm2, %ymm2
	vsubps	%ymm2, %ymm1, %ymm2
	vmulps	%ymm0, %ymm3, %ymm3
	vsubps	%ymm3, %ymm1, %ymm3
	vmulps	%ymm0, %ymm3, %ymm3
	vsubps	%ymm3, %ymm1, %ymm3
	vmulps	%ymm0, %ymm3, %ymm3
	vsubps	%ymm3, %ymm1, %ymm3
	vmulps	%ymm0, %ymm3, %ymm3
	vmulps	%ymm0, %ymm2, %ymm2
	vsubps	%ymm2, %ymm1, %ymm2
	vmulps	%ymm0, %ymm2, %ymm2
	vsubps	%ymm2, %ymm1, %ymm2
	vmulps	%ymm0, %ymm2, %ymm2
	vsubps	%ymm2, %ymm1, %ymm2
	vmulps	%ymm0, %ymm2, %ymm2
	vsubps	%ymm3, %ymm1, %ymm3
	vmulps	%ymm0, %ymm3, %ymm3
	vsubps	%ymm3, %ymm1, %ymm3
	vmulps	%ymm0, %ymm3, %ymm3
	vsubps	%ymm3, %ymm1, %ymm3
	vmulps	%ymm0, %ymm3, %ymm3
	vsubps	%ymm3, %ymm1, %ymm3
	vsubps	%ymm2, %ymm1, %ymm2
	vmulps	%ymm0, %ymm2, %ymm2
	vsubps	%ymm2, %ymm1, %ymm2
	vmulps	%ymm0, %ymm2, %ymm2
	vsubps	%ymm2, %ymm1, %ymm2
	vmulps	%ymm0, %ymm2, %ymm2
	vsubps	%ymm2, %ymm1, %ymm2
	vmulps	%ymm0, %ymm3, %ymm3
	vsubps	%ymm3, %ymm1, %ymm3
	vmulps	%ymm0, %ymm3, %ymm3
	vsubps	%ymm3, %ymm1, %ymm3
	vmulps	%ymm0, %ymm3, %ymm3
	vsubps	%ymm3, %ymm1, %ymm3
	vmulps	%ymm0, %ymm3, %ymm3
	vmulps	%ymm0, %ymm2, %ymm2
	vsubps	%ymm2, %ymm1, %ymm2
	vmulps	%ymm0, %ymm2, %ymm2
	vsubps	%ymm2, %ymm1, %ymm2
	vmulps	%ymm0, %ymm2, %ymm2
	vsubps	%ymm2, %ymm1, %ymm2
	vmulps	%ymm0, %ymm2, %ymm2
	vsubps	%ymm3, %ymm1, %ymm3
	vmulps	%ymm0, %ymm3, %ymm3
	vsubps	%ymm3, %ymm1, %ymm3
	vmulps	%ymm0, %ymm3, %ymm3
	vsubps	%ymm3, %ymm1, %ymm3
	vmulps	%ymm0, %ymm3, %ymm3
	vsubps	%ymm3, %ymm1, %ymm3
	vsubps	%ymm2, %ymm1, %ymm2
	vmulps	%ymm0, %ymm2, %ymm2
	vsubps	%ymm2, %ymm1, %ymm2
	vmulps	%ymm0, %ymm2, %ymm2
	vsubps	%ymm2, %ymm1, %ymm2
	vmulps	%ymm0, %ymm2, %ymm2
	vsubps	%ymm2, %ymm1, %ymm2
	vmulps	%ymm0, %ymm3, %ymm3
	vsubps	%ymm3, %ymm1, %ymm3
	vmulps	%ymm0, %ymm3, %ymm3
	vsubps	%ymm3, %ymm1, %ymm3
	vmulps	%ymm0, %ymm3, %ymm3
	vsubps	%ymm3, %ymm1, %ymm3
	vmulps	%ymm0, %ymm3, %ymm3
	vmulps	%ymm0, %ymm2, %ymm2
	vsubps	%ymm2, %ymm1, %ymm2
	vmulps	%ymm0, %ymm2, %ymm2
	vsubps	%ymm2, %ymm1, %ymm2
	vmulps	%ymm0, %ymm2, %ymm2
	vsubps	%ymm2, %ymm1, %ymm2
	vmulps	%ymm0, %ymm2, %ymm2
	vsubps	%ymm3, %ymm1, %ymm3
	vmulps	%ymm0, %ymm3, %ymm3
	vsubps	%ymm3, %ymm1, %ymm3
	vmulps	%ymm0, %ymm3, %ymm3
	vsubps	%ymm3, %ymm1, %ymm3
	vmulps	%ymm0, %ymm3, %ymm3
	vsubps	%ymm3, %ymm1, %ymm3
	vsubps	%ymm2, %ymm1, %ymm2
	vmulps	%ymm0, %ymm2, %ymm2
	vsubps	%ymm2, %ymm1, %ymm2
	vmulps	%ymm0, %ymm2, %ymm2
	vsubps	%ymm2, %ymm1, %ymm2
	vmulps	%ymm0, %ymm2, %ymm2
	vsubps	%ymm2, %ymm1, %ymm2
	vmulps	%ymm0, %ymm3, %ymm3
	vsubps	%ymm3, %ymm1, %ymm3
	vmulps	%ymm0, %ymm3, %ymm3
	vsubps	%ymm3, %ymm1, %ymm3
	vmulps	%ymm0, %ymm3, %ymm3
	vsubps	%ymm3, %ymm1, %ymm3
	vmulps	%ymm0, %ymm3, %ymm3
	vmulps	%ymm0, %ymm2, %ymm2
	vsubps	%ymm2, %ymm1, %ymm2
	vmulps	%ymm0, %ymm2, %ymm2
	vsubps	%ymm2, %ymm1, %ymm2
	vmulps	%ymm0, %ymm2, %ymm2
	vsubps	%ymm2, %ymm1, %ymm2
	vmulps	%ymm0, %ymm2, %ymm2
	vsubps	%ymm3, %ymm1, %ymm3
	vmulps	%ymm0, %ymm3, %ymm3
	vsubps	%ymm3, %ymm1, %ymm3
	vmulps	%ymm0, %ymm3, %ymm3
	vsubps	%ymm3, %ymm1, %ymm3
	vmulps	%ymm0, %ymm3, %ymm3
	vsubps	%ymm3, %ymm1, %ymm3
	vsubps	%ymm2, %ymm1, %ymm2
	vmulps	%ymm0, %ymm2, %ymm2
	vsubps	%ymm2, %ymm1, %ymm2
	vmulps	%ymm0, %ymm2, %ymm2
	vsubps	%ymm2, %ymm1, %ymm2
	vmulps	%ymm0, %ymm2, %ymm2
	vsubps	%ymm2, %ymm1, %ymm2
	vmulps	%ymm0, %ymm3, %ymm3
	vsubps	%ymm3, %ymm1, %ymm3
	vmulps	%ymm0, %ymm3, %ymm3
	vsubps	%ymm3, %ymm1, %ymm3
	vmulps	%ymm0, %ymm3, %ymm3
	vsubps	%ymm3, %ymm1, %ymm3
	vmulps	%ymm0, %ymm3, %ymm3
	vmulps	%ymm0, %ymm2, %ymm2
	vsubps	%ymm2, %ymm1, %ymm2
	vmulps	%ymm0, %ymm2, %ymm2
	vsubps	%ymm2, %ymm1, %ymm2
	vmulps	%ymm0, %ymm2, %ymm2
	vsubps	%ymm2, %ymm1, %ymm2
	vmulps	%ymm0, %ymm2, %ymm2
	vsubps	%ymm3, %ymm1, %ymm3
	vmulps	%ymm0, %ymm3, %ymm3
	vsubps	%ymm3, %ymm1, %ymm3
	vmulps	%ymm0, %ymm3, %ymm3
	vsubps	%ymm3, %ymm1, %ymm3
	vmulps	%ymm0, %ymm3, %ymm3
	vsubps	%ymm3, %ymm1, %ymm3
	vsubps	%ymm2, %ymm1, %ymm2
	vmulps	%ymm0, %ymm2, %ymm2
	vsubps	%ymm2, %ymm1, %ymm2
	vmulps	%ymm0, %ymm2, %ymm2
	vsubps	%ymm2, %ymm1, %ymm2
	vmulps	%ymm0, %ymm2, %ymm2
	vsubps	%ymm2, %ymm1, %ymm2
	vmulps	%ymm0, %ymm3, %ymm3
	vsubps	%ymm3, %ymm1, %ymm3
	vmulps	%ymm0, %ymm3, %ymm3
	vsubps	%ymm3, %ymm1, %ymm3
	vmulps	%ymm0, %ymm3, %ymm3
	vsubps	%ymm3, %ymm1, %ymm3
	vmulps	%ymm0, %ymm3, %ymm3
	vmulps	%ymm0, %ymm2, %ymm2
	vsubps	%ymm2, %ymm1, %ymm2
	vmulps	%ymm0, %ymm2, %ymm2
	vsubps	%ymm2, %ymm1, %ymm2
	vmulps	%ymm0, %ymm2, %ymm2
	vsubps	%ymm2, %ymm1, %ymm2
	vmulps	%ymm0, %ymm2, %ymm2
	vsubps	%ymm3, %ymm1, %ymm3
	vmulps	%ymm0, %ymm3, %ymm3
	vsubps	%ymm3, %ymm1, %ymm3
	vmulps	%ymm0, %ymm3, %ymm3
	vsubps	%ymm3, %ymm1, %ymm3
	vmulps	%ymm0, %ymm3, %ymm3
	vsubps	%ymm3, %ymm1, %ymm3
	vsubps	%ymm2, %ymm1, %ymm2
	vmulps	%ymm0, %ymm2, %ymm2
	vsubps	%ymm2, %ymm1, %ymm2
	vmulps	%ymm0, %ymm2, %ymm2
	vsubps	%ymm2, %ymm1, %ymm2
	vmulps	%ymm0, %ymm2, %ymm2
	vsubps	%ymm2, %ymm1, %ymm2
	vmulps	%ymm0, %ymm3, %ymm3
	vsubps	%ymm3, %ymm1, %ymm3
	vmulps	%ymm0, %ymm3, %ymm3
	vsubps	%ymm3, %ymm1, %ymm3
	vmulps	%ymm0, %ymm3, %ymm3
	vsubps	%ymm3, %ymm1, %ymm3
	vmulps	%ymm0, %ymm3, %ymm3
	vmulps	%ymm0, %ymm2, %ymm2
	vsubps	%ymm2, %ymm1, %ymm2
	vmulps	%ymm0, %ymm2, %ymm2
	vsubps	%ymm2, %ymm1, %ymm2
	vmulps	%ymm0, %ymm2, %ymm2
	vsubps	%ymm2, %ymm1, %ymm2
	vmulps	%ymm0, %ymm2, %ymm2
	vsubps	%ymm3, %ymm1, %ymm3
	vmulps	%ymm0, %ymm3, %ymm3
	vsubps	%ymm3, %ymm1, %ymm3
	vmulps	%ymm0, %ymm3, %ymm3
	vsubps	%ymm3, %ymm1, %ymm3
	vmulps	%ymm0, %ymm3, %ymm3
	vsubps	%ymm3, %ymm1, %ymm3
	vsubps	%ymm2, %ymm1, %ymm2
	vmulps	%ymm0, %ymm2, %ymm2
	vsubps	%ymm2, %ymm1, %ymm2
	vmulps	%ymm0, %ymm2, %ymm2
	vsubps	%ymm2, %ymm1, %ymm2
	vmulps	%ymm0, %ymm2, %ymm2
	vsubps	%ymm2, %ymm1, %ymm2
	vmulps	%ymm0, %ymm3, %ymm3
	vsubps	%ymm3, %ymm1, %ymm3
	vmulps	%ymm0, %ymm3, %ymm3
	vsubps	%ymm3, %ymm1, %ymm3
	vmulps	%ymm0, %ymm3, %ymm3
	vsubps	%ymm3, %ymm1, %ymm3
	vmulps	%ymm0, %ymm3, %ymm3
	vmulps	%ymm0, %ymm2, %ymm2
	vsubps	%ymm2, %ymm1, %ymm2
	vmulps	%ymm0, %ymm2, %ymm2
	vsubps	%ymm2, %ymm1, %ymm2
	vmulps	%ymm0, %ymm2, %ymm2
	vsubps	%ymm2, %ymm1, %ymm2
	vmulps	%ymm0, %ymm2, %ymm2
	vsubps	%ymm3, %ymm1, %ymm3
	vmulps	%ymm0, %ymm3, %ymm3
	vsubps	%ymm3, %ymm1, %ymm3
	vmulps	%ymm0, %ymm3, %ymm3
	vsubps	%ymm3, %ymm1, %ymm3
	vmulps	%ymm0, %ymm3, %ymm3
	vsubps	%ymm3, %ymm1, %ymm3
	vsubps	%ymm2, %ymm1, %ymm2
	vmulps	%ymm0, %ymm2, %ymm2
	vsubps	%ymm2, %ymm1, %ymm2
	vmulps	%ymm0, %ymm2, %ymm2
	vsubps	%ymm2, %ymm1, %ymm2
	vmulps	%ymm0, %ymm2, %ymm2
	vsubps	%ymm2, %ymm1, %ymm2
	vmulps	%ymm0, %ymm3, %ymm3
	vsubps	%ymm3, %ymm1, %ymm3
	vmulps	%ymm0, %ymm3, %ymm3
	vsubps	%ymm3, %ymm1, %ymm3
	vmulps	%ymm0, %ymm3, %ymm3
	vsubps	%ymm3, %ymm1, %ymm3
	vmulps	%ymm0, %ymm3, %ymm3
	vmulps	%ymm0, %ymm2, %ymm2
	vsubps	%ymm2, %ymm1, %ymm2
	vmulps	%ymm0, %ymm2, %ymm2
	vsubps	%ymm2, %ymm1, %ymm2
	vmulps	%ymm0, %ymm2, %ymm2
	vsubps	%ymm2, %ymm1, %ymm2
	vmulps	%ymm0, %ymm2, %ymm2
	vsubps	%ymm3, %ymm1, %ymm3
	vmulps	%ymm0, %ymm3, %ymm3
	vsubps	%ymm3, %ymm1, %ymm3
	vmulps	%ymm0, %ymm3, %ymm3
	vsubps	%ymm3, %ymm1, %ymm3
	vmulps	%ymm0, %ymm3, %ymm3
	vsubps	%ymm3, %ymm1, %ymm3
	vsubps	%ymm2, %ymm1, %ymm2
	vmulps	%ymm0, %ymm2, %ymm2
	vsubps	%ymm2, %ymm1, %ymm2
	vmulps	%ymm0, %ymm2, %ymm2
	vsubps	%ymm2, %ymm1, %ymm2
	vmulps	%ymm0, %ymm2, %ymm2
	vsubps	%ymm2, %ymm1, %ymm2
	vmulps	%ymm0, %ymm3, %ymm3
	vsubps	%ymm3, %ymm1, %ymm3
	vmulps	%ymm0, %ymm3, %ymm3
	vsubps	%ymm3, %ymm1, %ymm3
	vmulps	%ymm0, %ymm3, %ymm3
	vsubps	%ymm3, %ymm1, %ymm3
	vmulps	%ymm0, %ymm3, %ymm3
	vmulps	%ymm0, %ymm2, %ymm2
	vsubps	%ymm2, %ymm1, %ymm2
	vmulps	%ymm0, %ymm2, %ymm2
	vsubps	%ymm2, %ymm1, %ymm2
	vmulps	%ymm0, %ymm2, %ymm2
	vsubps	%ymm2, %ymm1, %ymm2
	vmulps	%ymm0, %ymm2, %ymm2
	vsubps	%ymm3, %ymm1, %ymm3
	vmulps	%ymm0, %ymm3, %ymm3
	vsubps	%ymm3, %ymm1, %ymm3
	vmulps	%ymm0, %ymm3, %ymm3
	vsubps	%ymm3, %ymm1, %ymm3
	vmulps	%ymm0, %ymm3, %ymm3
	vsubps	%ymm3, %ymm1, %ymm3
	vsubps	%ymm2, %ymm1, %ymm2
	vmulps	%ymm0, %ymm2, %ymm2
	vsubps	%ymm2, %ymm1, %ymm2
	vmulps	%ymm0, %ymm2, %ymm2
	vsubps	%ymm2, %ymm1, %ymm2
	vmulps	%ymm0, %ymm2, %ymm2
	vsubps	%ymm2, %ymm1, %ymm2
	vmulps	%ymm0, %ymm3, %ymm3
	vsubps	%ymm3, %ymm1, %ymm3
	vmulps	%ymm0, %ymm3, %ymm3
	vsubps	%ymm3, %ymm1, %ymm3
	vmulps	%ymm0, %ymm3, %ymm3
	vsubps	%ymm3, %ymm1, %ymm3
	vmulps	%ymm0, %ymm3, %ymm3
	vmulps	%ymm0, %ymm2, %ymm2
	vsubps	%ymm2, %ymm1, %ymm2
	vmulps	%ymm0, %ymm2, %ymm2
	vsubps	%ymm2, %ymm1, %ymm2
	vmulps	%ymm0, %ymm2, %ymm2
	vsubps	%ymm2, %ymm1, %ymm2
	vmulps	%ymm0, %ymm2, %ymm2
	vsubps	%ymm3, %ymm1, %ymm3
	vmulps	%ymm0, %ymm3, %ymm3
	vsubps	%ymm3, %ymm1, %ymm3
	vmulps	%ymm0, %ymm3, %ymm3
	vsubps	%ymm3, %ymm1, %ymm3
	vmulps	%ymm0, %ymm3, %ymm3
	vsubps	%ymm3, %ymm1, %ymm3
	vsubps	%ymm2, %ymm1, %ymm2
	vmulps	%ymm0, %ymm2, %ymm2
	vsubps	%ymm2, %ymm1, %ymm2
	vmulps	%ymm0, %ymm2, %ymm2
	vsubps	%ymm2, %ymm1, %ymm2
	vmulps	%ymm0, %ymm2, %ymm2
	vsubps	%ymm2, %ymm1, %ymm2
	vmulps	%ymm0, %ymm3, %ymm3
	vsubps	%ymm3, %ymm1, %ymm3
	vmulps	%ymm0, %ymm3, %ymm3
	vsubps	%ymm3, %ymm1, %ymm3
	vmulps	%ymm0, %ymm3, %ymm3
	vsubps	%ymm3, %ymm1, %ymm3
	vmulps	%ymm0, %ymm3, %ymm3
	vmulps	%ymm0, %ymm2, %ymm2
	vsubps	%ymm2, %ymm1, %ymm2
	vmulps	%ymm0, %ymm2, %ymm2
	vsubps	%ymm2, %ymm1, %ymm2
	vmulps	%ymm0, %ymm2, %ymm2
	vsubps	%ymm2, %ymm1, %ymm2
	vmulps	%ymm0, %ymm2, %ymm2
	vsubps	%ymm3, %ymm1, %ymm3
	vmulps	%ymm0, %ymm3, %ymm3
	vsubps	%ymm3, %ymm1, %ymm3
	vmulps	%ymm0, %ymm3, %ymm3
	vsubps	%ymm3, %ymm1, %ymm3
	vmulps	%ymm0, %ymm3, %ymm3
	vsubps	%ymm3, %ymm1, %ymm3
	vsubps	%ymm2, %ymm1, %ymm2
	vmulps	%ymm0, %ymm2, %ymm2
	vsubps	%ymm2, %ymm1, %ymm2
	vmulps	%ymm0, %ymm2, %ymm2
	vsubps	%ymm2, %ymm1, %ymm2
	vmulps	%ymm0, %ymm2, %ymm2
	vsubps	%ymm2, %ymm1, %ymm2
	vmulps	%ymm0, %ymm3, %ymm3
	vsubps	%ymm3, %ymm1, %ymm3
	vmulps	%ymm0, %ymm3, %ymm3
	vsubps	%ymm3, %ymm1, %ymm3
	vmulps	%ymm0, %ymm3, %ymm3
	vsubps	%ymm3, %ymm1, %ymm3
	vmulps	%ymm0, %ymm3, %ymm3
	vmulps	%ymm0, %ymm2, %ymm2
	vsubps	%ymm2, %ymm1, %ymm2
	vmulps	%ymm0, %ymm2, %ymm2
	vsubps	%ymm2, %ymm1, %ymm2
	vmulps	%ymm0, %ymm2, %ymm2
	vsubps	%ymm2, %ymm1, %ymm2
	vmulps	%ymm0, %ymm2, %ymm2
	vsubps	%ymm3, %ymm1, %ymm3
	vmulps	%ymm0, %ymm3, %ymm3
	vsubps	%ymm3, %ymm1, %ymm3
	vmulps	%ymm0, %ymm3, %ymm3
	vsubps	%ymm3, %ymm1, %ymm3
	vmulps	%ymm0, %ymm3, %ymm3
	vsubps	%ymm3, %ymm1, %ymm3
	vsubps	%ymm2, %ymm1, %ymm2
	vmulps	%ymm0, %ymm2, %ymm2
	vsubps	%ymm2, %ymm1, %ymm2
	vmulps	%ymm0, %ymm2, %ymm2
	vsubps	%ymm2, %ymm1, %ymm2
	vmulps	%ymm0, %ymm2, %ymm2
	vsubps	%ymm2, %ymm1, %ymm2
	vmulps	%ymm0, %ymm3, %ymm3
	vsubps	%ymm3, %ymm1, %ymm3
	vmulps	%ymm0, %ymm3, %ymm3
	vsubps	%ymm3, %ymm1, %ymm3
	vmulps	%ymm0, %ymm3, %ymm3
	vsubps	%ymm3, %ymm1, %ymm3
	vmulps	%ymm0, %ymm3, %ymm3
	vmulps	%ymm0, %ymm2, %ymm2
	vsubps	%ymm2, %ymm1, %ymm2
	vmulps	%ymm0, %ymm2, %ymm2
	vsubps	%ymm2, %ymm1, %ymm2
	vmulps	%ymm0, %ymm2, %ymm2
	vsubps	%ymm2, %ymm1, %ymm2
	vmulps	%ymm0, %ymm2, %ymm2
	vsubps	%ymm3, %ymm1, %ymm3
	vmulps	%ymm0, %ymm3, %ymm3
	vsubps	%ymm3, %ymm1, %ymm3
	vmulps	%ymm0, %ymm3, %ymm3
	vsubps	%ymm3, %ymm1, %ymm3
	vmulps	%ymm0, %ymm3, %ymm3
	vsubps	%ymm3, %ymm1, %ymm3
	vsubps	%ymm2, %ymm1, %ymm2
	vmulps	%ymm0, %ymm2, %ymm2
	vsubps	%ymm2, %ymm1, %ymm2
	vmulps	%ymm0, %ymm2, %ymm2
	vsubps	%ymm2, %ymm1, %ymm2
	vmulps	%ymm0, %ymm2, %ymm2
	vsubps	%ymm2, %ymm1, %ymm2
	vmulps	%ymm0, %ymm3, %ymm3
	vsubps	%ymm3, %ymm1, %ymm3
	vmulps	%ymm0, %ymm3, %ymm3
	vsubps	%ymm3, %ymm1, %ymm3
	vmulps	%ymm0, %ymm3, %ymm3
	vsubps	%ymm3, %ymm1, %ymm3
	vmulps	%ymm0, %ymm3, %ymm3
	vmulps	%ymm0, %ymm2, %ymm2
	vsubps	%ymm2, %ymm1, %ymm2
	vmulps	%ymm0, %ymm2, %ymm2
	vsubps	%ymm2, %ymm1, %ymm2
	vmulps	%ymm0, %ymm2, %ymm2
	vsubps	%ymm2, %ymm1, %ymm2
	vmulps	%ymm0, %ymm2, %ymm2
	vsubps	%ymm3, %ymm1, %ymm3
	vmulps	%ymm0, %ymm3, %ymm3
	vsubps	%ymm3, %ymm1, %ymm3
	vmulps	%ymm0, %ymm3, %ymm3
	vsubps	%ymm3, %ymm1, %ymm3
	vmulps	%ymm0, %ymm3, %ymm3
	vsubps	%ymm3, %ymm1, %ymm3
	vsubps	%ymm2, %ymm1, %ymm2
	vmulps	%ymm0, %ymm2, %ymm2
	vsubps	%ymm2, %ymm1, %ymm2
	vmulps	%ymm0, %ymm2, %ymm2
	vsubps	%ymm2, %ymm1, %ymm2
	vmulps	%ymm0, %ymm2, %ymm2
	vsubps	%ymm2, %ymm1, %ymm2
	vmulps	%ymm0, %ymm3, %ymm3
	vsubps	%ymm3, %ymm1, %ymm3
	vmulps	%ymm0, %ymm3, %ymm3
	vsubps	%ymm3, %ymm1, %ymm3
	vmulps	%ymm0, %ymm3, %ymm3
	vsubps	%ymm3, %ymm1, %ymm3
	vmulps	%ymm0, %ymm3, %ymm3
	vmulps	%ymm0, %ymm2, %ymm2
	vsubps	%ymm2, %ymm1, %ymm2
	vmulps	%ymm0, %ymm2, %ymm2
	vsubps	%ymm2, %ymm1, %ymm2
	vmulps	%ymm0, %ymm2, %ymm2
	vsubps	%ymm2, %ymm1, %ymm2
	vmulps	%ymm0, %ymm2, %ymm2
	vsubps	%ymm3, %ymm1, %ymm3
	vmulps	%ymm0, %ymm3, %ymm3
	vsubps	%ymm3, %ymm1, %ymm3
	vmulps	%ymm0, %ymm3, %ymm3
	vsubps	%ymm3, %ymm1, %ymm3
	vmulps	%ymm0, %ymm3, %ymm3
	vsubps	%ymm3, %ymm1, %ymm3
	vsubps	%ymm2, %ymm1, %ymm2
	vmulps	%ymm0, %ymm2, %ymm2
	vsubps	%ymm2, %ymm1, %ymm2
	vmulps	%ymm0, %ymm2, %ymm2
	vsubps	%ymm2, %ymm1, %ymm2
	vmulps	%ymm0, %ymm2, %ymm2
	vsubps	%ymm2, %ymm1, %ymm2
	vmulps	%ymm0, %ymm3, %ymm3
	vsubps	%ymm3, %ymm1, %ymm3
	vmulps	%ymm0, %ymm3, %ymm3
	vsubps	%ymm3, %ymm1, %ymm3
	vmulps	%ymm0, %ymm3, %ymm3
	vsubps	%ymm3, %ymm1, %ymm3
	vmulps	%ymm0, %ymm3, %ymm3
	vmulps	%ymm0, %ymm2, %ymm2
	vsubps	%ymm2, %ymm1, %ymm2
	vmulps	%ymm0, %ymm2, %ymm2
	vsubps	%ymm2, %ymm1, %ymm2
	vmulps	%ymm0, %ymm2, %ymm2
	vsubps	%ymm2, %ymm1, %ymm2
	vmulps	%ymm0, %ymm2, %ymm2
	vsubps	%ymm3, %ymm1, %ymm3
	vmulps	%ymm0, %ymm3, %ymm3
	vsubps	%ymm3, %ymm1, %ymm3
	vmulps	%ymm0, %ymm3, %ymm3
	vsubps	%ymm3, %ymm1, %ymm3
	vmulps	%ymm0, %ymm3, %ymm3
	vsubps	%ymm3, %ymm1, %ymm3
	vsubps	%ymm2, %ymm1, %ymm2
	vmulps	%ymm0, %ymm2, %ymm2
	vsubps	%ymm2, %ymm1, %ymm2
	vmulps	%ymm0, %ymm2, %ymm2
	vsubps	%ymm2, %ymm1, %ymm2
	vmulps	%ymm0, %ymm2, %ymm2
	vsubps	%ymm2, %ymm1, %ymm2
	vmulps	%ymm0, %ymm3, %ymm3
	vsubps	%ymm3, %ymm1, %ymm3
	vmulps	%ymm0, %ymm3, %ymm3
	vsubps	%ymm3, %ymm1, %ymm3
	vmulps	%ymm0, %ymm3, %ymm3
	vsubps	%ymm3, %ymm1, %ymm3
	vmulps	%ymm0, %ymm3, %ymm3
	vmulps	%ymm0, %ymm2, %ymm2
	vsubps	%ymm2, %ymm1, %ymm2
	vmulps	%ymm0, %ymm2, %ymm2
	vsubps	%ymm2, %ymm1, %ymm2
	vmulps	%ymm0, %ymm2, %ymm2
	vsubps	%ymm2, %ymm1, %ymm2
	vmulps	%ymm0, %ymm2, %ymm2
	vsubps	%ymm3, %ymm1, %ymm3
	vmulps	%ymm0, %ymm3, %ymm3
	vsubps	%ymm3, %ymm1, %ymm3
	vmulps	%ymm0, %ymm3, %ymm3
	vsubps	%ymm3, %ymm1, %ymm3
	vmulps	%ymm0, %ymm3, %ymm3
	vsubps	%ymm3, %ymm1, %ymm3
	vsubps	%ymm2, %ymm1, %ymm2
	vmulps	%ymm0, %ymm2, %ymm2
	vsubps	%ymm2, %ymm1, %ymm2
	vmulps	%ymm0, %ymm2, %ymm2
	vsubps	%ymm2, %ymm1, %ymm2
	vmulps	%ymm0, %ymm2, %ymm2
	vsubps	%ymm2, %ymm1, %ymm2
	vmulps	%ymm0, %ymm3, %ymm3
	vsubps	%ymm3, %ymm1, %ymm3
	vmulps	%ymm0, %ymm3, %ymm3
	vsubps	%ymm3, %ymm1, %ymm3
	vmulps	%ymm0, %ymm3, %ymm3
	vsubps	%ymm3, %ymm1, %ymm3
	vmulps	%ymm0, %ymm3, %ymm3
	vmulps	%ymm0, %ymm2, %ymm2
	vsubps	%ymm2, %ymm1, %ymm2
	vmulps	%ymm0, %ymm2, %ymm2
	vsubps	%ymm2, %ymm1, %ymm2
	vmulps	%ymm0, %ymm2, %ymm2
	vsubps	%ymm2, %ymm1, %ymm2
	vmulps	%ymm0, %ymm2, %ymm2
	vsubps	%ymm3, %ymm1, %ymm3
	vmulps	%ymm0, %ymm3, %ymm3
	vsubps	%ymm3, %ymm1, %ymm3
	vmulps	%ymm0, %ymm3, %ymm3
	vsubps	%ymm3, %ymm1, %ymm3
	vmulps	%ymm0, %ymm3, %ymm3
	vsubps	%ymm3, %ymm1, %ymm3
	vsubps	%ymm2, %ymm1, %ymm2
	vmulps	%ymm0, %ymm2, %ymm2
	vsubps	%ymm2, %ymm1, %ymm2
	vmulps	%ymm0, %ymm2, %ymm2
	vsubps	%ymm2, %ymm1, %ymm2
	vmulps	%ymm0, %ymm2, %ymm2
	vsubps	%ymm2, %ymm1, %ymm2
	vmulps	%ymm0, %ymm3, %ymm3
	vsubps	%ymm3, %ymm1, %ymm3
	vmulps	%ymm0, %ymm3, %ymm3
	vsubps	%ymm3, %ymm1, %ymm3
	vmulps	%ymm0, %ymm3, %ymm3
	vsubps	%ymm3, %ymm1, %ymm3
	vmulps	%ymm0, %ymm3, %ymm3
	vmulps	%ymm0, %ymm2, %ymm2
	vsubps	%ymm2, %ymm1, %ymm2
	vmulps	%ymm0, %ymm2, %ymm2
	vsubps	%ymm2, %ymm1, %ymm2
	vmulps	%ymm0, %ymm2, %ymm2
	vsubps	%ymm2, %ymm1, %ymm2
	vmulps	%ymm0, %ymm2, %ymm2
	vsubps	%ymm3, %ymm1, %ymm3
	vmulps	%ymm0, %ymm3, %ymm3
	vsubps	%ymm3, %ymm1, %ymm3
	vmulps	%ymm0, %ymm3, %ymm3
	vsubps	%ymm3, %ymm1, %ymm3
	vmulps	%ymm0, %ymm3, %ymm3
	vsubps	%ymm3, %ymm1, %ymm3
	vsubps	%ymm2, %ymm1, %ymm2
	vmulps	%ymm0, %ymm2, %ymm2
	vsubps	%ymm2, %ymm1, %ymm2
	vmulps	%ymm0, %ymm2, %ymm2
	vsubps	%ymm2, %ymm1, %ymm2
	vmulps	%ymm0, %ymm2, %ymm2
	vsubps	%ymm2, %ymm1, %ymm2
	vmulps	%ymm0, %ymm3, %ymm3
	vsubps	%ymm3, %ymm1, %ymm3
	vmulps	%ymm0, %ymm3, %ymm3
	vsubps	%ymm3, %ymm1, %ymm3
	vmulps	%ymm0, %ymm3, %ymm3
	vsubps	%ymm3, %ymm1, %ymm3
	vmulps	%ymm0, %ymm3, %ymm3
	vmulps	%ymm0, %ymm2, %ymm2
	vsubps	%ymm2, %ymm1, %ymm2
	vmulps	%ymm0, %ymm2, %ymm2
	vsubps	%ymm2, %ymm1, %ymm2
	vmulps	%ymm0, %ymm2, %ymm2
	vsubps	%ymm2, %ymm1, %ymm2
	vmulps	%ymm0, %ymm2, %ymm2
	vsubps	%ymm3, %ymm1, %ymm3
	vmulps	%ymm0, %ymm3, %ymm3
	vsubps	%ymm3, %ymm1, %ymm3
	vmulps	%ymm0, %ymm3, %ymm3
	vsubps	%ymm3, %ymm1, %ymm3
	vmulps	%ymm0, %ymm3, %ymm3
	vsubps	%ymm3, %ymm1, %ymm3
	vsubps	%ymm2, %ymm1, %ymm2
	vmulps	%ymm0, %ymm2, %ymm2
	vsubps	%ymm2, %ymm1, %ymm2
	vmulps	%ymm0, %ymm2, %ymm2
	vsubps	%ymm2, %ymm1, %ymm2
	vmulps	%ymm0, %ymm2, %ymm2
	vsubps	%ymm2, %ymm1, %ymm2
	vmulps	%ymm0, %ymm3, %ymm3
	vsubps	%ymm3, %ymm1, %ymm3
	vmulps	%ymm0, %ymm3, %ymm3
	vsubps	%ymm3, %ymm1, %ymm3
	vmulps	%ymm0, %ymm3, %ymm3
	vsubps	%ymm3, %ymm1, %ymm3
	vmulps	%ymm0, %ymm3, %ymm3
	vmulps	%ymm0, %ymm2, %ymm2
	vsubps	%ymm2, %ymm1, %ymm2
	vmulps	%ymm0, %ymm2, %ymm2
	vsubps	%ymm2, %ymm1, %ymm2
	vmulps	%ymm0, %ymm2, %ymm2
	vsubps	%ymm2, %ymm1, %ymm2
	vmulps	%ymm0, %ymm2, %ymm2
	vsubps	%ymm3, %ymm1, %ymm3
	vmulps	%ymm0, %ymm3, %ymm3
	vsubps	%ymm3, %ymm1, %ymm3
	vmulps	%ymm0, %ymm3, %ymm3
	vsubps	%ymm3, %ymm1, %ymm3
	vmulps	%ymm0, %ymm3, %ymm3
	vsubps	%ymm3, %ymm1, %ymm3
	vsubps	%ymm2, %ymm1, %ymm2
	vmulps	%ymm0, %ymm2, %ymm2
	vsubps	%ymm2, %ymm1, %ymm2
	vmulps	%ymm0, %ymm2, %ymm2
	vsubps	%ymm2, %ymm1, %ymm2
	vmulps	%ymm0, %ymm2, %ymm2
	vsubps	%ymm2, %ymm1, %ymm2
	vmulps	%ymm0, %ymm3, %ymm3
	vsubps	%ymm3, %ymm1, %ymm3
	vmulps	%ymm0, %ymm3, %ymm3
	vsubps	%ymm3, %ymm1, %ymm3
	vmulps	%ymm0, %ymm3, %ymm3
	vsubps	%ymm3, %ymm1, %ymm3
	vmulps	%ymm0, %ymm3, %ymm3
	vmulps	%ymm0, %ymm2, %ymm2
	vsubps	%ymm2, %ymm1, %ymm2
	vmulps	%ymm0, %ymm2, %ymm2
	vsubps	%ymm2, %ymm1, %ymm2
	vmulps	%ymm0, %ymm2, %ymm2
	vsubps	%ymm2, %ymm1, %ymm2
	vmulps	%ymm0, %ymm2, %ymm2
	vsubps	%ymm3, %ymm1, %ymm3
	vmulps	%ymm0, %ymm3, %ymm3
	vsubps	%ymm3, %ymm1, %ymm3
	vmulps	%ymm0, %ymm3, %ymm3
	vsubps	%ymm3, %ymm1, %ymm3
	vmulps	%ymm0, %ymm3, %ymm3
	vsubps	%ymm3, %ymm1, %ymm3
	vsubps	%ymm2, %ymm1, %ymm2
	vmulps	%ymm0, %ymm2, %ymm2
	vsubps	%ymm2, %ymm1, %ymm2
	vmulps	%ymm0, %ymm2, %ymm2
	vsubps	%ymm2, %ymm1, %ymm2
	vmulps	%ymm0, %ymm2, %ymm2
	vsubps	%ymm2, %ymm1, %ymm2
	vmulps	%ymm0, %ymm3, %ymm3
	vsubps	%ymm3, %ymm1, %ymm3
	vmulps	%ymm0, %ymm3, %ymm3
	vsubps	%ymm3, %ymm1, %ymm3
	vmulps	%ymm0, %ymm3, %ymm3
	vsubps	%ymm3, %ymm1, %ymm3
	vmulps	%ymm0, %ymm3, %ymm3
	vmulps	%ymm0, %ymm2, %ymm2
	vsubps	%ymm2, %ymm1, %ymm2
	vmulps	%ymm0, %ymm2, %ymm2
	vsubps	%ymm2, %ymm1, %ymm2
	vmulps	%ymm0, %ymm2, %ymm2
	vsubps	%ymm2, %ymm1, %ymm2
	vmulps	%ymm0, %ymm2, %ymm2
	vsubps	%ymm3, %ymm1, %ymm3
	vmulps	%ymm0, %ymm3, %ymm3
	vsubps	%ymm3, %ymm1, %ymm3
	vmulps	%ymm0, %ymm3, %ymm3
	vsubps	%ymm3, %ymm1, %ymm3
	vmulps	%ymm0, %ymm3, %ymm3
	vsubps	%ymm3, %ymm1, %ymm3
	vsubps	%ymm2, %ymm1, %ymm2
	vmulps	%ymm0, %ymm2, %ymm2
	vsubps	%ymm2, %ymm1, %ymm2
	vmulps	%ymm0, %ymm2, %ymm2
	vsubps	%ymm2, %ymm1, %ymm2
	vmulps	%ymm0, %ymm2, %ymm2
	vsubps	%ymm2, %ymm1, %ymm2
	vmulps	%ymm0, %ymm3, %ymm3
	vsubps	%ymm3, %ymm1, %ymm3
	vmulps	%ymm0, %ymm3, %ymm3
	vsubps	%ymm3, %ymm1, %ymm3
	vmulps	%ymm0, %ymm3, %ymm3
	vsubps	%ymm3, %ymm1, %ymm3
	vmulps	%ymm0, %ymm3, %ymm3
	vmulps	%ymm0, %ymm2, %ymm2
	vsubps	%ymm2, %ymm1, %ymm2
	vmulps	%ymm0, %ymm2, %ymm2
	vsubps	%ymm2, %ymm1, %ymm2
	vmulps	%ymm0, %ymm2, %ymm2
	vsubps	%ymm2, %ymm1, %ymm2
	vmulps	%ymm0, %ymm2, %ymm2
	vsubps	%ymm3, %ymm1, %ymm3
	vmulps	%ymm0, %ymm3, %ymm3
	vsubps	%ymm3, %ymm1, %ymm3
	vmulps	%ymm0, %ymm3, %ymm3
	vsubps	%ymm3, %ymm1, %ymm3
	vmulps	%ymm0, %ymm3, %ymm3
	vsubps	%ymm3, %ymm1, %ymm3
	vsubps	%ymm2, %ymm1, %ymm2
	vmulps	%ymm0, %ymm2, %ymm2
	vsubps	%ymm2, %ymm1, %ymm2
	vmulps	%ymm0, %ymm2, %ymm2
	vsubps	%ymm2, %ymm1, %ymm2
	vmulps	%ymm0, %ymm2, %ymm2
	vsubps	%ymm2, %ymm1, %ymm2
	vmulps	%ymm0, %ymm3, %ymm3
	vsubps	%ymm3, %ymm1, %ymm3
	vmulps	%ymm0, %ymm3, %ymm3
	vsubps	%ymm3, %ymm1, %ymm3
	vmulps	%ymm0, %ymm3, %ymm3
	vsubps	%ymm3, %ymm1, %ymm3
	vmulps	%ymm0, %ymm3, %ymm3
	vmulps	%ymm0, %ymm2, %ymm2
	vsubps	%ymm2, %ymm1, %ymm2
	vmulps	%ymm0, %ymm2, %ymm2
	vsubps	%ymm2, %ymm1, %ymm2
	vmulps	%ymm0, %ymm2, %ymm2
	vsubps	%ymm2, %ymm1, %ymm2
	vmulps	%ymm0, %ymm2, %ymm2
	vsubps	%ymm3, %ymm1, %ymm3
	vmulps	%ymm0, %ymm3, %ymm3
	vsubps	%ymm3, %ymm1, %ymm3
	vmulps	%ymm0, %ymm3, %ymm3
	vsubps	%ymm3, %ymm1, %ymm3
	vmulps	%ymm0, %ymm3, %ymm3
	vsubps	%ymm3, %ymm1, %ymm3
	vsubps	%ymm2, %ymm1, %ymm2
	vmulps	%ymm0, %ymm2, %ymm2
	vsubps	%ymm2, %ymm1, %ymm2
	vmulps	%ymm0, %ymm2, %ymm2
	vsubps	%ymm2, %ymm1, %ymm2
	vmulps	%ymm0, %ymm2, %ymm2
	vsubps	%ymm2, %ymm1, %ymm2
	vmulps	%ymm0, %ymm3, %ymm3
	vsubps	%ymm3, %ymm1, %ymm3
	vmulps	%ymm0, %ymm3, %ymm3
	vsubps	%ymm3, %ymm1, %ymm3
	vmulps	%ymm0, %ymm3, %ymm3
	vsubps	%ymm3, %ymm1, %ymm3
	vmulps	%ymm0, %ymm3, %ymm3
	vmulps	%ymm0, %ymm2, %ymm2
	vsubps	%ymm2, %ymm1, %ymm2
	vmulps	%ymm0, %ymm2, %ymm2
	vsubps	%ymm2, %ymm1, %ymm2
	vmulps	%ymm0, %ymm2, %ymm2
	vsubps	%ymm2, %ymm1, %ymm2
	vmulps	%ymm0, %ymm2, %ymm2
	vsubps	%ymm3, %ymm1, %ymm3
	vmulps	%ymm0, %ymm3, %ymm3
	vsubps	%ymm3, %ymm1, %ymm3
	vmulps	%ymm0, %ymm3, %ymm3
	vsubps	%ymm3, %ymm1, %ymm3
	vmulps	%ymm0, %ymm3, %ymm3
	vsubps	%ymm3, %ymm1, %ymm3
	vsubps	%ymm2, %ymm1, %ymm2
	vmulps	%ymm0, %ymm2, %ymm2
	vsubps	%ymm2, %ymm1, %ymm2
	vmulps	%ymm0, %ymm2, %ymm2
	vsubps	%ymm2, %ymm1, %ymm2
	vmulps	%ymm0, %ymm2, %ymm2
	vsubps	%ymm2, %ymm1, %ymm2
	vmulps	%ymm0, %ymm3, %ymm3
	vsubps	%ymm3, %ymm1, %ymm3
	vmulps	%ymm0, %ymm3, %ymm3
	vsubps	%ymm3, %ymm1, %ymm3
	vmulps	%ymm0, %ymm3, %ymm3
	vsubps	%ymm3, %ymm1, %ymm3
	vmulps	%ymm0, %ymm3, %ymm3
	vmulps	%ymm0, %ymm2, %ymm2
	vsubps	%ymm2, %ymm1, %ymm2
	vmulps	%ymm0, %ymm2, %ymm2
	vsubps	%ymm2, %ymm1, %ymm2
	vmulps	%ymm0, %ymm2, %ymm2
	vsubps	%ymm2, %ymm1, %ymm2
	vmulps	%ymm0, %ymm2, %ymm2
	vsubps	%ymm3, %ymm1, %ymm3
	vmulps	%ymm0, %ymm3, %ymm3
	vsubps	%ymm3, %ymm1, %ymm3
	vmulps	%ymm0, %ymm3, %ymm3
	vsubps	%ymm3, %ymm1, %ymm3
	vmulps	%ymm0, %ymm3, %ymm3
	vsubps	%ymm3, %ymm1, %ymm3
	vsubps	%ymm2, %ymm1, %ymm2
	vmulps	%ymm0, %ymm2, %ymm2
	vsubps	%ymm2, %ymm1, %ymm2
	vmulps	%ymm0, %ymm2, %ymm2
	vsubps	%ymm2, %ymm1, %ymm2
	vmulps	%ymm0, %ymm2, %ymm2
	vsubps	%ymm2, %ymm1, %ymm2
	vmulps	%ymm0, %ymm3, %ymm3
	vsubps	%ymm3, %ymm1, %ymm3
	vmulps	%ymm0, %ymm3, %ymm3
	vsubps	%ymm3, %ymm1, %ymm3
	vmulps	%ymm0, %ymm3, %ymm3
	vsubps	%ymm3, %ymm1, %ymm3
	vmulps	%ymm0, %ymm3, %ymm3
	vmulps	%ymm0, %ymm2, %ymm2
	vsubps	%ymm2, %ymm1, %ymm2
	vmulps	%ymm0, %ymm2, %ymm2
	vsubps	%ymm2, %ymm1, %ymm2
	vmulps	%ymm0, %ymm2, %ymm2
	vsubps	%ymm2, %ymm1, %ymm2
	vmulps	%ymm0, %ymm2, %ymm2
	vsubps	%ymm3, %ymm1, %ymm3
	vmulps	%ymm0, %ymm3, %ymm3
	vsubps	%ymm3, %ymm1, %ymm3
	vmulps	%ymm0, %ymm3, %ymm3
	vsubps	%ymm3, %ymm1, %ymm3
	vmulps	%ymm0, %ymm3, %ymm3
	vsubps	%ymm3, %ymm1, %ymm3
	vsubps	%ymm2, %ymm1, %ymm2
	vmulps	%ymm0, %ymm2, %ymm2
	vsubps	%ymm2, %ymm1, %ymm2
	vmulps	%ymm0, %ymm2, %ymm2
	vsubps	%ymm2, %ymm1, %ymm2
	vmulps	%ymm0, %ymm2, %ymm2
	vsubps	%ymm2, %ymm1, %ymm2
	vmulps	%ymm0, %ymm3, %ymm3
	vsubps	%ymm3, %ymm1, %ymm3
	vmulps	%ymm0, %ymm3, %ymm3
	vsubps	%ymm3, %ymm1, %ymm3
	vmulps	%ymm0, %ymm3, %ymm3
	vsubps	%ymm3, %ymm1, %ymm3
	vmulps	%ymm0, %ymm3, %ymm3
	vmulps	%ymm0, %ymm2, %ymm2
	vsubps	%ymm2, %ymm1, %ymm2
	vmulps	%ymm0, %ymm2, %ymm2
	vsubps	%ymm2, %ymm1, %ymm2
	vmulps	%ymm0, %ymm2, %ymm2
	vsubps	%ymm2, %ymm1, %ymm2
	vmulps	%ymm0, %ymm2, %ymm2
	vsubps	%ymm3, %ymm1, %ymm3
	vmulps	%ymm0, %ymm3, %ymm3
	vsubps	%ymm3, %ymm1, %ymm3
	vmulps	%ymm0, %ymm3, %ymm3
	vsubps	%ymm3, %ymm1, %ymm3
	vmulps	%ymm0, %ymm3, %ymm3
	vsubps	%ymm3, %ymm1, %ymm3
	vsubps	%ymm2, %ymm1, %ymm2
	vmulps	%ymm0, %ymm2, %ymm2
	vsubps	%ymm2, %ymm1, %ymm2
	vmulps	%ymm0, %ymm2, %ymm2
	vsubps	%ymm2, %ymm1, %ymm2
	vmulps	%ymm0, %ymm2, %ymm2
	vsubps	%ymm2, %ymm1, %ymm2
	vmulps	%ymm0, %ymm3, %ymm3
	vsubps	%ymm3, %ymm1, %ymm3
	vmulps	%ymm0, %ymm3, %ymm3
	vsubps	%ymm3, %ymm1, %ymm3
	vmulps	%ymm0, %ymm3, %ymm3
	vsubps	%ymm3, %ymm1, %ymm3
	vmulps	%ymm0, %ymm3, %ymm3
	vmulps	%ymm0, %ymm2, %ymm2
	vsubps	%ymm2, %ymm1, %ymm2
	vmulps	%ymm0, %ymm2, %ymm2
	vsubps	%ymm2, %ymm1, %ymm2
	vmulps	%ymm0, %ymm2, %ymm2
	vsubps	%ymm2, %ymm1, %ymm2
	vmulps	%ymm0, %ymm2, %ymm2
	vsubps	%ymm3, %ymm1, %ymm3
	vmulps	%ymm0, %ymm3, %ymm3
	vsubps	%ymm3, %ymm1, %ymm3
	vmulps	%ymm0, %ymm3, %ymm3
	vsubps	%ymm3, %ymm1, %ymm3
	vmulps	%ymm0, %ymm3, %ymm3
	vsubps	%ymm3, %ymm1, %ymm3
	vsubps	%ymm2, %ymm1, %ymm2
	vmulps	%ymm0, %ymm2, %ymm2
	vsubps	%ymm2, %ymm1, %ymm2
	vmulps	%ymm0, %ymm2, %ymm2
	vsubps	%ymm2, %ymm1, %ymm2
	vmulps	%ymm0, %ymm2, %ymm2
	vsubps	%ymm2, %ymm1, %ymm2
	vmulps	%ymm0, %ymm3, %ymm3
	vsubps	%ymm3, %ymm1, %ymm3
	vmulps	%ymm0, %ymm3, %ymm3
	vsubps	%ymm3, %ymm1, %ymm3
	vmulps	%ymm0, %ymm3, %ymm3
	vsubps	%ymm3, %ymm1, %ymm3
	vmulps	%ymm0, %ymm3, %ymm3
	vmulps	%ymm0, %ymm2, %ymm2
	vsubps	%ymm2, %ymm1, %ymm2
	vmulps	%ymm0, %ymm2, %ymm2
	vsubps	%ymm2, %ymm1, %ymm2
	vmulps	%ymm0, %ymm2, %ymm2
	vsubps	%ymm2, %ymm1, %ymm2
	vmulps	%ymm0, %ymm2, %ymm2
	vsubps	%ymm3, %ymm1, %ymm3
	vmulps	%ymm0, %ymm3, %ymm3
	vsubps	%ymm3, %ymm1, %ymm3
	vmulps	%ymm0, %ymm3, %ymm3
	vsubps	%ymm3, %ymm1, %ymm3
	vmulps	%ymm0, %ymm3, %ymm3
	vsubps	%ymm3, %ymm1, %ymm3
	vsubps	%ymm2, %ymm1, %ymm2
	vmulps	%ymm0, %ymm2, %ymm2
	vsubps	%ymm2, %ymm1, %ymm2
	vmulps	%ymm0, %ymm2, %ymm2
	vsubps	%ymm2, %ymm1, %ymm2
	vmulps	%ymm0, %ymm2, %ymm2
	vsubps	%ymm2, %ymm1, %ymm2
	vmulps	%ymm0, %ymm3, %ymm3
	vsubps	%ymm3, %ymm1, %ymm3
	vmulps	%ymm0, %ymm3, %ymm3
	vsubps	%ymm3, %ymm1, %ymm3
	vmulps	%ymm0, %ymm3, %ymm3
	vsubps	%ymm3, %ymm1, %ymm3
	vmulps	%ymm0, %ymm3, %ymm3
	vmulps	%ymm0, %ymm2, %ymm2
	vsubps	%ymm2, %ymm1, %ymm2
	vmulps	%ymm0, %ymm2, %ymm2
	vsubps	%ymm2, %ymm1, %ymm2
	vmulps	%ymm0, %ymm2, %ymm2
	vsubps	%ymm2, %ymm1, %ymm2
	vmulps	%ymm0, %ymm2, %ymm2
	vsubps	%ymm3, %ymm1, %ymm3
	vmulps	%ymm0, %ymm3, %ymm3
	vsubps	%ymm3, %ymm1, %ymm3
	vmulps	%ymm0, %ymm3, %ymm3
	vsubps	%ymm3, %ymm1, %ymm3
	vmulps	%ymm0, %ymm3, %ymm3
	vsubps	%ymm3, %ymm1, %ymm3
	vsubps	%ymm2, %ymm1, %ymm2
	vmulps	%ymm0, %ymm2, %ymm2
	vsubps	%ymm2, %ymm1, %ymm2
	vmulps	%ymm0, %ymm2, %ymm2
	vsubps	%ymm2, %ymm1, %ymm2
	vmulps	%ymm0, %ymm2, %ymm2
	vsubps	%ymm2, %ymm1, %ymm2
	vmulps	%ymm0, %ymm3, %ymm3
	vsubps	%ymm3, %ymm1, %ymm3
	vmulps	%ymm0, %ymm3, %ymm3
	vsubps	%ymm3, %ymm1, %ymm3
	vmulps	%ymm0, %ymm3, %ymm3
	vsubps	%ymm3, %ymm1, %ymm3
	vmulps	%ymm0, %ymm3, %ymm3
	vmulps	%ymm0, %ymm2, %ymm2
	vsubps	%ymm2, %ymm1, %ymm2
	vmulps	%ymm0, %ymm2, %ymm2
	vsubps	%ymm2, %ymm1, %ymm2
	vmulps	%ymm0, %ymm2, %ymm2
	vsubps	%ymm2, %ymm1, %ymm2
	vmulps	%ymm0, %ymm2, %ymm2
	vsubps	%ymm3, %ymm1, %ymm3
	vmulps	%ymm0, %ymm3, %ymm3
	vsubps	%ymm3, %ymm1, %ymm3
	vmulps	%ymm0, %ymm3, %ymm3
	vsubps	%ymm3, %ymm1, %ymm3
	vmulps	%ymm0, %ymm3, %ymm3
	vsubps	%ymm3, %ymm1, %ymm3
	vsubps	%ymm2, %ymm1, %ymm2
	vmulps	%ymm0, %ymm2, %ymm2
	vsubps	%ymm2, %ymm1, %ymm2
	vmulps	%ymm0, %ymm2, %ymm2
	vsubps	%ymm2, %ymm1, %ymm2
	vmulps	%ymm0, %ymm2, %ymm2
	vsubps	%ymm2, %ymm1, %ymm2
	vmulps	%ymm0, %ymm3, %ymm3
	vsubps	%ymm3, %ymm1, %ymm3
	vmulps	%ymm0, %ymm3, %ymm3
	vsubps	%ymm3, %ymm1, %ymm3
	vmulps	%ymm0, %ymm3, %ymm3
	vsubps	%ymm3, %ymm1, %ymm3
	vmulps	%ymm0, %ymm3, %ymm3
	vmulps	%ymm0, %ymm2, %ymm2
	vsubps	%ymm2, %ymm1, %ymm2
	vmulps	%ymm0, %ymm2, %ymm2
	vsubps	%ymm2, %ymm1, %ymm2
	vmulps	%ymm0, %ymm2, %ymm2
	vsubps	%ymm2, %ymm1, %ymm2
	vmulps	%ymm0, %ymm2, %ymm2
	vsubps	%ymm3, %ymm1, %ymm3
	vmulps	%ymm0, %ymm3, %ymm3
	vsubps	%ymm3, %ymm1, %ymm3
	vmulps	%ymm0, %ymm3, %ymm3
	vsubps	%ymm3, %ymm1, %ymm3
	vmulps	%ymm0, %ymm3, %ymm3
	vsubps	%ymm3, %ymm1, %ymm3
	vsubps	%ymm2, %ymm1, %ymm2
	vmulps	%ymm0, %ymm2, %ymm2
	vsubps	%ymm2, %ymm1, %ymm2
	vmulps	%ymm0, %ymm2, %ymm2
	vsubps	%ymm2, %ymm1, %ymm2
	vmulps	%ymm0, %ymm2, %ymm2
	vsubps	%ymm2, %ymm1, %ymm2
	vmulps	%ymm0, %ymm3, %ymm3
	vsubps	%ymm3, %ymm1, %ymm3
	vmulps	%ymm0, %ymm3, %ymm3
	vsubps	%ymm3, %ymm1, %ymm3
	vmulps	%ymm0, %ymm3, %ymm3
	vsubps	%ymm3, %ymm1, %ymm3
	vmulps	%ymm0, %ymm3, %ymm3
	vmulps	%ymm0, %ymm2, %ymm2
	vsubps	%ymm2, %ymm1, %ymm2
	vmulps	%ymm0, %ymm2, %ymm2
	vsubps	%ymm2, %ymm1, %ymm2
	vmulps	%ymm0, %ymm2, %ymm2
	vsubps	%ymm2, %ymm1, %ymm2
	vmulps	%ymm0, %ymm2, %ymm2
	vsubps	%ymm3, %ymm1, %ymm3
	vmulps	%ymm0, %ymm3, %ymm3
	vsubps	%ymm3, %ymm1, %ymm3
	vmulps	%ymm0, %ymm3, %ymm3
	vsubps	%ymm3, %ymm1, %ymm3
	vmulps	%ymm0, %ymm3, %ymm3
	vsubps	%ymm3, %ymm1, %ymm3
	vsubps	%ymm2, %ymm1, %ymm2
	vmulps	%ymm0, %ymm2, %ymm2
	vsubps	%ymm2, %ymm1, %ymm2
	vmulps	%ymm0, %ymm2, %ymm2
	vsubps	%ymm2, %ymm1, %ymm2
	vmulps	%ymm0, %ymm2, %ymm2
	vsubps	%ymm2, %ymm1, %ymm2
	vmulps	%ymm0, %ymm3, %ymm3
	vsubps	%ymm3, %ymm1, %ymm3
	vmulps	%ymm0, %ymm3, %ymm3
	vsubps	%ymm3, %ymm1, %ymm3
	vmulps	%ymm0, %ymm3, %ymm3
	vsubps	%ymm3, %ymm1, %ymm3
	vmulps	%ymm0, %ymm3, %ymm3
	vmulps	%ymm0, %ymm2, %ymm2
	vsubps	%ymm2, %ymm1, %ymm2
	vmulps	%ymm0, %ymm2, %ymm2
	vsubps	%ymm2, %ymm1, %ymm2
	vmulps	%ymm0, %ymm2, %ymm2
	vsubps	%ymm2, %ymm1, %ymm2
	vmulps	%ymm0, %ymm2, %ymm2
	vsubps	%ymm3, %ymm1, %ymm3
	vmulps	%ymm0, %ymm3, %ymm3
	vsubps	%ymm3, %ymm1, %ymm3
	vmulps	%ymm0, %ymm3, %ymm3
	vsubps	%ymm3, %ymm1, %ymm3
	vmulps	%ymm0, %ymm3, %ymm3
	vsubps	%ymm3, %ymm1, %ymm3
	vsubps	%ymm2, %ymm1, %ymm2
	vmulps	%ymm0, %ymm2, %ymm2
	vsubps	%ymm2, %ymm1, %ymm2
	vmulps	%ymm0, %ymm2, %ymm2
	vsubps	%ymm2, %ymm1, %ymm2
	vmulps	%ymm0, %ymm2, %ymm2
	vsubps	%ymm2, %ymm1, %ymm2
	vmulps	%ymm0, %ymm3, %ymm3
	vsubps	%ymm3, %ymm1, %ymm3
	vmulps	%ymm0, %ymm3, %ymm3
	vsubps	%ymm3, %ymm1, %ymm3
	vmulps	%ymm0, %ymm3, %ymm3
	vsubps	%ymm3, %ymm1, %ymm3
	vmulps	%ymm0, %ymm3, %ymm3
	vmulps	%ymm0, %ymm2, %ymm2
	vsubps	%ymm2, %ymm1, %ymm2
	vmulps	%ymm0, %ymm2, %ymm2
	vsubps	%ymm2, %ymm1, %ymm2
	vmulps	%ymm0, %ymm2, %ymm2
	vsubps	%ymm2, %ymm1, %ymm2
	vmulps	%ymm0, %ymm2, %ymm2
	vsubps	%ymm3, %ymm1, %ymm3
	vmulps	%ymm0, %ymm3, %ymm3
	vsubps	%ymm3, %ymm1, %ymm3
	vmulps	%ymm0, %ymm3, %ymm3
	vsubps	%ymm3, %ymm1, %ymm3
	vmulps	%ymm0, %ymm3, %ymm3
	vsubps	%ymm3, %ymm1, %ymm3
	vsubps	%ymm2, %ymm1, %ymm2
	vmulps	%ymm0, %ymm2, %ymm2
	vsubps	%ymm2, %ymm1, %ymm2
	vmulps	%ymm0, %ymm2, %ymm2
	vsubps	%ymm2, %ymm1, %ymm2
	vmulps	%ymm0, %ymm2, %ymm2
	vsubps	%ymm2, %ymm1, %ymm2
	vmulps	%ymm0, %ymm3, %ymm3
	vsubps	%ymm3, %ymm1, %ymm3
	vmulps	%ymm0, %ymm3, %ymm3
	vsubps	%ymm3, %ymm1, %ymm3
	vmulps	%ymm0, %ymm3, %ymm3
	vsubps	%ymm3, %ymm1, %ymm3
	vmulps	%ymm0, %ymm3, %ymm3
	vmulps	%ymm0, %ymm2, %ymm2
	vsubps	%ymm2, %ymm1, %ymm2
	vmulps	%ymm0, %ymm2, %ymm2
	vsubps	%ymm2, %ymm1, %ymm2
	vmulps	%ymm0, %ymm2, %ymm2
	vsubps	%ymm2, %ymm1, %ymm2
	vmulps	%ymm0, %ymm2, %ymm2
	vsubps	%ymm3, %ymm1, %ymm3
	vmulps	%ymm0, %ymm3, %ymm3
	vsubps	%ymm3, %ymm1, %ymm3
	vmulps	%ymm0, %ymm3, %ymm3
	vsubps	%ymm3, %ymm1, %ymm3
	vmulps	%ymm0, %ymm3, %ymm3
	vsubps	%ymm3, %ymm1, %ymm3
	vsubps	%ymm2, %ymm1, %ymm2
	vmulps	%ymm0, %ymm2, %ymm2
	vsubps	%ymm2, %ymm1, %ymm2
	vmulps	%ymm0, %ymm2, %ymm2
	vsubps	%ymm2, %ymm1, %ymm2
	vmulps	%ymm0, %ymm2, %ymm2
	vsubps	%ymm2, %ymm1, %ymm2
	vmulps	%ymm0, %ymm3, %ymm3
	vsubps	%ymm3, %ymm1, %ymm3
	vmulps	%ymm0, %ymm3, %ymm3
	vsubps	%ymm3, %ymm1, %ymm3
	vmulps	%ymm0, %ymm3, %ymm3
	vsubps	%ymm3, %ymm1, %ymm3
	vmulps	%ymm0, %ymm3, %ymm3
	vmulps	%ymm0, %ymm2, %ymm2
	vsubps	%ymm2, %ymm1, %ymm2
	vmulps	%ymm0, %ymm2, %ymm2
	vsubps	%ymm2, %ymm1, %ymm2
	vmulps	%ymm0, %ymm2, %ymm2
	vsubps	%ymm2, %ymm1, %ymm2
	vmulps	%ymm0, %ymm2, %ymm2
	vsubps	%ymm3, %ymm1, %ymm3
	vmulps	%ymm0, %ymm3, %ymm3
	vsubps	%ymm3, %ymm1, %ymm3
	vmulps	%ymm0, %ymm3, %ymm3
	vsubps	%ymm3, %ymm1, %ymm3
	vmulps	%ymm0, %ymm3, %ymm3
	vsubps	%ymm3, %ymm1, %ymm3
	vsubps	%ymm2, %ymm1, %ymm2
	vmulps	%ymm0, %ymm2, %ymm2
	vsubps	%ymm2, %ymm1, %ymm2
	vmulps	%ymm0, %ymm2, %ymm2
	vsubps	%ymm2, %ymm1, %ymm2
	vmulps	%ymm0, %ymm2, %ymm2
	vsubps	%ymm2, %ymm1, %ymm2
	vmulps	%ymm0, %ymm3, %ymm3
	vsubps	%ymm3, %ymm1, %ymm3
	vmulps	%ymm0, %ymm3, %ymm3
	vsubps	%ymm3, %ymm1, %ymm3
	vmulps	%ymm0, %ymm3, %ymm3
	vsubps	%ymm3, %ymm1, %ymm3
	vmulps	%ymm0, %ymm3, %ymm3
	vmulps	%ymm0, %ymm2, %ymm2
	vsubps	%ymm2, %ymm1, %ymm2
	vmulps	%ymm0, %ymm2, %ymm2
	vsubps	%ymm2, %ymm1, %ymm2
	vmulps	%ymm0, %ymm2, %ymm2
	vsubps	%ymm2, %ymm1, %ymm2
	vmulps	%ymm0, %ymm2, %ymm2
	vsubps	%ymm3, %ymm1, %ymm3
	vmulps	%ymm0, %ymm3, %ymm3
	vsubps	%ymm3, %ymm1, %ymm3
	vmulps	%ymm0, %ymm3, %ymm3
	vsubps	%ymm3, %ymm1, %ymm3
	vmulps	%ymm0, %ymm3, %ymm3
	vsubps	%ymm3, %ymm1, %ymm3
	vsubps	%ymm2, %ymm1, %ymm2
	vmulps	%ymm0, %ymm2, %ymm2
	vsubps	%ymm2, %ymm1, %ymm2
	vmulps	%ymm0, %ymm2, %ymm2
	vsubps	%ymm2, %ymm1, %ymm2
	vmulps	%ymm0, %ymm2, %ymm2
	vsubps	%ymm2, %ymm1, %ymm2
	vmulps	%ymm0, %ymm3, %ymm3
	vsubps	%ymm3, %ymm1, %ymm3
	vmulps	%ymm0, %ymm3, %ymm3
	vsubps	%ymm3, %ymm1, %ymm3
	vmulps	%ymm0, %ymm3, %ymm3
	vsubps	%ymm3, %ymm1, %ymm3
	vmulps	%ymm0, %ymm3, %ymm3
	vmulps	%ymm0, %ymm2, %ymm2
	vsubps	%ymm2, %ymm1, %ymm2
	vmulps	%ymm0, %ymm2, %ymm2
	vsubps	%ymm2, %ymm1, %ymm2
	vmulps	%ymm0, %ymm2, %ymm2
	vsubps	%ymm2, %ymm1, %ymm2
	vmulps	%ymm0, %ymm2, %ymm2
	vsubps	%ymm3, %ymm1, %ymm3
	vmulps	%ymm0, %ymm3, %ymm3
	vsubps	%ymm3, %ymm1, %ymm3
	vmulps	%ymm0, %ymm3, %ymm3
	vsubps	%ymm3, %ymm1, %ymm3
	vmulps	%ymm0, %ymm3, %ymm3
	vsubps	%ymm3, %ymm1, %ymm3
	vsubps	%ymm2, %ymm1, %ymm2
	vmulps	%ymm0, %ymm2, %ymm2
	vsubps	%ymm2, %ymm1, %ymm2
	vmulps	%ymm0, %ymm2, %ymm2
	vsubps	%ymm2, %ymm1, %ymm2
	vmulps	%ymm0, %ymm2, %ymm2
	vsubps	%ymm2, %ymm1, %ymm2
	vmulps	%ymm0, %ymm3, %ymm3
	vsubps	%ymm3, %ymm1, %ymm3
	vmulps	%ymm0, %ymm3, %ymm3
	vsubps	%ymm3, %ymm1, %ymm3
	vmulps	%ymm0, %ymm3, %ymm3
	vsubps	%ymm3, %ymm1, %ymm3
	vmulps	%ymm0, %ymm3, %ymm3
	vmulps	%ymm0, %ymm2, %ymm2
	vsubps	%ymm2, %ymm1, %ymm2
	vmulps	%ymm0, %ymm2, %ymm2
	vsubps	%ymm2, %ymm1, %ymm2
	vmulps	%ymm0, %ymm2, %ymm2
	vsubps	%ymm2, %ymm1, %ymm2
	vmulps	%ymm0, %ymm2, %ymm2
	vsubps	%ymm3, %ymm1, %ymm3
	vmulps	%ymm0, %ymm3, %ymm3
	vsubps	%ymm3, %ymm1, %ymm3
	vmulps	%ymm0, %ymm3, %ymm3
	vsubps	%ymm3, %ymm1, %ymm3
	vmulps	%ymm0, %ymm3, %ymm3
	vsubps	%ymm3, %ymm1, %ymm3
	vsubps	%ymm2, %ymm1, %ymm2
	vmulps	%ymm0, %ymm2, %ymm2
	vsubps	%ymm2, %ymm1, %ymm2
	vmulps	%ymm0, %ymm2, %ymm2
	vsubps	%ymm2, %ymm1, %ymm2
	vmulps	%ymm0, %ymm2, %ymm2
	vsubps	%ymm2, %ymm1, %ymm2
	vmulps	%ymm0, %ymm3, %ymm3
	vsubps	%ymm3, %ymm1, %ymm3
	vmulps	%ymm0, %ymm3, %ymm3
	vsubps	%ymm3, %ymm1, %ymm3
	vmulps	%ymm0, %ymm3, %ymm3
	vsubps	%ymm3, %ymm1, %ymm3
	vmulps	%ymm0, %ymm3, %ymm3
	vmulps	%ymm0, %ymm2, %ymm2
	vsubps	%ymm2, %ymm1, %ymm2
	vmulps	%ymm0, %ymm2, %ymm2
	vsubps	%ymm2, %ymm1, %ymm2
	vmulps	%ymm0, %ymm2, %ymm2
	vsubps	%ymm2, %ymm1, %ymm2
	vmulps	%ymm0, %ymm2, %ymm2
	vsubps	%ymm3, %ymm1, %ymm3
	vmulps	%ymm0, %ymm3, %ymm3
	vsubps	%ymm3, %ymm1, %ymm3
	vmulps	%ymm0, %ymm3, %ymm3
	vsubps	%ymm3, %ymm1, %ymm3
	vmulps	%ymm0, %ymm3, %ymm3
	vsubps	%ymm3, %ymm1, %ymm3
	vsubps	%ymm2, %ymm1, %ymm2
	vmulps	%ymm0, %ymm2, %ymm2
	vsubps	%ymm2, %ymm1, %ymm2
	vmulps	%ymm0, %ymm2, %ymm2
	vsubps	%ymm2, %ymm1, %ymm2
	vmulps	%ymm0, %ymm2, %ymm2
	vsubps	%ymm2, %ymm1, %ymm2
	vmulps	%ymm0, %ymm3, %ymm3
	vsubps	%ymm3, %ymm1, %ymm3
	vmulps	%ymm0, %ymm3, %ymm3
	vsubps	%ymm3, %ymm1, %ymm3
	vmulps	%ymm0, %ymm3, %ymm3
	vsubps	%ymm3, %ymm1, %ymm3
	vmulps	%ymm0, %ymm3, %ymm3
	vmulps	%ymm0, %ymm2, %ymm2
	vsubps	%ymm2, %ymm1, %ymm2
	vmulps	%ymm0, %ymm2, %ymm2
	vsubps	%ymm2, %ymm1, %ymm2
	vmulps	%ymm0, %ymm2, %ymm2
	vsubps	%ymm2, %ymm1, %ymm2
	vmulps	%ymm0, %ymm2, %ymm2
	vsubps	%ymm3, %ymm1, %ymm3
	vmulps	%ymm0, %ymm3, %ymm3
	vsubps	%ymm3, %ymm1, %ymm3
	vmulps	%ymm0, %ymm3, %ymm3
	vsubps	%ymm3, %ymm1, %ymm3
	vmulps	%ymm0, %ymm3, %ymm3
	vsubps	%ymm3, %ymm1, %ymm3
	vsubps	%ymm2, %ymm1, %ymm2
	vmulps	%ymm0, %ymm2, %ymm2
	vsubps	%ymm2, %ymm1, %ymm2
	vmulps	%ymm0, %ymm2, %ymm2
	vsubps	%ymm2, %ymm1, %ymm2
	vmulps	%ymm0, %ymm2, %ymm2
	vsubps	%ymm2, %ymm1, %ymm2
	vmulps	%ymm0, %ymm3, %ymm3
	vsubps	%ymm3, %ymm1, %ymm3
	vmulps	%ymm0, %ymm3, %ymm3
	vsubps	%ymm3, %ymm1, %ymm3
	vmulps	%ymm0, %ymm3, %ymm3
	vsubps	%ymm3, %ymm1, %ymm3
	vmulps	%ymm0, %ymm3, %ymm3
	vmulps	%ymm0, %ymm2, %ymm2
	vsubps	%ymm2, %ymm1, %ymm2
	vmulps	%ymm0, %ymm2, %ymm2
	vsubps	%ymm2, %ymm1, %ymm2
	vmulps	%ymm0, %ymm2, %ymm2
	vsubps	%ymm2, %ymm1, %ymm2
	vmulps	%ymm0, %ymm2, %ymm2
	vsubps	%ymm3, %ymm1, %ymm3
	vmulps	%ymm0, %ymm3, %ymm3
	vsubps	%ymm3, %ymm1, %ymm3
	vmulps	%ymm0, %ymm3, %ymm3
	vsubps	%ymm3, %ymm1, %ymm3
	vmulps	%ymm0, %ymm3, %ymm3
	vsubps	%ymm3, %ymm1, %ymm3
	vsubps	%ymm2, %ymm1, %ymm2
	vmulps	%ymm0, %ymm2, %ymm2
	vsubps	%ymm2, %ymm1, %ymm2
	vmulps	%ymm0, %ymm2, %ymm2
	vsubps	%ymm2, %ymm1, %ymm2
	vmulps	%ymm0, %ymm2, %ymm2
	vsubps	%ymm2, %ymm1, %ymm2
	vmulps	%ymm0, %ymm3, %ymm3
	vsubps	%ymm3, %ymm1, %ymm3
	vmulps	%ymm0, %ymm3, %ymm3
	vsubps	%ymm3, %ymm1, %ymm3
	vmulps	%ymm0, %ymm3, %ymm3
	vsubps	%ymm3, %ymm1, %ymm3
	vmulps	%ymm0, %ymm3, %ymm3
	vmulps	%ymm0, %ymm2, %ymm2
	vsubps	%ymm2, %ymm1, %ymm2
	vmulps	%ymm0, %ymm2, %ymm2
	vsubps	%ymm2, %ymm1, %ymm2
	vmulps	%ymm0, %ymm2, %ymm2
	vsubps	%ymm2, %ymm1, %ymm2
	vmulps	%ymm0, %ymm2, %ymm2
	vsubps	%ymm3, %ymm1, %ymm3
	vmulps	%ymm0, %ymm3, %ymm3
	vsubps	%ymm3, %ymm1, %ymm3
	vmulps	%ymm0, %ymm3, %ymm3
	vsubps	%ymm3, %ymm1, %ymm3
	vmulps	%ymm0, %ymm3, %ymm3
	vsubps	%ymm3, %ymm1, %ymm3
	vsubps	%ymm2, %ymm1, %ymm2
	vmulps	%ymm0, %ymm2, %ymm2
	vsubps	%ymm2, %ymm1, %ymm2
	vmulps	%ymm0, %ymm2, %ymm2
	vsubps	%ymm2, %ymm1, %ymm2
	vmulps	%ymm0, %ymm2, %ymm2
	vsubps	%ymm2, %ymm1, %ymm2
	vmulps	%ymm0, %ymm3, %ymm3
	vsubps	%ymm3, %ymm1, %ymm3
	vmulps	%ymm0, %ymm3, %ymm3
	vsubps	%ymm3, %ymm1, %ymm3
	vmulps	%ymm0, %ymm3, %ymm3
	vsubps	%ymm3, %ymm1, %ymm3
	vmulps	%ymm0, %ymm3, %ymm3
	vmulps	%ymm0, %ymm2, %ymm2
	vsubps	%ymm2, %ymm1, %ymm2
	vmulps	%ymm0, %ymm2, %ymm2
	vsubps	%ymm2, %ymm1, %ymm2
	vmulps	%ymm0, %ymm2, %ymm2
	vsubps	%ymm2, %ymm1, %ymm2
	vmulps	%ymm0, %ymm2, %ymm2
	vsubps	%ymm3, %ymm1, %ymm3
	vmulps	%ymm0, %ymm3, %ymm3
	vsubps	%ymm3, %ymm1, %ymm3
	vmulps	%ymm0, %ymm3, %ymm3
	vsubps	%ymm3, %ymm1, %ymm3
	vmulps	%ymm0, %ymm3, %ymm3
	vsubps	%ymm3, %ymm1, %ymm3
	vsubps	%ymm2, %ymm1, %ymm2
	vmulps	%ymm0, %ymm2, %ymm2
	vsubps	%ymm2, %ymm1, %ymm2
	vmulps	%ymm0, %ymm2, %ymm2
	vsubps	%ymm2, %ymm1, %ymm2
	vmulps	%ymm0, %ymm2, %ymm2
	vsubps	%ymm2, %ymm1, %ymm2
	vmulps	%ymm0, %ymm3, %ymm3
	vsubps	%ymm3, %ymm1, %ymm3
	vmulps	%ymm0, %ymm3, %ymm3
	vsubps	%ymm3, %ymm1, %ymm3
	vmulps	%ymm0, %ymm3, %ymm3
	vsubps	%ymm3, %ymm1, %ymm3
	vmulps	%ymm0, %ymm3, %ymm3
	vmulps	%ymm0, %ymm2, %ymm2
	vsubps	%ymm2, %ymm1, %ymm2
	vmulps	%ymm0, %ymm2, %ymm2
	vsubps	%ymm2, %ymm1, %ymm2
	vmulps	%ymm0, %ymm2, %ymm2
	vsubps	%ymm2, %ymm1, %ymm2
	vmulps	%ymm0, %ymm2, %ymm2
	vsubps	%ymm3, %ymm1, %ymm3
	vmulps	%ymm0, %ymm3, %ymm3
	vsubps	%ymm3, %ymm1, %ymm3
	vmulps	%ymm0, %ymm3, %ymm3
	vsubps	%ymm3, %ymm1, %ymm3
	vmulps	%ymm0, %ymm3, %ymm3
	vsubps	%ymm3, %ymm1, %ymm3
	vsubps	%ymm2, %ymm1, %ymm2
	vmulps	%ymm0, %ymm2, %ymm2
	vsubps	%ymm2, %ymm1, %ymm2
	vmulps	%ymm0, %ymm2, %ymm2
	vsubps	%ymm2, %ymm1, %ymm2
	vmulps	%ymm0, %ymm2, %ymm2
	vsubps	%ymm2, %ymm1, %ymm2
	vmulps	%ymm0, %ymm3, %ymm3
	vsubps	%ymm3, %ymm1, %ymm3
	vmulps	%ymm0, %ymm3, %ymm3
	vsubps	%ymm3, %ymm1, %ymm3
	vmulps	%ymm0, %ymm3, %ymm3
	vsubps	%ymm3, %ymm1, %ymm3
	vmulps	%ymm0, %ymm3, %ymm3
	vmulps	%ymm0, %ymm2, %ymm2
	vsubps	%ymm2, %ymm1, %ymm2
	vmulps	%ymm0, %ymm2, %ymm2
	vsubps	%ymm2, %ymm1, %ymm2
	vmulps	%ymm0, %ymm2, %ymm2
	vsubps	%ymm2, %ymm1, %ymm2
	vmulps	%ymm0, %ymm2, %ymm2
	vsubps	%ymm3, %ymm1, %ymm3
	vmulps	%ymm0, %ymm3, %ymm3
	vsubps	%ymm3, %ymm1, %ymm3
	vmulps	%ymm0, %ymm3, %ymm3
	vsubps	%ymm3, %ymm1, %ymm3
	vmulps	%ymm0, %ymm3, %ymm3
	vsubps	%ymm3, %ymm1, %ymm3
	vsubps	%ymm2, %ymm1, %ymm2
	vmulps	%ymm0, %ymm2, %ymm2
	vsubps	%ymm2, %ymm1, %ymm2
	vmulps	%ymm0, %ymm2, %ymm2
	vsubps	%ymm2, %ymm1, %ymm2
	vmulps	%ymm0, %ymm2, %ymm2
	vsubps	%ymm2, %ymm1, %ymm2
	vmulps	%ymm0, %ymm3, %ymm3
	vsubps	%ymm3, %ymm1, %ymm3
	vmulps	%ymm0, %ymm3, %ymm3
	vsubps	%ymm3, %ymm1, %ymm3
	vmulps	%ymm0, %ymm3, %ymm3
	vsubps	%ymm3, %ymm1, %ymm3
	vmulps	%ymm0, %ymm3, %ymm3
	vmulps	%ymm0, %ymm2, %ymm2
	vsubps	%ymm2, %ymm1, %ymm2
	vmulps	%ymm0, %ymm2, %ymm2
	vsubps	%ymm2, %ymm1, %ymm2
	vmulps	%ymm0, %ymm2, %ymm2
	vsubps	%ymm2, %ymm1, %ymm2
	vmulps	%ymm0, %ymm2, %ymm2
	vsubps	%ymm3, %ymm1, %ymm3
	vmulps	%ymm0, %ymm3, %ymm3
	vsubps	%ymm3, %ymm1, %ymm3
	vmulps	%ymm0, %ymm3, %ymm3
	vsubps	%ymm3, %ymm1, %ymm3
	vmulps	%ymm0, %ymm3, %ymm3
	vsubps	%ymm3, %ymm1, %ymm3
	vsubps	%ymm2, %ymm1, %ymm2
	vmulps	%ymm0, %ymm2, %ymm2
	vsubps	%ymm2, %ymm1, %ymm2
	vmulps	%ymm0, %ymm2, %ymm2
	vsubps	%ymm2, %ymm1, %ymm2
	vmulps	%ymm0, %ymm2, %ymm2
	vsubps	%ymm2, %ymm1, %ymm2
	vmulps	%ymm0, %ymm3, %ymm3
	vsubps	%ymm3, %ymm1, %ymm3
	vmulps	%ymm0, %ymm3, %ymm3
	vsubps	%ymm3, %ymm1, %ymm3
	vmulps	%ymm0, %ymm3, %ymm3
	vsubps	%ymm3, %ymm1, %ymm3
	vmulps	%ymm0, %ymm3, %ymm3
	vmulps	%ymm0, %ymm2, %ymm2
	vsubps	%ymm2, %ymm1, %ymm2
	vmulps	%ymm0, %ymm2, %ymm2
	vsubps	%ymm2, %ymm1, %ymm2
	vmulps	%ymm0, %ymm2, %ymm2
	vsubps	%ymm2, %ymm1, %ymm2
	vmulps	%ymm0, %ymm2, %ymm2
	vsubps	%ymm3, %ymm1, %ymm3
	vmulps	%ymm0, %ymm3, %ymm3
	vsubps	%ymm3, %ymm1, %ymm3
	vmulps	%ymm0, %ymm3, %ymm3
	vsubps	%ymm3, %ymm1, %ymm3
	vmulps	%ymm0, %ymm3, %ymm3
	vsubps	%ymm3, %ymm1, %ymm3
	vsubps	%ymm2, %ymm1, %ymm2
	vmulps	%ymm0, %ymm2, %ymm2
	vsubps	%ymm2, %ymm1, %ymm2
	vmulps	%ymm0, %ymm2, %ymm2
	vsubps	%ymm2, %ymm1, %ymm2
	vmulps	%ymm0, %ymm2, %ymm2
	vsubps	%ymm2, %ymm1, %ymm2
	vmulps	%ymm0, %ymm3, %ymm3
	vsubps	%ymm3, %ymm1, %ymm3
	vmulps	%ymm0, %ymm3, %ymm3
	vsubps	%ymm3, %ymm1, %ymm3
	vmulps	%ymm0, %ymm3, %ymm3
	vsubps	%ymm3, %ymm1, %ymm3
	vmulps	%ymm0, %ymm3, %ymm3
	vmulps	%ymm0, %ymm2, %ymm2
	vsubps	%ymm2, %ymm1, %ymm2
	vmulps	%ymm0, %ymm2, %ymm2
	vsubps	%ymm2, %ymm1, %ymm2
	vmulps	%ymm0, %ymm2, %ymm2
	vsubps	%ymm2, %ymm1, %ymm2
	vmulps	%ymm0, %ymm2, %ymm2
	vsubps	%ymm3, %ymm1, %ymm3
	vmulps	%ymm0, %ymm3, %ymm3
	vsubps	%ymm3, %ymm1, %ymm3
	vmulps	%ymm0, %ymm3, %ymm3
	vsubps	%ymm3, %ymm1, %ymm3
	vmulps	%ymm0, %ymm3, %ymm3
	vsubps	%ymm3, %ymm1, %ymm3
	vsubps	%ymm2, %ymm1, %ymm2
	vmulps	%ymm0, %ymm2, %ymm2
	vsubps	%ymm2, %ymm1, %ymm2
	vmulps	%ymm0, %ymm2, %ymm2
	vsubps	%ymm2, %ymm1, %ymm2
	vmulps	%ymm0, %ymm2, %ymm2
	vsubps	%ymm2, %ymm1, %ymm2
	vmulps	%ymm0, %ymm3, %ymm3
	vsubps	%ymm3, %ymm1, %ymm3
	vmulps	%ymm0, %ymm3, %ymm3
	vsubps	%ymm3, %ymm1, %ymm3
	vmulps	%ymm0, %ymm3, %ymm3
	vsubps	%ymm3, %ymm1, %ymm3
	vmulps	%ymm0, %ymm3, %ymm3
	vmulps	%ymm0, %ymm2, %ymm2
	vsubps	%ymm2, %ymm1, %ymm2
	vmulps	%ymm0, %ymm2, %ymm2
	vsubps	%ymm2, %ymm1, %ymm2
	vmulps	%ymm0, %ymm2, %ymm2
	vsubps	%ymm2, %ymm1, %ymm2
	vmulps	%ymm0, %ymm2, %ymm2
	vsubps	%ymm3, %ymm1, %ymm3
	vmulps	%ymm0, %ymm3, %ymm3
	vsubps	%ymm3, %ymm1, %ymm3
	vmulps	%ymm0, %ymm3, %ymm3
	vsubps	%ymm3, %ymm1, %ymm3
	vmulps	%ymm0, %ymm3, %ymm3
	vsubps	%ymm3, %ymm1, %ymm3
	vsubps	%ymm2, %ymm1, %ymm2
	vmulps	%ymm0, %ymm2, %ymm2
	vsubps	%ymm2, %ymm1, %ymm2
	vmulps	%ymm0, %ymm2, %ymm2
	vsubps	%ymm2, %ymm1, %ymm2
	vmulps	%ymm0, %ymm2, %ymm2
	vsubps	%ymm2, %ymm1, %ymm2
	vmulps	%ymm0, %ymm3, %ymm3
	vsubps	%ymm3, %ymm1, %ymm3
	vmulps	%ymm0, %ymm3, %ymm3
	vsubps	%ymm3, %ymm1, %ymm3
	vmulps	%ymm0, %ymm3, %ymm3
	vsubps	%ymm3, %ymm1, %ymm3
	vmulps	%ymm0, %ymm3, %ymm3
	vmulps	%ymm0, %ymm2, %ymm2
	vsubps	%ymm2, %ymm1, %ymm2
	vmulps	%ymm0, %ymm2, %ymm2
	vsubps	%ymm2, %ymm1, %ymm2
	vmulps	%ymm0, %ymm2, %ymm2
	vsubps	%ymm2, %ymm1, %ymm2
	vmulps	%ymm0, %ymm2, %ymm2
	vsubps	%ymm3, %ymm1, %ymm3
	vmulps	%ymm0, %ymm3, %ymm3
	vsubps	%ymm3, %ymm1, %ymm3
	vmulps	%ymm0, %ymm3, %ymm3
	vsubps	%ymm3, %ymm1, %ymm3
	vmulps	%ymm0, %ymm3, %ymm3
	vsubps	%ymm3, %ymm1, %ymm3
	vsubps	%ymm2, %ymm1, %ymm2
	vmulps	%ymm0, %ymm2, %ymm2
	vsubps	%ymm2, %ymm1, %ymm2
	vmulps	%ymm0, %ymm2, %ymm2
	vsubps	%ymm2, %ymm1, %ymm2
	vmulps	%ymm0, %ymm2, %ymm2
	vsubps	%ymm2, %ymm1, %ymm2
	vmulps	%ymm0, %ymm3, %ymm3
	vsubps	%ymm3, %ymm1, %ymm3
	vmulps	%ymm0, %ymm3, %ymm3
	vsubps	%ymm3, %ymm1, %ymm3
	vmulps	%ymm0, %ymm3, %ymm3
	vsubps	%ymm3, %ymm1, %ymm3
	vmulps	%ymm0, %ymm3, %ymm3
	vmulps	%ymm0, %ymm2, %ymm2
	vsubps	%ymm2, %ymm1, %ymm2
	vmulps	%ymm0, %ymm2, %ymm2
	vsubps	%ymm2, %ymm1, %ymm2
	vmulps	%ymm0, %ymm2, %ymm2
	vsubps	%ymm2, %ymm1, %ymm2
	vmulps	%ymm0, %ymm2, %ymm2
	vsubps	%ymm3, %ymm1, %ymm3
	vmulps	%ymm0, %ymm3, %ymm3
	vsubps	%ymm3, %ymm1, %ymm3
	vmulps	%ymm0, %ymm3, %ymm3
	vsubps	%ymm3, %ymm1, %ymm3
	vmulps	%ymm0, %ymm3, %ymm3
	vsubps	%ymm3, %ymm1, %ymm3
	vsubps	%ymm2, %ymm1, %ymm2
	vmulps	%ymm0, %ymm2, %ymm2
	vsubps	%ymm2, %ymm1, %ymm2
	vmulps	%ymm0, %ymm2, %ymm2
	vsubps	%ymm2, %ymm1, %ymm2
	vmulps	%ymm0, %ymm2, %ymm2
	vsubps	%ymm2, %ymm1, %ymm2
	vmulps	%ymm0, %ymm3, %ymm3
	vsubps	%ymm3, %ymm1, %ymm3
	vmulps	%ymm0, %ymm3, %ymm3
	vsubps	%ymm3, %ymm1, %ymm3
	vmulps	%ymm0, %ymm3, %ymm3
	vsubps	%ymm3, %ymm1, %ymm3
	vmulps	%ymm0, %ymm3, %ymm3
	vmulps	%ymm0, %ymm2, %ymm2
	vsubps	%ymm2, %ymm1, %ymm2
	vmulps	%ymm0, %ymm2, %ymm2
	vsubps	%ymm2, %ymm1, %ymm2
	vmulps	%ymm0, %ymm2, %ymm2
	vsubps	%ymm2, %ymm1, %ymm2
	vmulps	%ymm0, %ymm2, %ymm2
	vsubps	%ymm3, %ymm1, %ymm3
	vmulps	%ymm0, %ymm3, %ymm3
	vsubps	%ymm3, %ymm1, %ymm3
	vmulps	%ymm0, %ymm3, %ymm3
	vsubps	%ymm3, %ymm1, %ymm3
	vmulps	%ymm0, %ymm3, %ymm3
	vsubps	%ymm3, %ymm1, %ymm3
	vsubps	%ymm2, %ymm1, %ymm2
	vmulps	%ymm0, %ymm2, %ymm2
	vsubps	%ymm2, %ymm1, %ymm2
	vmulps	%ymm0, %ymm2, %ymm2
	vsubps	%ymm2, %ymm1, %ymm2
	vmulps	%ymm0, %ymm2, %ymm2
	vsubps	%ymm2, %ymm1, %ymm2
	vmulps	%ymm0, %ymm3, %ymm3
	vsubps	%ymm3, %ymm1, %ymm3
	vmulps	%ymm0, %ymm3, %ymm3
	vsubps	%ymm3, %ymm1, %ymm3
	vmulps	%ymm0, %ymm3, %ymm3
	vsubps	%ymm3, %ymm1, %ymm3
	vmulps	%ymm0, %ymm3, %ymm3
	vmulps	%ymm0, %ymm2, %ymm2
	vsubps	%ymm2, %ymm1, %ymm2
	vmulps	%ymm0, %ymm2, %ymm2
	vsubps	%ymm2, %ymm1, %ymm2
	vmulps	%ymm0, %ymm2, %ymm2
	vsubps	%ymm2, %ymm1, %ymm2
	vmulps	%ymm0, %ymm2, %ymm2
	vsubps	%ymm3, %ymm1, %ymm3
	vmulps	%ymm0, %ymm3, %ymm3
	vsubps	%ymm3, %ymm1, %ymm3
	vmulps	%ymm0, %ymm3, %ymm3
	vsubps	%ymm3, %ymm1, %ymm3
	vmulps	%ymm0, %ymm3, %ymm3
	vsubps	%ymm3, %ymm1, %ymm3
	vsubps	%ymm2, %ymm1, %ymm2
	vmulps	%ymm0, %ymm2, %ymm2
	vsubps	%ymm2, %ymm1, %ymm2
	vmulps	%ymm0, %ymm2, %ymm2
	vsubps	%ymm2, %ymm1, %ymm2
	vmulps	%ymm0, %ymm2, %ymm2
	vsubps	%ymm2, %ymm1, %ymm2
	vmulps	%ymm0, %ymm3, %ymm3
	vsubps	%ymm3, %ymm1, %ymm3
	vmulps	%ymm0, %ymm3, %ymm3
	vsubps	%ymm3, %ymm1, %ymm3
	vmulps	%ymm0, %ymm3, %ymm3
	vsubps	%ymm3, %ymm1, %ymm3
	vmulps	%ymm0, %ymm3, %ymm3
	vmulps	%ymm0, %ymm2, %ymm2
	vsubps	%ymm2, %ymm1, %ymm2
	vmulps	%ymm0, %ymm2, %ymm2
	vsubps	%ymm2, %ymm1, %ymm2
	vmulps	%ymm0, %ymm2, %ymm2
	vsubps	%ymm2, %ymm1, %ymm2
	vmulps	%ymm0, %ymm2, %ymm2
	vsubps	%ymm3, %ymm1, %ymm3
	vmulps	%ymm0, %ymm3, %ymm3
	vsubps	%ymm3, %ymm1, %ymm3
	vmulps	%ymm0, %ymm3, %ymm3
	vsubps	%ymm3, %ymm1, %ymm3
	vmulps	%ymm0, %ymm3, %ymm3
	vsubps	%ymm3, %ymm1, %ymm3
	vsubps	%ymm2, %ymm1, %ymm2
	vmulps	%ymm0, %ymm2, %ymm2
	vsubps	%ymm2, %ymm1, %ymm2
	vmulps	%ymm0, %ymm2, %ymm2
	vsubps	%ymm2, %ymm1, %ymm2
	vmulps	%ymm0, %ymm2, %ymm2
	vsubps	%ymm2, %ymm1, %ymm2
	vmulps	%ymm0, %ymm3, %ymm3
	vsubps	%ymm3, %ymm1, %ymm3
	vmulps	%ymm0, %ymm3, %ymm3
	vsubps	%ymm3, %ymm1, %ymm3
	vmulps	%ymm0, %ymm3, %ymm3
	vsubps	%ymm3, %ymm1, %ymm3
	vmulps	%ymm0, %ymm3, %ymm3
	vmulps	%ymm0, %ymm2, %ymm2
	vsubps	%ymm2, %ymm1, %ymm2
	vmulps	%ymm0, %ymm2, %ymm2
	vsubps	%ymm2, %ymm1, %ymm2
	vmulps	%ymm0, %ymm2, %ymm2
	vsubps	%ymm2, %ymm1, %ymm2
	vmulps	%ymm0, %ymm2, %ymm2
	vsubps	%ymm3, %ymm1, %ymm3
	vmulps	%ymm0, %ymm3, %ymm3
	vsubps	%ymm3, %ymm1, %ymm3
	vmulps	%ymm0, %ymm3, %ymm3
	vsubps	%ymm3, %ymm1, %ymm3
	vmulps	%ymm0, %ymm3, %ymm3
	vsubps	%ymm3, %ymm1, %ymm3
	vsubps	%ymm2, %ymm1, %ymm2
	vmulps	%ymm0, %ymm2, %ymm2
	vsubps	%ymm2, %ymm1, %ymm2
	vmulps	%ymm0, %ymm2, %ymm2
	vsubps	%ymm2, %ymm1, %ymm2
	vmulps	%ymm0, %ymm2, %ymm2
	vsubps	%ymm2, %ymm1, %ymm2
	vmulps	%ymm0, %ymm3, %ymm3
	vsubps	%ymm3, %ymm1, %ymm3
	vmulps	%ymm0, %ymm3, %ymm3
	vsubps	%ymm3, %ymm1, %ymm3
	vmulps	%ymm0, %ymm3, %ymm3
	vsubps	%ymm3, %ymm1, %ymm3
	vmulps	%ymm0, %ymm3, %ymm3
	vmulps	%ymm0, %ymm2, %ymm2
	vsubps	%ymm2, %ymm1, %ymm2
	vmulps	%ymm0, %ymm2, %ymm2
	vsubps	%ymm2, %ymm1, %ymm2
	vmulps	%ymm0, %ymm2, %ymm2
	vsubps	%ymm2, %ymm1, %ymm2
	vmulps	%ymm0, %ymm2, %ymm2
	vsubps	%ymm3, %ymm1, %ymm3
	vmulps	%ymm0, %ymm3, %ymm3
	vsubps	%ymm3, %ymm1, %ymm3
	vmulps	%ymm0, %ymm3, %ymm3
	vsubps	%ymm3, %ymm1, %ymm3
	vmulps	%ymm0, %ymm3, %ymm3
	vsubps	%ymm3, %ymm1, %ymm3
	vsubps	%ymm2, %ymm1, %ymm2
	vmulps	%ymm0, %ymm2, %ymm2
	vsubps	%ymm2, %ymm1, %ymm2
	vmulps	%ymm0, %ymm2, %ymm2
	vsubps	%ymm2, %ymm1, %ymm2
	vmulps	%ymm0, %ymm2, %ymm2
	vsubps	%ymm2, %ymm1, %ymm2
	vmulps	%ymm0, %ymm3, %ymm3
	vsubps	%ymm3, %ymm1, %ymm3
	vmulps	%ymm0, %ymm3, %ymm3
	vsubps	%ymm3, %ymm1, %ymm3
	vmulps	%ymm0, %ymm3, %ymm3
	vsubps	%ymm3, %ymm1, %ymm3
	vmulps	%ymm0, %ymm3, %ymm3
	vmulps	%ymm0, %ymm2, %ymm2
	vsubps	%ymm2, %ymm1, %ymm2
	vmulps	%ymm0, %ymm2, %ymm2
	vsubps	%ymm2, %ymm1, %ymm2
	vmulps	%ymm0, %ymm2, %ymm2
	vsubps	%ymm2, %ymm1, %ymm2
	vmulps	%ymm0, %ymm2, %ymm2
	vsubps	%ymm3, %ymm1, %ymm3
	vmulps	%ymm0, %ymm3, %ymm3
	vsubps	%ymm3, %ymm1, %ymm3
	vmulps	%ymm0, %ymm3, %ymm3
	vsubps	%ymm3, %ymm1, %ymm3
	vmulps	%ymm0, %ymm3, %ymm3
	vsubps	%ymm3, %ymm1, %ymm3
	vsubps	%ymm2, %ymm1, %ymm2
	vmulps	%ymm0, %ymm2, %ymm2
	vsubps	%ymm2, %ymm1, %ymm2
	vmulps	%ymm0, %ymm2, %ymm2
	vsubps	%ymm2, %ymm1, %ymm2
	vmulps	%ymm0, %ymm2, %ymm2
	vsubps	%ymm2, %ymm1, %ymm2
	vmulps	%ymm0, %ymm3, %ymm3
	vsubps	%ymm3, %ymm1, %ymm3
	vmulps	%ymm0, %ymm3, %ymm3
	vsubps	%ymm3, %ymm1, %ymm3
	vmulps	%ymm0, %ymm3, %ymm3
	vsubps	%ymm3, %ymm1, %ymm3
	vmulps	%ymm0, %ymm3, %ymm3
	vmulps	%ymm0, %ymm2, %ymm2
	vsubps	%ymm2, %ymm1, %ymm2
	vmulps	%ymm0, %ymm2, %ymm2
	vsubps	%ymm2, %ymm1, %ymm2
	vmulps	%ymm0, %ymm2, %ymm2
	vsubps	%ymm2, %ymm1, %ymm2
	vmulps	%ymm0, %ymm2, %ymm2
	vsubps	%ymm3, %ymm1, %ymm3
	vmulps	%ymm0, %ymm3, %ymm3
	vsubps	%ymm3, %ymm1, %ymm3
	vmulps	%ymm0, %ymm3, %ymm3
	vsubps	%ymm3, %ymm1, %ymm3
	vmulps	%ymm0, %ymm3, %ymm3
	vsubps	%ymm3, %ymm1, %ymm3
	vsubps	%ymm2, %ymm1, %ymm2
	vmulps	%ymm0, %ymm2, %ymm2
	vsubps	%ymm2, %ymm1, %ymm2
	vmulps	%ymm0, %ymm2, %ymm2
	vsubps	%ymm2, %ymm1, %ymm2
	vmulps	%ymm0, %ymm2, %ymm2
	vsubps	%ymm2, %ymm1, %ymm2
	vmulps	%ymm0, %ymm3, %ymm3
	vsubps	%ymm3, %ymm1, %ymm3
	vmulps	%ymm0, %ymm3, %ymm3
	vsubps	%ymm3, %ymm1, %ymm3
	vmulps	%ymm0, %ymm3, %ymm3
	vsubps	%ymm3, %ymm1, %ymm3
	vmulps	%ymm0, %ymm3, %ymm3
	vmulps	%ymm0, %ymm2, %ymm2
	vsubps	%ymm2, %ymm1, %ymm2
	vmulps	%ymm0, %ymm2, %ymm2
	vsubps	%ymm2, %ymm1, %ymm2
	vmulps	%ymm0, %ymm2, %ymm2
	vsubps	%ymm2, %ymm1, %ymm2
	vmulps	%ymm0, %ymm2, %ymm2
	vsubps	%ymm3, %ymm1, %ymm3
	vmulps	%ymm0, %ymm3, %ymm3
	vsubps	%ymm3, %ymm1, %ymm3
	vmulps	%ymm0, %ymm3, %ymm3
	vsubps	%ymm3, %ymm1, %ymm3
	vmulps	%ymm0, %ymm3, %ymm3
	vsubps	%ymm3, %ymm1, %ymm3
	vsubps	%ymm2, %ymm1, %ymm2
	vmulps	%ymm0, %ymm2, %ymm2
	vsubps	%ymm2, %ymm1, %ymm2
	vmulps	%ymm0, %ymm2, %ymm2
	vsubps	%ymm2, %ymm1, %ymm2
	vmulps	%ymm0, %ymm2, %ymm2
	vsubps	%ymm2, %ymm1, %ymm2
	vmulps	%ymm0, %ymm3, %ymm3
	vsubps	%ymm3, %ymm1, %ymm3
	vmulps	%ymm0, %ymm3, %ymm3
	vsubps	%ymm3, %ymm1, %ymm3
	vmulps	%ymm0, %ymm3, %ymm3
	vsubps	%ymm3, %ymm1, %ymm3
	vmulps	%ymm0, %ymm3, %ymm3
	vmulps	%ymm0, %ymm2, %ymm2
	vsubps	%ymm2, %ymm1, %ymm2
	vmulps	%ymm0, %ymm2, %ymm2
	vsubps	%ymm2, %ymm1, %ymm2
	vmulps	%ymm0, %ymm2, %ymm2
	vsubps	%ymm2, %ymm1, %ymm2
	vmulps	%ymm0, %ymm2, %ymm2
	vsubps	%ymm3, %ymm1, %ymm3
	vmulps	%ymm0, %ymm3, %ymm3
	vsubps	%ymm3, %ymm1, %ymm3
	vmulps	%ymm0, %ymm3, %ymm3
	vsubps	%ymm3, %ymm1, %ymm3
	vmulps	%ymm0, %ymm3, %ymm3
	vsubps	%ymm3, %ymm1, %ymm3
	vsubps	%ymm2, %ymm1, %ymm2
	vmulps	%ymm0, %ymm2, %ymm2
	vsubps	%ymm2, %ymm1, %ymm2
	vmulps	%ymm0, %ymm2, %ymm2
	vsubps	%ymm2, %ymm1, %ymm2
	vmulps	%ymm0, %ymm2, %ymm2
	vsubps	%ymm2, %ymm1, %ymm2
	vmulps	%ymm0, %ymm3, %ymm3
	vsubps	%ymm3, %ymm1, %ymm3
	vmulps	%ymm0, %ymm3, %ymm3
	vsubps	%ymm3, %ymm1, %ymm3
	vmulps	%ymm0, %ymm3, %ymm3
	vsubps	%ymm3, %ymm1, %ymm3
	vmulps	%ymm0, %ymm3, %ymm3
	vmulps	%ymm0, %ymm2, %ymm2
	vsubps	%ymm2, %ymm1, %ymm2
	vmulps	%ymm0, %ymm2, %ymm2
	vsubps	%ymm2, %ymm1, %ymm2
	vmulps	%ymm0, %ymm2, %ymm2
	vsubps	%ymm2, %ymm1, %ymm2
	vmulps	%ymm0, %ymm2, %ymm2
	vsubps	%ymm3, %ymm1, %ymm3
	vmulps	%ymm0, %ymm3, %ymm3
	vsubps	%ymm3, %ymm1, %ymm3
	vmulps	%ymm0, %ymm3, %ymm3
	vsubps	%ymm3, %ymm1, %ymm3
	vmulps	%ymm0, %ymm3, %ymm3
	vsubps	%ymm3, %ymm1, %ymm3
	vsubps	%ymm2, %ymm1, %ymm2
	vmulps	%ymm0, %ymm2, %ymm2
	vsubps	%ymm2, %ymm1, %ymm2
	vmulps	%ymm0, %ymm2, %ymm2
	vsubps	%ymm2, %ymm1, %ymm2
	vmulps	%ymm0, %ymm2, %ymm2
	vsubps	%ymm2, %ymm1, %ymm2
	vmulps	%ymm0, %ymm3, %ymm3
	vsubps	%ymm3, %ymm1, %ymm3
	vmulps	%ymm0, %ymm3, %ymm3
	vsubps	%ymm3, %ymm1, %ymm3
	vmulps	%ymm0, %ymm3, %ymm3
	vsubps	%ymm3, %ymm1, %ymm3
	vmulps	%ymm0, %ymm3, %ymm3
	vmulps	%ymm0, %ymm2, %ymm2
	vsubps	%ymm2, %ymm1, %ymm2
	vmulps	%ymm0, %ymm2, %ymm2
	vsubps	%ymm2, %ymm1, %ymm2
	vmulps	%ymm0, %ymm2, %ymm2
	vsubps	%ymm2, %ymm1, %ymm2
	vmulps	%ymm0, %ymm2, %ymm2
	vsubps	%ymm3, %ymm1, %ymm3
	vmulps	%ymm0, %ymm3, %ymm3
	vsubps	%ymm3, %ymm1, %ymm3
	vmulps	%ymm0, %ymm3, %ymm3
	vsubps	%ymm3, %ymm1, %ymm3
	vmulps	%ymm0, %ymm3, %ymm3
	vsubps	%ymm3, %ymm1, %ymm3
	vsubps	%ymm2, %ymm1, %ymm2
	vmulps	%ymm0, %ymm2, %ymm2
	vsubps	%ymm2, %ymm1, %ymm2
	vmulps	%ymm0, %ymm2, %ymm2
	vsubps	%ymm2, %ymm1, %ymm2
	vmulps	%ymm0, %ymm2, %ymm2
	vsubps	%ymm2, %ymm1, %ymm2
	vmulps	%ymm0, %ymm3, %ymm3
	vsubps	%ymm3, %ymm1, %ymm3
	vmulps	%ymm0, %ymm3, %ymm3
	vsubps	%ymm3, %ymm1, %ymm3
	vmulps	%ymm0, %ymm3, %ymm3
	vsubps	%ymm3, %ymm1, %ymm3
	vmulps	%ymm0, %ymm3, %ymm3
	vmulps	%ymm0, %ymm2, %ymm2
	vsubps	%ymm2, %ymm1, %ymm2
	vmulps	%ymm0, %ymm2, %ymm2
	vsubps	%ymm2, %ymm1, %ymm2
	vmulps	%ymm0, %ymm2, %ymm2
	vsubps	%ymm2, %ymm1, %ymm2
	vmulps	%ymm0, %ymm2, %ymm2
	vsubps	%ymm3, %ymm1, %ymm3
	vmulps	%ymm0, %ymm3, %ymm3
	vsubps	%ymm3, %ymm1, %ymm3
	vmulps	%ymm0, %ymm3, %ymm3
	vsubps	%ymm3, %ymm1, %ymm3
	vmulps	%ymm0, %ymm3, %ymm3
	vsubps	%ymm3, %ymm1, %ymm3
	vsubps	%ymm2, %ymm1, %ymm2
	vmulps	%ymm0, %ymm2, %ymm2
	vsubps	%ymm2, %ymm1, %ymm2
	vmulps	%ymm0, %ymm2, %ymm2
	vsubps	%ymm2, %ymm1, %ymm2
	vmulps	%ymm0, %ymm2, %ymm2
	vsubps	%ymm2, %ymm1, %ymm2
	vmulps	%ymm0, %ymm3, %ymm3
	vsubps	%ymm3, %ymm1, %ymm3
	vmulps	%ymm0, %ymm3, %ymm3
	vsubps	%ymm3, %ymm1, %ymm3
	vmulps	%ymm0, %ymm3, %ymm3
	vsubps	%ymm3, %ymm1, %ymm3
	vmulps	%ymm0, %ymm3, %ymm3
	vmulps	%ymm0, %ymm2, %ymm2
	vsubps	%ymm2, %ymm1, %ymm2
	vmulps	%ymm0, %ymm2, %ymm2
	vsubps	%ymm2, %ymm1, %ymm2
	vmulps	%ymm0, %ymm2, %ymm2
	vsubps	%ymm2, %ymm1, %ymm2
	vmulps	%ymm0, %ymm2, %ymm2
	vsubps	%ymm3, %ymm1, %ymm3
	vmulps	%ymm0, %ymm3, %ymm3
	vsubps	%ymm3, %ymm1, %ymm3
	vmulps	%ymm0, %ymm3, %ymm3
	vsubps	%ymm3, %ymm1, %ymm3
	vmulps	%ymm0, %ymm3, %ymm3
	vsubps	%ymm3, %ymm1, %ymm3
	vsubps	%ymm2, %ymm1, %ymm2
	vmulps	%ymm0, %ymm2, %ymm2
	vsubps	%ymm2, %ymm1, %ymm2
	vmulps	%ymm0, %ymm2, %ymm2
	vsubps	%ymm2, %ymm1, %ymm2
	vmulps	%ymm0, %ymm2, %ymm2
	vsubps	%ymm2, %ymm1, %ymm2
	vmulps	%ymm0, %ymm3, %ymm3
	vsubps	%ymm3, %ymm1, %ymm3
	vmulps	%ymm0, %ymm3, %ymm3
	vsubps	%ymm3, %ymm1, %ymm3
	vmulps	%ymm0, %ymm3, %ymm3
	vsubps	%ymm3, %ymm1, %ymm3
	vmulps	%ymm0, %ymm3, %ymm3
	vmulps	%ymm0, %ymm2, %ymm2
	vsubps	%ymm2, %ymm1, %ymm2
	vmulps	%ymm0, %ymm2, %ymm2
	vsubps	%ymm2, %ymm1, %ymm2
	vmulps	%ymm0, %ymm2, %ymm2
	vsubps	%ymm2, %ymm1, %ymm2
	vmulps	%ymm0, %ymm2, %ymm2
	vsubps	%ymm3, %ymm1, %ymm3
	vmulps	%ymm0, %ymm3, %ymm3
	vsubps	%ymm3, %ymm1, %ymm3
	vmulps	%ymm0, %ymm3, %ymm3
	vsubps	%ymm3, %ymm1, %ymm3
	vmulps	%ymm0, %ymm3, %ymm3
	vsubps	%ymm3, %ymm1, %ymm3
	vsubps	%ymm2, %ymm1, %ymm2
	vmulps	%ymm0, %ymm2, %ymm2
	vsubps	%ymm2, %ymm1, %ymm2
	vmulps	%ymm0, %ymm2, %ymm2
	vsubps	%ymm2, %ymm1, %ymm2
	vmulps	%ymm0, %ymm2, %ymm2
	vsubps	%ymm2, %ymm1, %ymm2
	vmulps	%ymm0, %ymm3, %ymm3
	vsubps	%ymm3, %ymm1, %ymm3
	vmulps	%ymm0, %ymm3, %ymm3
	vsubps	%ymm3, %ymm1, %ymm3
	vmulps	%ymm0, %ymm3, %ymm3
	vsubps	%ymm3, %ymm1, %ymm3
	vmulps	%ymm0, %ymm3, %ymm3
	vmulps	%ymm0, %ymm2, %ymm2
	vsubps	%ymm2, %ymm1, %ymm2
	vmulps	%ymm0, %ymm2, %ymm2
	vsubps	%ymm2, %ymm1, %ymm2
	vmulps	%ymm0, %ymm2, %ymm2
	vsubps	%ymm2, %ymm1, %ymm2
	vmulps	%ymm0, %ymm2, %ymm2
	vsubps	%ymm3, %ymm1, %ymm3
	vmulps	%ymm0, %ymm3, %ymm3
	vsubps	%ymm3, %ymm1, %ymm3
	vmulps	%ymm0, %ymm3, %ymm3
	vsubps	%ymm3, %ymm1, %ymm3
	vmulps	%ymm0, %ymm3, %ymm3
	vsubps	%ymm3, %ymm1, %ymm3
	vsubps	%ymm2, %ymm1, %ymm2
	vmulps	%ymm0, %ymm2, %ymm2
	vsubps	%ymm2, %ymm1, %ymm2
	vmulps	%ymm0, %ymm2, %ymm2
	vsubps	%ymm2, %ymm1, %ymm2
	vmulps	%ymm0, %ymm2, %ymm2
	vsubps	%ymm2, %ymm1, %ymm2
	vmulps	%ymm0, %ymm3, %ymm3
	vsubps	%ymm3, %ymm1, %ymm3
	vmulps	%ymm0, %ymm3, %ymm3
	vsubps	%ymm3, %ymm1, %ymm3
	vmulps	%ymm0, %ymm3, %ymm3
	vsubps	%ymm3, %ymm1, %ymm3
	vmulps	%ymm0, %ymm3, %ymm3
	vmulps	%ymm0, %ymm2, %ymm2
	vsubps	%ymm2, %ymm1, %ymm2
	vmulps	%ymm0, %ymm2, %ymm2
	vsubps	%ymm2, %ymm1, %ymm2
	vmulps	%ymm0, %ymm2, %ymm2
	vsubps	%ymm2, %ymm1, %ymm2
	vmulps	%ymm0, %ymm2, %ymm2
	vsubps	%ymm3, %ymm1, %ymm3
	vmulps	%ymm0, %ymm3, %ymm3
	vsubps	%ymm3, %ymm1, %ymm3
	vmulps	%ymm0, %ymm3, %ymm3
	vsubps	%ymm3, %ymm1, %ymm3
	vmulps	%ymm0, %ymm3, %ymm3
	vsubps	%ymm3, %ymm1, %ymm3
	vsubps	%ymm2, %ymm1, %ymm2
	vmulps	%ymm0, %ymm2, %ymm2
	vsubps	%ymm2, %ymm1, %ymm2
	vmulps	%ymm0, %ymm2, %ymm2
	vsubps	%ymm2, %ymm1, %ymm2
	vmulps	%ymm0, %ymm2, %ymm2
	vsubps	%ymm2, %ymm1, %ymm2
	vmulps	%ymm0, %ymm3, %ymm3
	vsubps	%ymm3, %ymm1, %ymm3
	vmulps	%ymm0, %ymm3, %ymm3
	vsubps	%ymm3, %ymm1, %ymm3
	vmulps	%ymm0, %ymm3, %ymm3
	vsubps	%ymm3, %ymm1, %ymm3
	vmulps	%ymm0, %ymm3, %ymm3
	vmulps	%ymm0, %ymm2, %ymm2
	vsubps	%ymm2, %ymm1, %ymm2
	vmulps	%ymm0, %ymm2, %ymm2
	vsubps	%ymm2, %ymm1, %ymm2
	vmulps	%ymm0, %ymm2, %ymm2
	vsubps	%ymm2, %ymm1, %ymm2
	vmulps	%ymm0, %ymm2, %ymm2
	vsubps	%ymm3, %ymm1, %ymm3
	vmulps	%ymm0, %ymm3, %ymm3
	vsubps	%ymm3, %ymm1, %ymm3
	vmulps	%ymm0, %ymm3, %ymm3
	vsubps	%ymm3, %ymm1, %ymm3
	vmulps	%ymm0, %ymm3, %ymm3
	vsubps	%ymm3, %ymm1, %ymm3
	vsubps	%ymm2, %ymm1, %ymm2
	vmulps	%ymm0, %ymm2, %ymm2
	vsubps	%ymm2, %ymm1, %ymm2
	vmulps	%ymm0, %ymm2, %ymm2
	vsubps	%ymm2, %ymm1, %ymm2
	vmulps	%ymm0, %ymm2, %ymm2
	vsubps	%ymm2, %ymm1, %ymm2
	vmulps	%ymm0, %ymm3, %ymm3
	vsubps	%ymm3, %ymm1, %ymm3
	vmulps	%ymm0, %ymm3, %ymm3
	vsubps	%ymm3, %ymm1, %ymm3
	vmulps	%ymm0, %ymm3, %ymm3
	vsubps	%ymm3, %ymm1, %ymm3
	vmulps	%ymm0, %ymm3, %ymm3
	vmulps	%ymm0, %ymm2, %ymm2
	vsubps	%ymm2, %ymm1, %ymm2
	vmulps	%ymm0, %ymm2, %ymm2
	vsubps	%ymm2, %ymm1, %ymm2
	vmulps	%ymm0, %ymm2, %ymm2
	vsubps	%ymm2, %ymm1, %ymm2
	vmulps	%ymm0, %ymm2, %ymm2
	vsubps	%ymm3, %ymm1, %ymm3
	vmulps	%ymm0, %ymm3, %ymm3
	vsubps	%ymm3, %ymm1, %ymm3
	vmulps	%ymm0, %ymm3, %ymm3
	vsubps	%ymm3, %ymm1, %ymm3
	vmulps	%ymm0, %ymm3, %ymm3
	vsubps	%ymm3, %ymm1, %ymm3
	vsubps	%ymm2, %ymm1, %ymm2
	vmulps	%ymm0, %ymm2, %ymm2
	vsubps	%ymm2, %ymm1, %ymm2
	vmulps	%ymm0, %ymm2, %ymm2
	vsubps	%ymm2, %ymm1, %ymm2
	vmulps	%ymm0, %ymm2, %ymm2
	vsubps	%ymm2, %ymm1, %ymm2
	vmulps	%ymm0, %ymm3, %ymm3
	vsubps	%ymm3, %ymm1, %ymm3
	vmulps	%ymm0, %ymm3, %ymm3
	vsubps	%ymm3, %ymm1, %ymm3
	vmulps	%ymm0, %ymm3, %ymm3
	vsubps	%ymm3, %ymm1, %ymm3
	vmulps	%ymm0, %ymm3, %ymm3
	vmulps	%ymm0, %ymm2, %ymm2
	vsubps	%ymm2, %ymm1, %ymm2
	vmulps	%ymm0, %ymm2, %ymm2
	vsubps	%ymm2, %ymm1, %ymm2
	vmulps	%ymm0, %ymm2, %ymm2
	vsubps	%ymm2, %ymm1, %ymm2
	vmulps	%ymm0, %ymm2, %ymm2
	vsubps	%ymm3, %ymm1, %ymm3
	vmulps	%ymm0, %ymm3, %ymm3
	vsubps	%ymm3, %ymm1, %ymm3
	vmulps	%ymm0, %ymm3, %ymm3
	vsubps	%ymm3, %ymm1, %ymm3
	vmulps	%ymm0, %ymm3, %ymm3
	vsubps	%ymm3, %ymm1, %ymm3
	vsubps	%ymm2, %ymm1, %ymm2
	vmulps	%ymm0, %ymm2, %ymm2
	vsubps	%ymm2, %ymm1, %ymm2
	vmulps	%ymm0, %ymm2, %ymm2
	vsubps	%ymm2, %ymm1, %ymm2
	vmulps	%ymm0, %ymm2, %ymm2
	vsubps	%ymm2, %ymm1, %ymm2
	vmulps	%ymm0, %ymm3, %ymm3
	vsubps	%ymm3, %ymm1, %ymm3
	vmulps	%ymm0, %ymm3, %ymm3
	vsubps	%ymm3, %ymm1, %ymm3
	vmulps	%ymm0, %ymm3, %ymm3
	vsubps	%ymm3, %ymm1, %ymm3
	vmulps	%ymm0, %ymm3, %ymm3
	vmulps	%ymm0, %ymm2, %ymm2
	vsubps	%ymm2, %ymm1, %ymm2
	vmulps	%ymm0, %ymm2, %ymm2
	vsubps	%ymm2, %ymm1, %ymm2
	vmulps	%ymm0, %ymm2, %ymm2
	vsubps	%ymm2, %ymm1, %ymm2
	vmulps	%ymm0, %ymm2, %ymm2
	vsubps	%ymm3, %ymm1, %ymm3
	vmulps	%ymm0, %ymm3, %ymm3
	vsubps	%ymm3, %ymm1, %ymm3
	vmulps	%ymm0, %ymm3, %ymm3
	vsubps	%ymm3, %ymm1, %ymm3
	vmulps	%ymm0, %ymm3, %ymm3
	vsubps	%ymm3, %ymm1, %ymm3
	vsubps	%ymm2, %ymm1, %ymm2
	vmulps	%ymm0, %ymm2, %ymm2
	vsubps	%ymm2, %ymm1, %ymm2
	vmulps	%ymm0, %ymm2, %ymm2
	vsubps	%ymm2, %ymm1, %ymm2
	vmulps	%ymm0, %ymm2, %ymm2
	vsubps	%ymm2, %ymm1, %ymm2
	vmulps	%ymm0, %ymm3, %ymm3
	vsubps	%ymm3, %ymm1, %ymm3
	vmulps	%ymm0, %ymm3, %ymm3
	vsubps	%ymm3, %ymm1, %ymm3
	vmulps	%ymm0, %ymm3, %ymm3
	vsubps	%ymm3, %ymm1, %ymm3
	vmulps	%ymm0, %ymm3, %ymm3
	vmulps	%ymm0, %ymm2, %ymm2
	vsubps	%ymm2, %ymm1, %ymm2
	vmulps	%ymm0, %ymm2, %ymm2
	vsubps	%ymm2, %ymm1, %ymm2
	vmulps	%ymm0, %ymm2, %ymm2
	vsubps	%ymm2, %ymm1, %ymm2
	vmulps	%ymm0, %ymm2, %ymm2
	vsubps	%ymm3, %ymm1, %ymm3
	vmulps	%ymm0, %ymm3, %ymm3
	vsubps	%ymm3, %ymm1, %ymm3
	vmulps	%ymm0, %ymm3, %ymm3
	vsubps	%ymm3, %ymm1, %ymm3
	vmulps	%ymm0, %ymm3, %ymm3
	vsubps	%ymm3, %ymm1, %ymm3
	vsubps	%ymm2, %ymm1, %ymm2
	vmulps	%ymm0, %ymm2, %ymm2
	vsubps	%ymm2, %ymm1, %ymm2
	vmulps	%ymm0, %ymm2, %ymm2
	vsubps	%ymm2, %ymm1, %ymm2
	vmulps	%ymm0, %ymm2, %ymm2
	vsubps	%ymm2, %ymm1, %ymm2
	vmulps	%ymm0, %ymm3, %ymm3
	vsubps	%ymm3, %ymm1, %ymm3
	vmulps	%ymm0, %ymm3, %ymm3
	vsubps	%ymm3, %ymm1, %ymm3
	vmulps	%ymm0, %ymm3, %ymm3
	vsubps	%ymm3, %ymm1, %ymm3
	vmulps	%ymm0, %ymm3, %ymm3
	vmulps	%ymm0, %ymm2, %ymm2
	vsubps	%ymm2, %ymm1, %ymm2
	vmulps	%ymm0, %ymm2, %ymm2
	vsubps	%ymm2, %ymm1, %ymm2
	vmulps	%ymm0, %ymm2, %ymm2
	vsubps	%ymm2, %ymm1, %ymm2
	vmulps	%ymm0, %ymm2, %ymm2
	vsubps	%ymm3, %ymm1, %ymm3
	vmulps	%ymm0, %ymm3, %ymm3
	vsubps	%ymm3, %ymm1, %ymm3
	vmulps	%ymm0, %ymm3, %ymm3
	vsubps	%ymm3, %ymm1, %ymm3
	vmulps	%ymm0, %ymm3, %ymm3
	vsubps	%ymm3, %ymm1, %ymm3
	vsubps	%ymm2, %ymm1, %ymm2
	vmulps	%ymm0, %ymm2, %ymm2
	vsubps	%ymm2, %ymm1, %ymm2
	vmulps	%ymm0, %ymm2, %ymm2
	vsubps	%ymm2, %ymm1, %ymm2
	vmulps	%ymm0, %ymm2, %ymm2
	vsubps	%ymm2, %ymm1, %ymm2
	vmulps	%ymm0, %ymm3, %ymm3
	vsubps	%ymm3, %ymm1, %ymm3
	vmulps	%ymm0, %ymm3, %ymm3
	vsubps	%ymm3, %ymm1, %ymm3
	vmulps	%ymm0, %ymm3, %ymm3
	vsubps	%ymm3, %ymm1, %ymm3
	vmulps	%ymm0, %ymm3, %ymm3
	vmulps	%ymm0, %ymm2, %ymm2
	vsubps	%ymm2, %ymm1, %ymm2
	vmulps	%ymm0, %ymm2, %ymm2
	vsubps	%ymm2, %ymm1, %ymm2
	vmulps	%ymm0, %ymm2, %ymm2
	vsubps	%ymm2, %ymm1, %ymm2
	vmulps	%ymm0, %ymm2, %ymm2
	vsubps	%ymm3, %ymm1, %ymm3
	vmulps	%ymm0, %ymm3, %ymm3
	vsubps	%ymm3, %ymm1, %ymm3
	vmulps	%ymm0, %ymm3, %ymm3
	vsubps	%ymm3, %ymm1, %ymm3
	vmulps	%ymm0, %ymm3, %ymm3
	vsubps	%ymm3, %ymm1, %ymm3
	vsubps	%ymm2, %ymm1, %ymm2
	vmulps	%ymm0, %ymm2, %ymm2
	vsubps	%ymm2, %ymm1, %ymm2
	vmulps	%ymm0, %ymm2, %ymm2
	vsubps	%ymm2, %ymm1, %ymm2
	vmulps	%ymm0, %ymm2, %ymm2
	vsubps	%ymm2, %ymm1, %ymm2
	vmulps	%ymm0, %ymm3, %ymm3
	vsubps	%ymm3, %ymm1, %ymm3
	vmulps	%ymm0, %ymm3, %ymm3
	vsubps	%ymm3, %ymm1, %ymm3
	vmulps	%ymm0, %ymm3, %ymm3
	vsubps	%ymm3, %ymm1, %ymm3
	vmulps	%ymm0, %ymm3, %ymm3
	vmulps	%ymm0, %ymm2, %ymm2
	vsubps	%ymm2, %ymm1, %ymm2
	vmulps	%ymm0, %ymm2, %ymm2
	vsubps	%ymm2, %ymm1, %ymm2
	vmulps	%ymm0, %ymm2, %ymm2
	vsubps	%ymm2, %ymm1, %ymm2
	vmulps	%ymm0, %ymm2, %ymm2
	vsubps	%ymm3, %ymm1, %ymm3
	vmulps	%ymm0, %ymm3, %ymm3
	vsubps	%ymm3, %ymm1, %ymm3
	vmulps	%ymm0, %ymm3, %ymm3
	vsubps	%ymm3, %ymm1, %ymm3
	vmulps	%ymm0, %ymm3, %ymm3
	vsubps	%ymm3, %ymm1, %ymm3
	vsubps	%ymm2, %ymm1, %ymm2
	vmulps	%ymm0, %ymm2, %ymm2
	vsubps	%ymm2, %ymm1, %ymm2
	vmulps	%ymm0, %ymm2, %ymm2
	vsubps	%ymm2, %ymm1, %ymm2
	vmulps	%ymm0, %ymm2, %ymm2
	vsubps	%ymm2, %ymm1, %ymm2
	vmulps	%ymm0, %ymm3, %ymm3
	vsubps	%ymm3, %ymm1, %ymm3
	vmulps	%ymm0, %ymm3, %ymm3
	vsubps	%ymm3, %ymm1, %ymm3
	vmulps	%ymm0, %ymm3, %ymm3
	vsubps	%ymm3, %ymm1, %ymm3
	vmulps	%ymm0, %ymm3, %ymm3
	vmulps	%ymm0, %ymm2, %ymm2
	vsubps	%ymm2, %ymm1, %ymm2
	vmulps	%ymm0, %ymm2, %ymm2
	vsubps	%ymm2, %ymm1, %ymm2
	vmulps	%ymm0, %ymm2, %ymm2
	vsubps	%ymm2, %ymm1, %ymm2
	vmulps	%ymm0, %ymm2, %ymm2
	vsubps	%ymm3, %ymm1, %ymm3
	vmulps	%ymm0, %ymm3, %ymm3
	vsubps	%ymm3, %ymm1, %ymm3
	vmulps	%ymm0, %ymm3, %ymm3
	vsubps	%ymm3, %ymm1, %ymm3
	vmulps	%ymm0, %ymm3, %ymm3
	vsubps	%ymm3, %ymm1, %ymm3
	vsubps	%ymm2, %ymm1, %ymm2
	vmulps	%ymm0, %ymm2, %ymm2
	vsubps	%ymm2, %ymm1, %ymm2
	vmulps	%ymm0, %ymm2, %ymm2
	vsubps	%ymm2, %ymm1, %ymm2
	vmulps	%ymm0, %ymm2, %ymm2
	vsubps	%ymm2, %ymm1, %ymm2
	vmulps	%ymm0, %ymm3, %ymm3
	vsubps	%ymm3, %ymm1, %ymm3
	vmulps	%ymm0, %ymm3, %ymm3
	vsubps	%ymm3, %ymm1, %ymm3
	vmulps	%ymm0, %ymm3, %ymm3
	vsubps	%ymm3, %ymm1, %ymm3
	vmulps	%ymm0, %ymm3, %ymm3
	vmulps	%ymm0, %ymm2, %ymm2
	vsubps	%ymm2, %ymm1, %ymm2
	vmulps	%ymm0, %ymm2, %ymm2
	vsubps	%ymm2, %ymm1, %ymm2
	vmulps	%ymm0, %ymm2, %ymm2
	vsubps	%ymm2, %ymm1, %ymm2
	vmulps	%ymm0, %ymm2, %ymm2
	vsubps	%ymm3, %ymm1, %ymm3
	vmulps	%ymm0, %ymm3, %ymm3
	vsubps	%ymm3, %ymm1, %ymm3
	vmulps	%ymm0, %ymm3, %ymm3
	vsubps	%ymm3, %ymm1, %ymm3
	vmulps	%ymm0, %ymm3, %ymm3
	vsubps	%ymm3, %ymm1, %ymm3
	vsubps	%ymm2, %ymm1, %ymm2
	vmulps	%ymm0, %ymm2, %ymm2
	vsubps	%ymm2, %ymm1, %ymm2
	vmulps	%ymm0, %ymm2, %ymm2
	vsubps	%ymm2, %ymm1, %ymm2
	vmulps	%ymm0, %ymm2, %ymm2
	vsubps	%ymm2, %ymm1, %ymm2
	vmulps	%ymm0, %ymm3, %ymm3
	vsubps	%ymm3, %ymm1, %ymm3
	vmulps	%ymm0, %ymm3, %ymm3
	vsubps	%ymm3, %ymm1, %ymm3
	vmulps	%ymm0, %ymm3, %ymm3
	vsubps	%ymm3, %ymm1, %ymm3
	vmulps	%ymm0, %ymm3, %ymm3
	vmulps	%ymm0, %ymm2, %ymm2
	vsubps	%ymm2, %ymm1, %ymm2
	vmulps	%ymm0, %ymm2, %ymm2
	vsubps	%ymm2, %ymm1, %ymm2
	vmulps	%ymm0, %ymm2, %ymm2
	vsubps	%ymm2, %ymm1, %ymm2
	vmulps	%ymm0, %ymm2, %ymm2
	vsubps	%ymm3, %ymm1, %ymm3
	vmulps	%ymm0, %ymm3, %ymm3
	vsubps	%ymm3, %ymm1, %ymm3
	vmulps	%ymm0, %ymm3, %ymm3
	vsubps	%ymm3, %ymm1, %ymm3
	vmulps	%ymm0, %ymm3, %ymm3
	vsubps	%ymm3, %ymm1, %ymm3
	vsubps	%ymm2, %ymm1, %ymm2
	vmulps	%ymm0, %ymm2, %ymm2
	vsubps	%ymm2, %ymm1, %ymm2
	vmulps	%ymm0, %ymm2, %ymm2
	vsubps	%ymm2, %ymm1, %ymm2
	vmulps	%ymm0, %ymm2, %ymm2
	vsubps	%ymm2, %ymm1, %ymm2
	vmulps	%ymm0, %ymm3, %ymm3
	vsubps	%ymm3, %ymm1, %ymm3
	vmulps	%ymm0, %ymm3, %ymm3
	vsubps	%ymm3, %ymm1, %ymm3
	vmulps	%ymm0, %ymm3, %ymm3
	vsubps	%ymm3, %ymm1, %ymm3
	vmulps	%ymm0, %ymm3, %ymm3
	vmulps	%ymm0, %ymm2, %ymm2
	vsubps	%ymm2, %ymm1, %ymm2
	vmulps	%ymm0, %ymm2, %ymm2
	vsubps	%ymm2, %ymm1, %ymm2
	vmulps	%ymm0, %ymm2, %ymm2
	vsubps	%ymm2, %ymm1, %ymm2
	vmulps	%ymm0, %ymm2, %ymm2
	vsubps	%ymm3, %ymm1, %ymm3
	vmulps	%ymm0, %ymm3, %ymm3
	vsubps	%ymm3, %ymm1, %ymm3
	vmulps	%ymm0, %ymm3, %ymm3
	vsubps	%ymm3, %ymm1, %ymm3
	vmulps	%ymm0, %ymm3, %ymm3
	vsubps	%ymm3, %ymm1, %ymm3
	vsubps	%ymm2, %ymm1, %ymm2
	vmulps	%ymm0, %ymm2, %ymm2
	vsubps	%ymm2, %ymm1, %ymm2
	vmulps	%ymm0, %ymm2, %ymm2
	vsubps	%ymm2, %ymm1, %ymm2
	vmulps	%ymm0, %ymm2, %ymm2
	vsubps	%ymm2, %ymm1, %ymm2
	vmulps	%ymm0, %ymm3, %ymm3
	vsubps	%ymm3, %ymm1, %ymm3
	vmulps	%ymm0, %ymm3, %ymm3
	vsubps	%ymm3, %ymm1, %ymm3
	vmulps	%ymm0, %ymm3, %ymm3
	vsubps	%ymm3, %ymm1, %ymm3
	vmulps	%ymm0, %ymm3, %ymm3
	vmulps	%ymm0, %ymm2, %ymm2
	vsubps	%ymm2, %ymm1, %ymm2
	vmulps	%ymm0, %ymm2, %ymm2
	vsubps	%ymm2, %ymm1, %ymm2
	vmulps	%ymm0, %ymm2, %ymm2
	vsubps	%ymm2, %ymm1, %ymm2
	vmulps	%ymm0, %ymm2, %ymm2
	vsubps	%ymm3, %ymm1, %ymm3
	vmulps	%ymm0, %ymm3, %ymm3
	vsubps	%ymm3, %ymm1, %ymm3
	vmulps	%ymm0, %ymm3, %ymm3
	vsubps	%ymm3, %ymm1, %ymm3
	vmulps	%ymm0, %ymm3, %ymm3
	vsubps	%ymm3, %ymm1, %ymm3
	vsubps	%ymm2, %ymm1, %ymm2
	vmulps	%ymm0, %ymm2, %ymm2
	vsubps	%ymm2, %ymm1, %ymm2
	vmulps	%ymm0, %ymm2, %ymm2
	vsubps	%ymm2, %ymm1, %ymm2
	vmulps	%ymm0, %ymm2, %ymm2
	vsubps	%ymm2, %ymm1, %ymm2
	vmulps	%ymm0, %ymm3, %ymm3
	vsubps	%ymm3, %ymm1, %ymm3
	vmulps	%ymm0, %ymm3, %ymm3
	vsubps	%ymm3, %ymm1, %ymm3
	vmulps	%ymm0, %ymm3, %ymm3
	vsubps	%ymm3, %ymm1, %ymm3
	vmulps	%ymm0, %ymm3, %ymm3
	vmulps	%ymm0, %ymm2, %ymm2
	vsubps	%ymm2, %ymm1, %ymm2
	vmulps	%ymm0, %ymm2, %ymm2
	vsubps	%ymm2, %ymm1, %ymm2
	vmulps	%ymm0, %ymm2, %ymm2
	vsubps	%ymm2, %ymm1, %ymm2
	vmulps	%ymm0, %ymm2, %ymm2
	vsubps	%ymm3, %ymm1, %ymm3
	vmulps	%ymm0, %ymm3, %ymm3
	vsubps	%ymm3, %ymm1, %ymm3
	vmulps	%ymm0, %ymm3, %ymm3
	vsubps	%ymm3, %ymm1, %ymm3
	vmulps	%ymm0, %ymm3, %ymm3
	vsubps	%ymm3, %ymm1, %ymm3
	vsubps	%ymm2, %ymm1, %ymm2
	vmulps	%ymm0, %ymm2, %ymm2
	vsubps	%ymm2, %ymm1, %ymm2
	vmulps	%ymm0, %ymm2, %ymm2
	vsubps	%ymm2, %ymm1, %ymm2
	vmulps	%ymm0, %ymm2, %ymm2
	vsubps	%ymm2, %ymm1, %ymm2
	vmulps	%ymm0, %ymm3, %ymm3
	vsubps	%ymm3, %ymm1, %ymm3
	vmulps	%ymm0, %ymm3, %ymm3
	vsubps	%ymm3, %ymm1, %ymm3
	vmulps	%ymm0, %ymm3, %ymm3
	vsubps	%ymm3, %ymm1, %ymm3
	vmulps	%ymm0, %ymm3, %ymm3
	vmulps	%ymm0, %ymm2, %ymm2
	vsubps	%ymm2, %ymm1, %ymm2
	vmulps	%ymm0, %ymm2, %ymm2
	vsubps	%ymm2, %ymm1, %ymm2
	vmulps	%ymm0, %ymm2, %ymm2
	vsubps	%ymm2, %ymm1, %ymm2
	vmulps	%ymm0, %ymm2, %ymm2
	vsubps	%ymm3, %ymm1, %ymm3
	vmulps	%ymm0, %ymm3, %ymm3
	vsubps	%ymm3, %ymm1, %ymm3
	vmulps	%ymm0, %ymm3, %ymm3
	vsubps	%ymm3, %ymm1, %ymm3
	vmulps	%ymm0, %ymm3, %ymm3
	vsubps	%ymm3, %ymm1, %ymm3
	vsubps	%ymm2, %ymm1, %ymm2
	vmulps	%ymm0, %ymm2, %ymm2
	vsubps	%ymm2, %ymm1, %ymm2
	vmulps	%ymm0, %ymm2, %ymm2
	vsubps	%ymm2, %ymm1, %ymm2
	vmulps	%ymm0, %ymm2, %ymm2
	vsubps	%ymm2, %ymm1, %ymm2
	vmulps	%ymm0, %ymm3, %ymm3
	vsubps	%ymm3, %ymm1, %ymm3
	vmulps	%ymm0, %ymm3, %ymm3
	vsubps	%ymm3, %ymm1, %ymm3
	vmulps	%ymm0, %ymm3, %ymm3
	vsubps	%ymm3, %ymm1, %ymm3
	vmulps	%ymm0, %ymm3, %ymm3
	vmulps	%ymm0, %ymm2, %ymm2
	vsubps	%ymm2, %ymm1, %ymm2
	vmulps	%ymm0, %ymm2, %ymm2
	vsubps	%ymm2, %ymm1, %ymm2
	vmulps	%ymm0, %ymm2, %ymm2
	vsubps	%ymm2, %ymm1, %ymm2
	vmulps	%ymm0, %ymm2, %ymm2
	vsubps	%ymm3, %ymm1, %ymm3
	vmulps	%ymm0, %ymm3, %ymm3
	vsubps	%ymm3, %ymm1, %ymm3
	vmulps	%ymm0, %ymm3, %ymm3
	vsubps	%ymm3, %ymm1, %ymm3
	vmulps	%ymm0, %ymm3, %ymm3
	vsubps	%ymm3, %ymm1, %ymm3
	vsubps	%ymm2, %ymm1, %ymm2
	vmulps	%ymm0, %ymm2, %ymm2
	vsubps	%ymm2, %ymm1, %ymm2
	vmulps	%ymm0, %ymm2, %ymm2
	vsubps	%ymm2, %ymm1, %ymm2
	vmulps	%ymm0, %ymm2, %ymm2
	vsubps	%ymm2, %ymm1, %ymm2
	vmulps	%ymm0, %ymm3, %ymm3
	vsubps	%ymm3, %ymm1, %ymm3
	vmulps	%ymm0, %ymm3, %ymm3
	vsubps	%ymm3, %ymm1, %ymm3
	vmulps	%ymm0, %ymm3, %ymm3
	vsubps	%ymm3, %ymm1, %ymm3
	vmulps	%ymm0, %ymm3, %ymm3
	vmulps	%ymm0, %ymm2, %ymm2
	vsubps	%ymm2, %ymm1, %ymm2
	vmulps	%ymm0, %ymm2, %ymm2
	vsubps	%ymm2, %ymm1, %ymm2
	vmulps	%ymm0, %ymm2, %ymm2
	vsubps	%ymm2, %ymm1, %ymm2
	vmulps	%ymm0, %ymm2, %ymm2
	vsubps	%ymm3, %ymm1, %ymm3
	vmulps	%ymm0, %ymm3, %ymm3
	vsubps	%ymm3, %ymm1, %ymm3
	vmulps	%ymm0, %ymm3, %ymm3
	vsubps	%ymm3, %ymm1, %ymm3
	vmulps	%ymm0, %ymm3, %ymm3
	vsubps	%ymm3, %ymm1, %ymm3
	vsubps	%ymm2, %ymm1, %ymm2
	vmulps	%ymm0, %ymm2, %ymm2
	vsubps	%ymm2, %ymm1, %ymm2
	vmulps	%ymm0, %ymm2, %ymm2
	vsubps	%ymm2, %ymm1, %ymm2
	vmulps	%ymm0, %ymm2, %ymm2
	vsubps	%ymm2, %ymm1, %ymm2
	vmulps	%ymm0, %ymm3, %ymm3
	vsubps	%ymm3, %ymm1, %ymm3
	vmulps	%ymm0, %ymm3, %ymm3
	vsubps	%ymm3, %ymm1, %ymm3
	vmulps	%ymm0, %ymm3, %ymm3
	vsubps	%ymm3, %ymm1, %ymm3
	vmulps	%ymm0, %ymm3, %ymm3
	vmulps	%ymm0, %ymm2, %ymm2
	vsubps	%ymm2, %ymm1, %ymm2
	vmulps	%ymm0, %ymm2, %ymm2
	vsubps	%ymm2, %ymm1, %ymm2
	vmulps	%ymm0, %ymm2, %ymm2
	vsubps	%ymm2, %ymm1, %ymm2
	vmulps	%ymm0, %ymm2, %ymm2
	vsubps	%ymm3, %ymm1, %ymm3
	vmulps	%ymm0, %ymm3, %ymm3
	vsubps	%ymm3, %ymm1, %ymm3
	vmulps	%ymm0, %ymm3, %ymm3
	vsubps	%ymm3, %ymm1, %ymm3
	vmulps	%ymm0, %ymm3, %ymm3
	vsubps	%ymm3, %ymm1, %ymm3
	vsubps	%ymm2, %ymm1, %ymm2
	vmulps	%ymm0, %ymm2, %ymm2
	vsubps	%ymm2, %ymm1, %ymm2
	vmulps	%ymm0, %ymm2, %ymm2
	vsubps	%ymm2, %ymm1, %ymm2
	vmulps	%ymm0, %ymm2, %ymm2
	vsubps	%ymm2, %ymm1, %ymm2
	vmulps	%ymm0, %ymm3, %ymm3
	vsubps	%ymm3, %ymm1, %ymm3
	vmulps	%ymm0, %ymm3, %ymm3
	vsubps	%ymm3, %ymm1, %ymm3
	vmulps	%ymm0, %ymm3, %ymm3
	vsubps	%ymm3, %ymm1, %ymm3
	vmulps	%ymm0, %ymm3, %ymm3
	vmulps	%ymm0, %ymm2, %ymm2
	vsubps	%ymm2, %ymm1, %ymm2
	vmulps	%ymm0, %ymm2, %ymm2
	vsubps	%ymm2, %ymm1, %ymm2
	vmulps	%ymm0, %ymm2, %ymm2
	vsubps	%ymm2, %ymm1, %ymm2
	vmulps	%ymm0, %ymm2, %ymm2
	vsubps	%ymm3, %ymm1, %ymm3
	vmulps	%ymm0, %ymm3, %ymm3
	vsubps	%ymm3, %ymm1, %ymm3
	vmulps	%ymm0, %ymm3, %ymm3
	vsubps	%ymm3, %ymm1, %ymm3
	vmulps	%ymm0, %ymm3, %ymm3
	vsubps	%ymm3, %ymm1, %ymm3
	vsubps	%ymm2, %ymm1, %ymm2
	vmulps	%ymm0, %ymm2, %ymm2
	vsubps	%ymm2, %ymm1, %ymm2
	vmulps	%ymm0, %ymm2, %ymm2
	vsubps	%ymm2, %ymm1, %ymm2
	vmulps	%ymm0, %ymm2, %ymm2
	vsubps	%ymm2, %ymm1, %ymm2
	vmulps	%ymm0, %ymm3, %ymm3
	vsubps	%ymm3, %ymm1, %ymm3
	vmulps	%ymm0, %ymm3, %ymm3
	vsubps	%ymm3, %ymm1, %ymm3
	vmulps	%ymm0, %ymm3, %ymm3
	vsubps	%ymm3, %ymm1, %ymm3
	vmulps	%ymm0, %ymm3, %ymm3
	vmulps	%ymm0, %ymm2, %ymm2
	vsubps	%ymm2, %ymm1, %ymm2
	vmulps	%ymm0, %ymm2, %ymm2
	vsubps	%ymm2, %ymm1, %ymm2
	vmulps	%ymm0, %ymm2, %ymm2
	vsubps	%ymm2, %ymm1, %ymm2
	vmulps	%ymm0, %ymm2, %ymm2
	vsubps	%ymm3, %ymm1, %ymm3
	vmulps	%ymm0, %ymm3, %ymm3
	vsubps	%ymm3, %ymm1, %ymm3
	vmulps	%ymm0, %ymm3, %ymm3
	vsubps	%ymm3, %ymm1, %ymm3
	vmulps	%ymm0, %ymm3, %ymm3
	vsubps	%ymm3, %ymm1, %ymm3
	vsubps	%ymm2, %ymm1, %ymm2
	vmulps	%ymm0, %ymm2, %ymm2
	vsubps	%ymm2, %ymm1, %ymm2
	vmulps	%ymm0, %ymm2, %ymm2
	vsubps	%ymm2, %ymm1, %ymm2
	vmulps	%ymm0, %ymm2, %ymm2
	vsubps	%ymm2, %ymm1, %ymm2
	vmulps	%ymm0, %ymm3, %ymm3
	vsubps	%ymm3, %ymm1, %ymm3
	vmulps	%ymm0, %ymm3, %ymm3
	vsubps	%ymm3, %ymm1, %ymm3
	vmulps	%ymm0, %ymm3, %ymm3
	vsubps	%ymm3, %ymm1, %ymm3
	vmulps	%ymm0, %ymm3, %ymm3
	vmulps	%ymm0, %ymm2, %ymm2
	vsubps	%ymm2, %ymm1, %ymm2
	vmulps	%ymm0, %ymm2, %ymm2
	vsubps	%ymm2, %ymm1, %ymm2
	vmulps	%ymm0, %ymm2, %ymm2
	vsubps	%ymm2, %ymm1, %ymm2
	vmulps	%ymm0, %ymm2, %ymm2
	vsubps	%ymm3, %ymm1, %ymm3
	vmulps	%ymm0, %ymm3, %ymm3
	vsubps	%ymm3, %ymm1, %ymm3
	vmulps	%ymm0, %ymm3, %ymm3
	vsubps	%ymm3, %ymm1, %ymm3
	vmulps	%ymm0, %ymm3, %ymm3
	vsubps	%ymm3, %ymm1, %ymm3
	vsubps	%ymm2, %ymm1, %ymm2
	vmulps	%ymm0, %ymm2, %ymm2
	vsubps	%ymm2, %ymm1, %ymm2
	vmulps	%ymm0, %ymm2, %ymm2
	vsubps	%ymm2, %ymm1, %ymm2
	vmulps	%ymm0, %ymm2, %ymm2
	vsubps	%ymm2, %ymm1, %ymm2
	vmulps	%ymm0, %ymm3, %ymm3
	vsubps	%ymm3, %ymm1, %ymm3
	vmulps	%ymm0, %ymm3, %ymm3
	vsubps	%ymm3, %ymm1, %ymm3
	vmulps	%ymm0, %ymm3, %ymm3
	vsubps	%ymm3, %ymm1, %ymm3
	vmulps	%ymm0, %ymm3, %ymm3
	vmulps	%ymm0, %ymm2, %ymm2
	vsubps	%ymm2, %ymm1, %ymm2
	vmulps	%ymm0, %ymm2, %ymm2
	vsubps	%ymm2, %ymm1, %ymm2
	vmulps	%ymm0, %ymm2, %ymm2
	vsubps	%ymm2, %ymm1, %ymm2
	vmulps	%ymm0, %ymm2, %ymm2
	vsubps	%ymm3, %ymm1, %ymm3
	vmulps	%ymm0, %ymm3, %ymm3
	vsubps	%ymm3, %ymm1, %ymm3
	vmulps	%ymm0, %ymm3, %ymm3
	vsubps	%ymm3, %ymm1, %ymm3
	vmulps	%ymm0, %ymm3, %ymm3
	vsubps	%ymm3, %ymm1, %ymm3
	vsubps	%ymm2, %ymm1, %ymm2
	vmulps	%ymm0, %ymm2, %ymm2
	vsubps	%ymm2, %ymm1, %ymm2
	vmulps	%ymm0, %ymm2, %ymm2
	vsubps	%ymm2, %ymm1, %ymm2
	vmulps	%ymm0, %ymm2, %ymm2
	vsubps	%ymm2, %ymm1, %ymm2
	vmulps	%ymm0, %ymm3, %ymm3
	vsubps	%ymm3, %ymm1, %ymm3
	vmulps	%ymm0, %ymm3, %ymm3
	vsubps	%ymm3, %ymm1, %ymm3
	vmulps	%ymm0, %ymm3, %ymm3
	vsubps	%ymm3, %ymm1, %ymm3
	vmulps	%ymm0, %ymm3, %ymm3
	vmulps	%ymm0, %ymm2, %ymm2
	vsubps	%ymm2, %ymm1, %ymm2
	vmulps	%ymm0, %ymm2, %ymm2
	vsubps	%ymm2, %ymm1, %ymm2
	vmulps	%ymm0, %ymm2, %ymm2
	vsubps	%ymm2, %ymm1, %ymm2
	vmulps	%ymm0, %ymm2, %ymm2
	vsubps	%ymm3, %ymm1, %ymm3
	vmulps	%ymm0, %ymm3, %ymm3
	vsubps	%ymm3, %ymm1, %ymm3
	vmulps	%ymm0, %ymm3, %ymm3
	vsubps	%ymm3, %ymm1, %ymm3
	vmulps	%ymm0, %ymm3, %ymm3
	vsubps	%ymm3, %ymm1, %ymm3
	vsubps	%ymm2, %ymm1, %ymm2
	vmulps	%ymm0, %ymm2, %ymm2
	vsubps	%ymm2, %ymm1, %ymm2
	vmulps	%ymm0, %ymm2, %ymm2
	vsubps	%ymm2, %ymm1, %ymm2
	vmulps	%ymm0, %ymm2, %ymm2
	vsubps	%ymm2, %ymm1, %ymm2
	vmulps	%ymm0, %ymm3, %ymm3
	vsubps	%ymm3, %ymm1, %ymm3
	vmulps	%ymm0, %ymm3, %ymm3
	vsubps	%ymm3, %ymm1, %ymm3
	vmulps	%ymm0, %ymm3, %ymm3
	vsubps	%ymm3, %ymm1, %ymm3
	vmulps	%ymm0, %ymm3, %ymm3
	vmulps	%ymm0, %ymm2, %ymm2
	vsubps	%ymm2, %ymm1, %ymm2
	vmulps	%ymm0, %ymm2, %ymm2
	vsubps	%ymm2, %ymm1, %ymm2
	vmulps	%ymm0, %ymm2, %ymm2
	vsubps	%ymm2, %ymm1, %ymm2
	vmulps	%ymm0, %ymm2, %ymm2
	vsubps	%ymm3, %ymm1, %ymm3
	vmulps	%ymm0, %ymm3, %ymm3
	vsubps	%ymm3, %ymm1, %ymm3
	vmulps	%ymm0, %ymm3, %ymm3
	vsubps	%ymm3, %ymm1, %ymm3
	vmulps	%ymm0, %ymm3, %ymm3
	vsubps	%ymm3, %ymm1, %ymm3
	vsubps	%ymm2, %ymm1, %ymm2
	vmulps	%ymm0, %ymm2, %ymm2
	vsubps	%ymm2, %ymm1, %ymm2
	vmulps	%ymm0, %ymm2, %ymm2
	vsubps	%ymm2, %ymm1, %ymm2
	vmulps	%ymm0, %ymm2, %ymm2
	vsubps	%ymm2, %ymm1, %ymm2
	vmulps	%ymm0, %ymm3, %ymm3
	vsubps	%ymm3, %ymm1, %ymm3
	vmulps	%ymm0, %ymm3, %ymm3
	vsubps	%ymm3, %ymm1, %ymm3
	vmulps	%ymm0, %ymm3, %ymm3
	vsubps	%ymm3, %ymm1, %ymm3
	vmulps	%ymm0, %ymm3, %ymm3
	vmulps	%ymm0, %ymm2, %ymm2
	vsubps	%ymm2, %ymm1, %ymm2
	vmulps	%ymm0, %ymm2, %ymm2
	vsubps	%ymm2, %ymm1, %ymm2
	vmulps	%ymm0, %ymm2, %ymm2
	vsubps	%ymm2, %ymm1, %ymm2
	vmulps	%ymm0, %ymm2, %ymm2
	vsubps	%ymm3, %ymm1, %ymm3
	vmulps	%ymm0, %ymm3, %ymm3
	vsubps	%ymm3, %ymm1, %ymm3
	vmulps	%ymm0, %ymm3, %ymm3
	vsubps	%ymm3, %ymm1, %ymm3
	vmulps	%ymm0, %ymm3, %ymm3
	vsubps	%ymm3, %ymm1, %ymm3
	vsubps	%ymm2, %ymm1, %ymm2
	vmulps	%ymm0, %ymm2, %ymm2
	vsubps	%ymm2, %ymm1, %ymm2
	vmulps	%ymm0, %ymm2, %ymm2
	vsubps	%ymm2, %ymm1, %ymm2
	vmulps	%ymm0, %ymm2, %ymm2
	vsubps	%ymm2, %ymm1, %ymm2
	vmulps	%ymm0, %ymm3, %ymm3
	vsubps	%ymm3, %ymm1, %ymm3
	vmulps	%ymm0, %ymm3, %ymm3
	vsubps	%ymm3, %ymm1, %ymm3
	vmulps	%ymm0, %ymm3, %ymm3
	vsubps	%ymm3, %ymm1, %ymm3
	vmulps	%ymm0, %ymm3, %ymm3
	vmulps	%ymm0, %ymm2, %ymm2
	vsubps	%ymm2, %ymm1, %ymm2
	vmulps	%ymm0, %ymm2, %ymm2
	vsubps	%ymm2, %ymm1, %ymm2
	vmulps	%ymm0, %ymm2, %ymm2
	vsubps	%ymm2, %ymm1, %ymm2
	vmulps	%ymm0, %ymm2, %ymm2
	vsubps	%ymm3, %ymm1, %ymm3
	vmulps	%ymm0, %ymm3, %ymm3
	vsubps	%ymm3, %ymm1, %ymm3
	vmulps	%ymm0, %ymm3, %ymm3
	vsubps	%ymm3, %ymm1, %ymm3
	vmulps	%ymm0, %ymm3, %ymm3
	vsubps	%ymm3, %ymm1, %ymm3
	vsubps	%ymm2, %ymm1, %ymm2
	vmulps	%ymm0, %ymm2, %ymm2
	vsubps	%ymm2, %ymm1, %ymm2
	vmulps	%ymm0, %ymm2, %ymm2
	vsubps	%ymm2, %ymm1, %ymm2
	vmulps	%ymm0, %ymm2, %ymm2
	vsubps	%ymm2, %ymm1, %ymm2
	vmulps	%ymm0, %ymm3, %ymm3
	vsubps	%ymm3, %ymm1, %ymm3
	vmulps	%ymm0, %ymm3, %ymm3
	vsubps	%ymm3, %ymm1, %ymm3
	vmulps	%ymm0, %ymm3, %ymm3
	vsubps	%ymm3, %ymm1, %ymm3
	vmulps	%ymm0, %ymm3, %ymm3
	vmulps	%ymm0, %ymm2, %ymm2
	vsubps	%ymm2, %ymm1, %ymm2
	vmulps	%ymm0, %ymm2, %ymm2
	vsubps	%ymm2, %ymm1, %ymm2
	vmulps	%ymm0, %ymm2, %ymm2
	vsubps	%ymm2, %ymm1, %ymm2
	vmulps	%ymm0, %ymm2, %ymm2
	vsubps	%ymm3, %ymm1, %ymm3
	vmulps	%ymm0, %ymm3, %ymm3
	vsubps	%ymm3, %ymm1, %ymm3
	vmulps	%ymm0, %ymm3, %ymm3
	vsubps	%ymm3, %ymm1, %ymm3
	vmulps	%ymm0, %ymm3, %ymm3
	vsubps	%ymm3, %ymm1, %ymm3
	vsubps	%ymm2, %ymm1, %ymm2
	vmulps	%ymm0, %ymm2, %ymm2
	vsubps	%ymm2, %ymm1, %ymm2
	vmulps	%ymm0, %ymm2, %ymm2
	vsubps	%ymm2, %ymm1, %ymm2
	vmulps	%ymm0, %ymm2, %ymm2
	vsubps	%ymm2, %ymm1, %ymm2
	vmulps	%ymm0, %ymm3, %ymm3
	vsubps	%ymm3, %ymm1, %ymm3
	vmulps	%ymm0, %ymm3, %ymm3
	vsubps	%ymm3, %ymm1, %ymm3
	vmulps	%ymm0, %ymm3, %ymm3
	vsubps	%ymm3, %ymm1, %ymm3
	vmulps	%ymm0, %ymm3, %ymm3
	vmulps	%ymm0, %ymm2, %ymm2
	vsubps	%ymm2, %ymm1, %ymm2
	vmulps	%ymm0, %ymm2, %ymm2
	vsubps	%ymm2, %ymm1, %ymm2
	vmulps	%ymm0, %ymm2, %ymm2
	vsubps	%ymm2, %ymm1, %ymm2
	vmulps	%ymm0, %ymm2, %ymm2
	vsubps	%ymm3, %ymm1, %ymm3
	vmulps	%ymm0, %ymm3, %ymm3
	vsubps	%ymm3, %ymm1, %ymm3
	vmulps	%ymm0, %ymm3, %ymm3
	vsubps	%ymm3, %ymm1, %ymm3
	vmulps	%ymm0, %ymm3, %ymm3
	vsubps	%ymm3, %ymm1, %ymm3
	vsubps	%ymm2, %ymm1, %ymm2
	vmulps	%ymm0, %ymm2, %ymm2
	vsubps	%ymm2, %ymm1, %ymm2
	vmulps	%ymm0, %ymm2, %ymm2
	vsubps	%ymm2, %ymm1, %ymm2
	vmulps	%ymm0, %ymm2, %ymm2
	vsubps	%ymm2, %ymm1, %ymm2
	vmulps	%ymm0, %ymm3, %ymm3
	vsubps	%ymm3, %ymm1, %ymm3
	vmulps	%ymm0, %ymm3, %ymm3
	vsubps	%ymm3, %ymm1, %ymm3
	vmulps	%ymm0, %ymm3, %ymm3
	vsubps	%ymm3, %ymm1, %ymm3
	vmulps	%ymm0, %ymm3, %ymm3
	vmulps	%ymm0, %ymm2, %ymm2
	vsubps	%ymm2, %ymm1, %ymm2
	vmulps	%ymm0, %ymm2, %ymm2
	vsubps	%ymm2, %ymm1, %ymm2
	vmulps	%ymm0, %ymm2, %ymm2
	vsubps	%ymm2, %ymm1, %ymm2
	vmulps	%ymm0, %ymm2, %ymm2
	vsubps	%ymm3, %ymm1, %ymm3
	vmulps	%ymm0, %ymm3, %ymm3
	vsubps	%ymm3, %ymm1, %ymm3
	vmulps	%ymm0, %ymm3, %ymm3
	vsubps	%ymm3, %ymm1, %ymm3
	vmulps	%ymm0, %ymm3, %ymm3
	vsubps	%ymm3, %ymm1, %ymm3
	vsubps	%ymm2, %ymm1, %ymm2
	vmulps	%ymm0, %ymm2, %ymm2
	vsubps	%ymm2, %ymm1, %ymm2
	vmulps	%ymm0, %ymm2, %ymm2
	vsubps	%ymm2, %ymm1, %ymm2
	vmulps	%ymm0, %ymm2, %ymm2
	vsubps	%ymm2, %ymm1, %ymm2
	vmulps	%ymm0, %ymm3, %ymm3
	vsubps	%ymm3, %ymm1, %ymm3
	vmulps	%ymm0, %ymm3, %ymm3
	vsubps	%ymm3, %ymm1, %ymm3
	vmulps	%ymm0, %ymm3, %ymm3
	vsubps	%ymm3, %ymm1, %ymm3
	vmulps	%ymm0, %ymm3, %ymm3
	vmulps	%ymm0, %ymm2, %ymm2
	vsubps	%ymm2, %ymm1, %ymm2
	vmulps	%ymm0, %ymm2, %ymm2
	vsubps	%ymm2, %ymm1, %ymm2
	vmulps	%ymm0, %ymm2, %ymm2
	vsubps	%ymm2, %ymm1, %ymm2
	vmulps	%ymm0, %ymm2, %ymm2
	vsubps	%ymm3, %ymm1, %ymm3
	vmulps	%ymm0, %ymm3, %ymm3
	vsubps	%ymm3, %ymm1, %ymm3
	vmulps	%ymm0, %ymm3, %ymm3
	vsubps	%ymm3, %ymm1, %ymm3
	vmulps	%ymm0, %ymm3, %ymm3
	vsubps	%ymm3, %ymm1, %ymm3
	vsubps	%ymm2, %ymm1, %ymm2
	vmulps	%ymm0, %ymm2, %ymm2
	vsubps	%ymm2, %ymm1, %ymm2
	vmulps	%ymm0, %ymm2, %ymm2
	vsubps	%ymm2, %ymm1, %ymm2
	vmulps	%ymm0, %ymm2, %ymm2
	vsubps	%ymm2, %ymm1, %ymm2
	vmulps	%ymm0, %ymm3, %ymm3
	vsubps	%ymm3, %ymm1, %ymm3
	vmulps	%ymm0, %ymm3, %ymm3
	vsubps	%ymm3, %ymm1, %ymm3
	vmulps	%ymm0, %ymm3, %ymm3
	vsubps	%ymm3, %ymm1, %ymm3
	vmulps	%ymm0, %ymm3, %ymm3
	vmulps	%ymm0, %ymm2, %ymm2
	vsubps	%ymm2, %ymm1, %ymm2
	vmulps	%ymm0, %ymm2, %ymm2
	vsubps	%ymm2, %ymm1, %ymm2
	vmulps	%ymm0, %ymm2, %ymm2
	vsubps	%ymm2, %ymm1, %ymm2
	vmulps	%ymm0, %ymm2, %ymm2
	vsubps	%ymm3, %ymm1, %ymm3
	vmulps	%ymm0, %ymm3, %ymm3
	vsubps	%ymm3, %ymm1, %ymm3
	vmulps	%ymm0, %ymm3, %ymm3
	vsubps	%ymm3, %ymm1, %ymm3
	vmulps	%ymm0, %ymm3, %ymm3
	vsubps	%ymm3, %ymm1, %ymm3
	vsubps	%ymm2, %ymm1, %ymm2
	vmulps	%ymm0, %ymm2, %ymm2
	vsubps	%ymm2, %ymm1, %ymm2
	vmulps	%ymm0, %ymm2, %ymm2
	vsubps	%ymm2, %ymm1, %ymm2
	vmulps	%ymm0, %ymm2, %ymm2
	vsubps	%ymm2, %ymm1, %ymm2
	vmulps	%ymm0, %ymm3, %ymm3
	vsubps	%ymm3, %ymm1, %ymm3
	vmulps	%ymm0, %ymm3, %ymm3
	vsubps	%ymm3, %ymm1, %ymm3
	vmulps	%ymm0, %ymm3, %ymm3
	vsubps	%ymm3, %ymm1, %ymm3
	vmulps	%ymm0, %ymm3, %ymm3
	vmulps	%ymm0, %ymm2, %ymm2
	vsubps	%ymm2, %ymm1, %ymm2
	vmulps	%ymm0, %ymm2, %ymm2
	vsubps	%ymm2, %ymm1, %ymm2
	vmulps	%ymm0, %ymm2, %ymm2
	vsubps	%ymm2, %ymm1, %ymm2
	vmulps	%ymm0, %ymm2, %ymm2
	vsubps	%ymm3, %ymm1, %ymm3
	vmulps	%ymm0, %ymm3, %ymm3
	vsubps	%ymm3, %ymm1, %ymm3
	vmulps	%ymm0, %ymm3, %ymm3
	vsubps	%ymm3, %ymm1, %ymm3
	vmulps	%ymm0, %ymm3, %ymm3
	vsubps	%ymm3, %ymm1, %ymm3
	vsubps	%ymm2, %ymm1, %ymm2
	vmulps	%ymm0, %ymm2, %ymm2
	vsubps	%ymm2, %ymm1, %ymm2
	vmulps	%ymm0, %ymm2, %ymm2
	vsubps	%ymm2, %ymm1, %ymm2
	vmulps	%ymm0, %ymm2, %ymm2
	vsubps	%ymm2, %ymm1, %ymm2
	vmulps	%ymm0, %ymm3, %ymm3
	vsubps	%ymm3, %ymm1, %ymm3
	vmulps	%ymm0, %ymm3, %ymm3
	vsubps	%ymm3, %ymm1, %ymm3
	vmulps	%ymm0, %ymm3, %ymm3
	vsubps	%ymm3, %ymm1, %ymm3
	vmulps	%ymm0, %ymm3, %ymm3
	vmulps	%ymm0, %ymm2, %ymm2
	vsubps	%ymm2, %ymm1, %ymm2
	vmulps	%ymm0, %ymm2, %ymm2
	vsubps	%ymm2, %ymm1, %ymm2
	vmulps	%ymm0, %ymm2, %ymm2
	vsubps	%ymm2, %ymm1, %ymm2
	vmulps	%ymm0, %ymm2, %ymm2
	vsubps	%ymm3, %ymm1, %ymm3
	vmulps	%ymm0, %ymm3, %ymm3
	vsubps	%ymm3, %ymm1, %ymm3
	vmulps	%ymm0, %ymm3, %ymm3
	vsubps	%ymm3, %ymm1, %ymm3
	vmulps	%ymm0, %ymm3, %ymm3
	vsubps	%ymm3, %ymm1, %ymm3
	vsubps	%ymm2, %ymm1, %ymm2
	vmulps	%ymm0, %ymm2, %ymm2
	vsubps	%ymm2, %ymm1, %ymm2
	vmulps	%ymm0, %ymm2, %ymm2
	vsubps	%ymm2, %ymm1, %ymm2
	vmulps	%ymm0, %ymm2, %ymm2
	vsubps	%ymm2, %ymm1, %ymm2
	vmulps	%ymm0, %ymm3, %ymm3
	vsubps	%ymm3, %ymm1, %ymm3
	vmulps	%ymm0, %ymm3, %ymm3
	vsubps	%ymm3, %ymm1, %ymm3
	vmulps	%ymm0, %ymm3, %ymm3
	vsubps	%ymm3, %ymm1, %ymm3
	vmulps	%ymm0, %ymm3, %ymm3
	vmulps	%ymm0, %ymm2, %ymm2
	vsubps	%ymm2, %ymm1, %ymm2
	vmulps	%ymm0, %ymm2, %ymm2
	vsubps	%ymm2, %ymm1, %ymm2
	vmulps	%ymm0, %ymm2, %ymm2
	vsubps	%ymm2, %ymm1, %ymm2
	vmulps	%ymm0, %ymm2, %ymm2
	vsubps	%ymm3, %ymm1, %ymm3
	vmulps	%ymm0, %ymm3, %ymm3
	vsubps	%ymm3, %ymm1, %ymm3
	vmulps	%ymm0, %ymm3, %ymm3
	vsubps	%ymm3, %ymm1, %ymm3
	vmulps	%ymm0, %ymm3, %ymm3
	vsubps	%ymm3, %ymm1, %ymm3
	vsubps	%ymm2, %ymm1, %ymm2
	vmulps	%ymm0, %ymm2, %ymm2
	vsubps	%ymm2, %ymm1, %ymm2
	vmulps	%ymm0, %ymm2, %ymm2
	vsubps	%ymm2, %ymm1, %ymm2
	vmulps	%ymm0, %ymm2, %ymm2
	vsubps	%ymm2, %ymm1, %ymm2
	vmulps	%ymm0, %ymm3, %ymm3
	vsubps	%ymm3, %ymm1, %ymm3
	vmulps	%ymm0, %ymm3, %ymm3
	vsubps	%ymm3, %ymm1, %ymm3
	vmulps	%ymm0, %ymm3, %ymm3
	vsubps	%ymm3, %ymm1, %ymm3
	vmulps	%ymm0, %ymm3, %ymm3
	vmulps	%ymm0, %ymm2, %ymm2
	vsubps	%ymm2, %ymm1, %ymm2
	vmulps	%ymm0, %ymm2, %ymm2
	vsubps	%ymm2, %ymm1, %ymm2
	vmulps	%ymm0, %ymm2, %ymm2
	vsubps	%ymm2, %ymm1, %ymm2
	vmulps	%ymm0, %ymm2, %ymm2
	vsubps	%ymm3, %ymm1, %ymm3
	vmulps	%ymm0, %ymm3, %ymm3
	vsubps	%ymm3, %ymm1, %ymm3
	vmulps	%ymm0, %ymm3, %ymm3
	vsubps	%ymm3, %ymm1, %ymm3
	vmulps	%ymm0, %ymm3, %ymm3
	vsubps	%ymm3, %ymm1, %ymm3
	vsubps	%ymm2, %ymm1, %ymm2
	vmulps	%ymm0, %ymm2, %ymm2
	vsubps	%ymm2, %ymm1, %ymm2
	vmulps	%ymm0, %ymm2, %ymm2
	vsubps	%ymm2, %ymm1, %ymm2
	vmulps	%ymm0, %ymm2, %ymm2
	vsubps	%ymm2, %ymm1, %ymm2
	vmulps	%ymm0, %ymm3, %ymm3
	vsubps	%ymm3, %ymm1, %ymm3
	vmulps	%ymm0, %ymm3, %ymm3
	vsubps	%ymm3, %ymm1, %ymm3
	vmulps	%ymm0, %ymm3, %ymm3
	vsubps	%ymm3, %ymm1, %ymm3
	vmulps	%ymm0, %ymm3, %ymm3
	vmulps	%ymm0, %ymm2, %ymm2
	vsubps	%ymm2, %ymm1, %ymm2
	vmulps	%ymm0, %ymm2, %ymm2
	vsubps	%ymm2, %ymm1, %ymm2
	vmulps	%ymm0, %ymm2, %ymm2
	vsubps	%ymm2, %ymm1, %ymm2
	vmulps	%ymm0, %ymm2, %ymm2
	vsubps	%ymm3, %ymm1, %ymm3
	vmulps	%ymm0, %ymm3, %ymm3
	vsubps	%ymm3, %ymm1, %ymm3
	vmulps	%ymm0, %ymm3, %ymm3
	vsubps	%ymm3, %ymm1, %ymm3
	vmulps	%ymm0, %ymm3, %ymm3
	vsubps	%ymm3, %ymm1, %ymm3
	vsubps	%ymm2, %ymm1, %ymm2
	vmulps	%ymm0, %ymm2, %ymm2
	vsubps	%ymm2, %ymm1, %ymm2
	vmulps	%ymm0, %ymm2, %ymm2
	vsubps	%ymm2, %ymm1, %ymm2
	vmulps	%ymm0, %ymm2, %ymm2
	vsubps	%ymm2, %ymm1, %ymm2
	vmulps	%ymm0, %ymm3, %ymm3
	vsubps	%ymm3, %ymm1, %ymm3
	vmulps	%ymm0, %ymm3, %ymm3
	vsubps	%ymm3, %ymm1, %ymm3
	vmulps	%ymm0, %ymm3, %ymm3
	vsubps	%ymm3, %ymm1, %ymm3
	vmulps	%ymm0, %ymm3, %ymm3
	vmulps	%ymm0, %ymm2, %ymm2
	vsubps	%ymm2, %ymm1, %ymm2
	vmulps	%ymm0, %ymm2, %ymm2
	vsubps	%ymm2, %ymm1, %ymm2
	vmulps	%ymm0, %ymm2, %ymm2
	vsubps	%ymm2, %ymm1, %ymm2
	vmulps	%ymm0, %ymm2, %ymm2
	vsubps	%ymm3, %ymm1, %ymm3
	vmulps	%ymm0, %ymm3, %ymm3
	vsubps	%ymm3, %ymm1, %ymm3
	vmulps	%ymm0, %ymm3, %ymm3
	vsubps	%ymm3, %ymm1, %ymm3
	vmulps	%ymm0, %ymm3, %ymm3
	vsubps	%ymm3, %ymm1, %ymm3
	vsubps	%ymm2, %ymm1, %ymm2
	vmulps	%ymm0, %ymm2, %ymm2
	vsubps	%ymm2, %ymm1, %ymm2
	vmulps	%ymm0, %ymm2, %ymm2
	vsubps	%ymm2, %ymm1, %ymm2
	vmulps	%ymm0, %ymm2, %ymm2
	vsubps	%ymm2, %ymm1, %ymm2
	vmulps	%ymm0, %ymm3, %ymm3
	vsubps	%ymm3, %ymm1, %ymm3
	vmulps	%ymm0, %ymm3, %ymm3
	vsubps	%ymm3, %ymm1, %ymm3
	vmulps	%ymm0, %ymm3, %ymm3
	vsubps	%ymm3, %ymm1, %ymm3
	vmulps	%ymm0, %ymm3, %ymm3
	vmulps	%ymm0, %ymm2, %ymm2
	vsubps	%ymm2, %ymm1, %ymm2
	vmulps	%ymm0, %ymm2, %ymm2
	vsubps	%ymm2, %ymm1, %ymm2
	vmulps	%ymm0, %ymm2, %ymm2
	vsubps	%ymm2, %ymm1, %ymm2
	vmulps	%ymm0, %ymm2, %ymm2
	vsubps	%ymm3, %ymm1, %ymm3
	vmulps	%ymm0, %ymm3, %ymm3
	vsubps	%ymm3, %ymm1, %ymm3
	vmulps	%ymm0, %ymm3, %ymm3
	vsubps	%ymm3, %ymm1, %ymm3
	vmulps	%ymm0, %ymm3, %ymm3
	vsubps	%ymm3, %ymm1, %ymm3
	vsubps	%ymm2, %ymm1, %ymm2
	vmulps	%ymm0, %ymm2, %ymm2
	vsubps	%ymm2, %ymm1, %ymm2
	vmulps	%ymm0, %ymm2, %ymm2
	vsubps	%ymm2, %ymm1, %ymm2
	vmulps	%ymm0, %ymm2, %ymm2
	vsubps	%ymm2, %ymm1, %ymm2
	vmulps	%ymm0, %ymm3, %ymm3
	vsubps	%ymm3, %ymm1, %ymm3
	vmulps	%ymm0, %ymm3, %ymm3
	vsubps	%ymm3, %ymm1, %ymm3
	vmulps	%ymm0, %ymm3, %ymm3
	vsubps	%ymm3, %ymm1, %ymm3
	vmulps	%ymm0, %ymm3, %ymm3
	vmulps	%ymm0, %ymm2, %ymm2
	vsubps	%ymm2, %ymm1, %ymm2
	vmulps	%ymm0, %ymm2, %ymm2
	vsubps	%ymm2, %ymm1, %ymm2
	vmulps	%ymm0, %ymm2, %ymm2
	vsubps	%ymm2, %ymm1, %ymm2
	vmulps	%ymm0, %ymm2, %ymm2
	vsubps	%ymm3, %ymm1, %ymm3
	vmulps	%ymm0, %ymm3, %ymm3
	vsubps	%ymm3, %ymm1, %ymm3
	vmulps	%ymm0, %ymm3, %ymm3
	vsubps	%ymm3, %ymm1, %ymm3
	vmulps	%ymm0, %ymm3, %ymm3
	vsubps	%ymm3, %ymm1, %ymm3
	vsubps	%ymm2, %ymm1, %ymm2
	vmulps	%ymm0, %ymm2, %ymm2
	vsubps	%ymm2, %ymm1, %ymm2
	vmulps	%ymm0, %ymm2, %ymm2
	vsubps	%ymm2, %ymm1, %ymm2
	vmulps	%ymm0, %ymm2, %ymm2
	vsubps	%ymm2, %ymm1, %ymm2
	vmulps	%ymm0, %ymm3, %ymm3
	vsubps	%ymm3, %ymm1, %ymm3
	vmulps	%ymm0, %ymm3, %ymm3
	vsubps	%ymm3, %ymm1, %ymm3
	vmulps	%ymm0, %ymm3, %ymm3
	vsubps	%ymm3, %ymm1, %ymm3
	vmulps	%ymm0, %ymm3, %ymm3
	vmulps	%ymm0, %ymm2, %ymm2
	vsubps	%ymm2, %ymm1, %ymm2
	vmulps	%ymm0, %ymm2, %ymm2
	vsubps	%ymm2, %ymm1, %ymm2
	vmulps	%ymm0, %ymm2, %ymm2
	vsubps	%ymm2, %ymm1, %ymm2
	vmulps	%ymm0, %ymm2, %ymm2
	vsubps	%ymm3, %ymm1, %ymm3
	vmulps	%ymm0, %ymm3, %ymm3
	vsubps	%ymm3, %ymm1, %ymm3
	vmulps	%ymm0, %ymm3, %ymm3
	vsubps	%ymm3, %ymm1, %ymm3
	vmulps	%ymm0, %ymm3, %ymm3
	vsubps	%ymm3, %ymm1, %ymm3
	vsubps	%ymm2, %ymm1, %ymm2
	vmulps	%ymm0, %ymm2, %ymm2
	vsubps	%ymm2, %ymm1, %ymm2
	vmulps	%ymm0, %ymm2, %ymm2
	vsubps	%ymm2, %ymm1, %ymm2
	vmulps	%ymm0, %ymm2, %ymm2
	vsubps	%ymm2, %ymm1, %ymm2
	vmulps	%ymm0, %ymm3, %ymm3
	vsubps	%ymm3, %ymm1, %ymm3
	vmulps	%ymm0, %ymm3, %ymm3
	vsubps	%ymm3, %ymm1, %ymm3
	vmulps	%ymm0, %ymm3, %ymm3
	vsubps	%ymm3, %ymm1, %ymm3
	vmulps	%ymm0, %ymm3, %ymm3
	vmulps	%ymm0, %ymm2, %ymm2
	vsubps	%ymm2, %ymm1, %ymm2
	vmulps	%ymm0, %ymm2, %ymm2
	vsubps	%ymm2, %ymm1, %ymm2
	vmulps	%ymm0, %ymm2, %ymm2
	vsubps	%ymm2, %ymm1, %ymm2
	vmulps	%ymm0, %ymm2, %ymm2
	vsubps	%ymm3, %ymm1, %ymm3
	vmulps	%ymm0, %ymm3, %ymm3
	vsubps	%ymm3, %ymm1, %ymm3
	vmulps	%ymm0, %ymm3, %ymm3
	vsubps	%ymm3, %ymm1, %ymm3
	vmulps	%ymm0, %ymm3, %ymm3
	vsubps	%ymm3, %ymm1, %ymm3
	vsubps	%ymm2, %ymm1, %ymm2
	vmulps	%ymm0, %ymm2, %ymm2
	vsubps	%ymm2, %ymm1, %ymm2
	vmulps	%ymm0, %ymm2, %ymm2
	vsubps	%ymm2, %ymm1, %ymm2
	vmulps	%ymm0, %ymm2, %ymm2
	vsubps	%ymm2, %ymm1, %ymm2
	vmulps	%ymm0, %ymm3, %ymm3
	vsubps	%ymm3, %ymm1, %ymm3
	vmulps	%ymm0, %ymm3, %ymm3
	vsubps	%ymm3, %ymm1, %ymm3
	vmulps	%ymm0, %ymm3, %ymm3
	vsubps	%ymm3, %ymm1, %ymm3
	vmulps	%ymm0, %ymm3, %ymm3
	vmulps	%ymm0, %ymm2, %ymm2
	vsubps	%ymm2, %ymm1, %ymm2
	vmulps	%ymm0, %ymm2, %ymm2
	vsubps	%ymm2, %ymm1, %ymm2
	vmulps	%ymm0, %ymm2, %ymm2
	vsubps	%ymm2, %ymm1, %ymm2
	vmulps	%ymm0, %ymm2, %ymm2
	vsubps	%ymm3, %ymm1, %ymm3
	vmulps	%ymm0, %ymm3, %ymm3
	vsubps	%ymm3, %ymm1, %ymm3
	vmulps	%ymm0, %ymm3, %ymm3
	vsubps	%ymm3, %ymm1, %ymm3
	vmulps	%ymm0, %ymm3, %ymm3
	vsubps	%ymm3, %ymm1, %ymm3
	vsubps	%ymm2, %ymm1, %ymm2
	vmulps	%ymm0, %ymm2, %ymm2
	vsubps	%ymm2, %ymm1, %ymm2
	vmulps	%ymm0, %ymm2, %ymm2
	vsubps	%ymm2, %ymm1, %ymm2
	vmulps	%ymm0, %ymm2, %ymm2
	vsubps	%ymm2, %ymm1, %ymm2
	vmulps	%ymm0, %ymm3, %ymm3
	vsubps	%ymm3, %ymm1, %ymm3
	vmulps	%ymm0, %ymm3, %ymm3
	vsubps	%ymm3, %ymm1, %ymm3
	vmulps	%ymm0, %ymm3, %ymm3
	vsubps	%ymm3, %ymm1, %ymm3
	vmulps	%ymm0, %ymm3, %ymm3
	vmulps	%ymm0, %ymm2, %ymm2
	vsubps	%ymm2, %ymm1, %ymm2
	vmulps	%ymm0, %ymm2, %ymm2
	vsubps	%ymm2, %ymm1, %ymm2
	vmulps	%ymm0, %ymm2, %ymm2
	vsubps	%ymm2, %ymm1, %ymm2
	vmulps	%ymm0, %ymm2, %ymm2
	vsubps	%ymm3, %ymm1, %ymm3
	vmulps	%ymm0, %ymm3, %ymm3
	vsubps	%ymm3, %ymm1, %ymm3
	vmulps	%ymm0, %ymm3, %ymm3
	vsubps	%ymm3, %ymm1, %ymm3
	vmulps	%ymm0, %ymm3, %ymm3
	vsubps	%ymm3, %ymm1, %ymm3
	vsubps	%ymm2, %ymm1, %ymm2
	vmulps	%ymm0, %ymm2, %ymm2
	vsubps	%ymm2, %ymm1, %ymm2
	vmulps	%ymm0, %ymm2, %ymm2
	vsubps	%ymm2, %ymm1, %ymm2
	vmulps	%ymm0, %ymm2, %ymm2
	vsubps	%ymm2, %ymm1, %ymm2
	vmulps	%ymm0, %ymm3, %ymm3
	vsubps	%ymm3, %ymm1, %ymm3
	vmulps	%ymm0, %ymm3, %ymm3
	vsubps	%ymm3, %ymm1, %ymm3
	vmulps	%ymm0, %ymm3, %ymm3
	vsubps	%ymm3, %ymm1, %ymm3
	vmulps	%ymm0, %ymm3, %ymm3
	vmulps	%ymm0, %ymm2, %ymm2
	vsubps	%ymm2, %ymm1, %ymm2
	vmulps	%ymm0, %ymm2, %ymm2
	vsubps	%ymm2, %ymm1, %ymm2
	vmulps	%ymm0, %ymm2, %ymm2
	vsubps	%ymm2, %ymm1, %ymm2
	vmulps	%ymm0, %ymm2, %ymm2
	vsubps	%ymm3, %ymm1, %ymm3
	vmulps	%ymm0, %ymm3, %ymm3
	vsubps	%ymm3, %ymm1, %ymm3
	vmulps	%ymm0, %ymm3, %ymm3
	vsubps	%ymm3, %ymm1, %ymm3
	vmulps	%ymm0, %ymm3, %ymm3
	vsubps	%ymm3, %ymm1, %ymm3
	vsubps	%ymm2, %ymm1, %ymm2
	vmulps	%ymm0, %ymm2, %ymm2
	vsubps	%ymm2, %ymm1, %ymm2
	vmulps	%ymm0, %ymm2, %ymm2
	vsubps	%ymm2, %ymm1, %ymm2
	vmulps	%ymm0, %ymm2, %ymm2
	vsubps	%ymm2, %ymm1, %ymm2
	vmulps	%ymm0, %ymm3, %ymm3
	vsubps	%ymm3, %ymm1, %ymm3
	vmulps	%ymm0, %ymm3, %ymm3
	vsubps	%ymm3, %ymm1, %ymm3
	vmulps	%ymm0, %ymm3, %ymm3
	vsubps	%ymm3, %ymm1, %ymm3
	vmulps	%ymm0, %ymm3, %ymm3
	vmulps	%ymm0, %ymm2, %ymm2
	vsubps	%ymm2, %ymm1, %ymm2
	vmulps	%ymm0, %ymm2, %ymm2
	vsubps	%ymm2, %ymm1, %ymm2
	vmulps	%ymm0, %ymm2, %ymm2
	vsubps	%ymm2, %ymm1, %ymm2
	vmulps	%ymm0, %ymm2, %ymm2
	vsubps	%ymm3, %ymm1, %ymm3
	vmulps	%ymm0, %ymm3, %ymm3
	vsubps	%ymm3, %ymm1, %ymm3
	vmulps	%ymm0, %ymm3, %ymm3
	vsubps	%ymm3, %ymm1, %ymm3
	vmulps	%ymm0, %ymm3, %ymm3
	vsubps	%ymm3, %ymm1, %ymm3
	vsubps	%ymm2, %ymm1, %ymm2
	vmulps	%ymm0, %ymm2, %ymm2
	vsubps	%ymm2, %ymm1, %ymm2
	vmulps	%ymm0, %ymm2, %ymm2
	vsubps	%ymm2, %ymm1, %ymm2
	vmulps	%ymm0, %ymm2, %ymm2
	vsubps	%ymm2, %ymm1, %ymm2
	vmulps	%ymm0, %ymm3, %ymm3
	vsubps	%ymm3, %ymm1, %ymm3
	vmulps	%ymm0, %ymm3, %ymm3
	vsubps	%ymm3, %ymm1, %ymm3
	vmulps	%ymm0, %ymm3, %ymm3
	vsubps	%ymm3, %ymm1, %ymm3
	vmulps	%ymm0, %ymm3, %ymm3
	vmulps	%ymm0, %ymm2, %ymm2
	vsubps	%ymm2, %ymm1, %ymm2
	vmulps	%ymm0, %ymm2, %ymm2
	vsubps	%ymm2, %ymm1, %ymm2
	vmulps	%ymm0, %ymm2, %ymm2
	vsubps	%ymm2, %ymm1, %ymm2
	vmulps	%ymm0, %ymm2, %ymm2
	vsubps	%ymm3, %ymm1, %ymm3
	vmulps	%ymm0, %ymm3, %ymm3
	vsubps	%ymm3, %ymm1, %ymm3
	vmulps	%ymm0, %ymm3, %ymm3
	vsubps	%ymm3, %ymm1, %ymm3
	vmulps	%ymm0, %ymm3, %ymm3
	vsubps	%ymm3, %ymm1, %ymm3
	vsubps	%ymm2, %ymm1, %ymm2
	vmulps	%ymm0, %ymm2, %ymm2
	vsubps	%ymm2, %ymm1, %ymm2
	vmulps	%ymm0, %ymm2, %ymm2
	vsubps	%ymm2, %ymm1, %ymm2
	vmulps	%ymm0, %ymm2, %ymm2
	vsubps	%ymm2, %ymm1, %ymm2
	vmulps	%ymm0, %ymm3, %ymm3
	vsubps	%ymm3, %ymm1, %ymm3
	vmulps	%ymm0, %ymm3, %ymm3
	vsubps	%ymm3, %ymm1, %ymm3
	vmulps	%ymm0, %ymm3, %ymm3
	vsubps	%ymm3, %ymm1, %ymm3
	vmulps	%ymm0, %ymm3, %ymm3
	vmulps	%ymm0, %ymm2, %ymm2
	vsubps	%ymm2, %ymm1, %ymm2
	vmulps	%ymm0, %ymm2, %ymm2
	vsubps	%ymm2, %ymm1, %ymm2
	vmulps	%ymm0, %ymm2, %ymm2
	vsubps	%ymm2, %ymm1, %ymm2
	vmulps	%ymm0, %ymm2, %ymm2
	vsubps	%ymm3, %ymm1, %ymm3
	vmulps	%ymm0, %ymm3, %ymm3
	vsubps	%ymm3, %ymm1, %ymm3
	vmulps	%ymm0, %ymm3, %ymm3
	vsubps	%ymm3, %ymm1, %ymm3
	vmulps	%ymm0, %ymm3, %ymm3
	vsubps	%ymm3, %ymm1, %ymm3
	vsubps	%ymm2, %ymm1, %ymm2
	vmulps	%ymm0, %ymm2, %ymm2
	vsubps	%ymm2, %ymm1, %ymm2
	vmulps	%ymm0, %ymm2, %ymm2
	vsubps	%ymm2, %ymm1, %ymm2
	vmulps	%ymm0, %ymm2, %ymm2
	vsubps	%ymm2, %ymm1, %ymm2
	vmulps	%ymm0, %ymm3, %ymm3
	vsubps	%ymm3, %ymm1, %ymm3
	vmulps	%ymm0, %ymm3, %ymm3
	vsubps	%ymm3, %ymm1, %ymm3
	vmulps	%ymm0, %ymm3, %ymm3
	vsubps	%ymm3, %ymm1, %ymm3
	vmulps	%ymm0, %ymm3, %ymm3
	vmulps	%ymm0, %ymm2, %ymm2
	vsubps	%ymm2, %ymm1, %ymm2
	vmulps	%ymm0, %ymm2, %ymm2
	vsubps	%ymm2, %ymm1, %ymm2
	vmulps	%ymm0, %ymm2, %ymm2
	vsubps	%ymm2, %ymm1, %ymm2
	vmulps	%ymm0, %ymm2, %ymm2
	vsubps	%ymm3, %ymm1, %ymm3
	vmulps	%ymm0, %ymm3, %ymm3
	vsubps	%ymm3, %ymm1, %ymm3
	vmulps	%ymm0, %ymm3, %ymm3
	vsubps	%ymm3, %ymm1, %ymm3
	vmulps	%ymm0, %ymm3, %ymm3
	vsubps	%ymm3, %ymm1, %ymm3
	vsubps	%ymm2, %ymm1, %ymm2
	vmulps	%ymm0, %ymm2, %ymm2
	vsubps	%ymm2, %ymm1, %ymm2
	vmulps	%ymm0, %ymm2, %ymm2
	vsubps	%ymm2, %ymm1, %ymm2
	vmulps	%ymm0, %ymm2, %ymm2
	vsubps	%ymm2, %ymm1, %ymm2
	vmulps	%ymm0, %ymm3, %ymm3
	vsubps	%ymm3, %ymm1, %ymm3
	vmulps	%ymm0, %ymm3, %ymm3
	vsubps	%ymm3, %ymm1, %ymm3
	vmulps	%ymm0, %ymm3, %ymm3
	vsubps	%ymm3, %ymm1, %ymm3
	vmulps	%ymm0, %ymm3, %ymm3
	vmulps	%ymm0, %ymm2, %ymm2
	vsubps	%ymm2, %ymm1, %ymm2
	vmulps	%ymm0, %ymm2, %ymm2
	vsubps	%ymm2, %ymm1, %ymm2
	vmulps	%ymm0, %ymm2, %ymm2
	vsubps	%ymm2, %ymm1, %ymm2
	vmulps	%ymm0, %ymm2, %ymm2
	vsubps	%ymm3, %ymm1, %ymm3
	vmulps	%ymm0, %ymm3, %ymm3
	vsubps	%ymm3, %ymm1, %ymm3
	vmulps	%ymm0, %ymm3, %ymm3
	vsubps	%ymm3, %ymm1, %ymm3
	vmulps	%ymm0, %ymm3, %ymm3
	vsubps	%ymm3, %ymm1, %ymm3
	vsubps	%ymm2, %ymm1, %ymm2
	vmulps	%ymm0, %ymm2, %ymm2
	vsubps	%ymm2, %ymm1, %ymm2
	vmulps	%ymm0, %ymm2, %ymm2
	vsubps	%ymm2, %ymm1, %ymm2
	vmulps	%ymm0, %ymm2, %ymm2
	vsubps	%ymm2, %ymm1, %ymm2
	vmulps	%ymm0, %ymm3, %ymm3
	vsubps	%ymm3, %ymm1, %ymm3
	vmulps	%ymm0, %ymm3, %ymm3
	vsubps	%ymm3, %ymm1, %ymm3
	vmulps	%ymm0, %ymm3, %ymm3
	vsubps	%ymm3, %ymm1, %ymm3
	vmulps	%ymm0, %ymm3, %ymm3
	vmulps	%ymm0, %ymm2, %ymm2
	vsubps	%ymm2, %ymm1, %ymm2
	vmulps	%ymm0, %ymm2, %ymm2
	vsubps	%ymm2, %ymm1, %ymm2
	vmulps	%ymm0, %ymm2, %ymm2
	vsubps	%ymm2, %ymm1, %ymm2
	vmulps	%ymm0, %ymm2, %ymm2
	vsubps	%ymm3, %ymm1, %ymm3
	vmulps	%ymm0, %ymm3, %ymm3
	vsubps	%ymm3, %ymm1, %ymm3
	vmulps	%ymm0, %ymm3, %ymm3
	vsubps	%ymm3, %ymm1, %ymm3
	vmulps	%ymm0, %ymm3, %ymm3
	vsubps	%ymm3, %ymm1, %ymm3
	vsubps	%ymm2, %ymm1, %ymm2
	vmulps	%ymm0, %ymm2, %ymm2
	vsubps	%ymm2, %ymm1, %ymm2
	vmulps	%ymm0, %ymm2, %ymm2
	vsubps	%ymm2, %ymm1, %ymm2
	vmulps	%ymm0, %ymm2, %ymm2
	vsubps	%ymm2, %ymm1, %ymm2
	vmulps	%ymm0, %ymm3, %ymm3
	vsubps	%ymm3, %ymm1, %ymm3
	vmulps	%ymm0, %ymm3, %ymm3
	vsubps	%ymm3, %ymm1, %ymm3
	vmulps	%ymm0, %ymm3, %ymm3
	vsubps	%ymm3, %ymm1, %ymm3
	vmulps	%ymm0, %ymm3, %ymm3
	vmulps	%ymm0, %ymm2, %ymm2
	vsubps	%ymm2, %ymm1, %ymm2
	vmulps	%ymm0, %ymm2, %ymm2
	vsubps	%ymm2, %ymm1, %ymm2
	vmulps	%ymm0, %ymm2, %ymm2
	vsubps	%ymm2, %ymm1, %ymm2
	vmulps	%ymm0, %ymm2, %ymm2
	vsubps	%ymm3, %ymm1, %ymm3
	vmulps	%ymm0, %ymm3, %ymm3
	vsubps	%ymm3, %ymm1, %ymm3
	vmulps	%ymm0, %ymm3, %ymm3
	vsubps	%ymm3, %ymm1, %ymm3
	vmulps	%ymm0, %ymm3, %ymm3
	vsubps	%ymm3, %ymm1, %ymm3
	vsubps	%ymm2, %ymm1, %ymm2
	vmulps	%ymm0, %ymm2, %ymm2
	vsubps	%ymm2, %ymm1, %ymm2
	vmulps	%ymm0, %ymm2, %ymm2
	vsubps	%ymm2, %ymm1, %ymm2
	vmulps	%ymm0, %ymm2, %ymm2
	vsubps	%ymm2, %ymm1, %ymm2
	vmulps	%ymm0, %ymm3, %ymm3
	vsubps	%ymm3, %ymm1, %ymm3
	vmulps	%ymm0, %ymm3, %ymm3
	vsubps	%ymm3, %ymm1, %ymm3
	vmulps	%ymm0, %ymm3, %ymm3
	vsubps	%ymm3, %ymm1, %ymm3
	vmulps	%ymm0, %ymm3, %ymm3
	vmulps	%ymm0, %ymm2, %ymm2
	vsubps	%ymm2, %ymm1, %ymm2
	vmulps	%ymm0, %ymm2, %ymm2
	vsubps	%ymm2, %ymm1, %ymm2
	vmulps	%ymm0, %ymm2, %ymm2
	vsubps	%ymm2, %ymm1, %ymm2
	vmulps	%ymm0, %ymm2, %ymm2
	vsubps	%ymm3, %ymm1, %ymm3
	vmulps	%ymm0, %ymm3, %ymm3
	vsubps	%ymm3, %ymm1, %ymm3
	vmulps	%ymm0, %ymm3, %ymm3
	vsubps	%ymm3, %ymm1, %ymm3
	vmulps	%ymm0, %ymm3, %ymm3
	vsubps	%ymm3, %ymm1, %ymm3
	vsubps	%ymm2, %ymm1, %ymm2
	vmulps	%ymm0, %ymm2, %ymm2
	vsubps	%ymm2, %ymm1, %ymm2
	vmulps	%ymm0, %ymm2, %ymm2
	vsubps	%ymm2, %ymm1, %ymm2
	vmulps	%ymm0, %ymm2, %ymm2
	vsubps	%ymm2, %ymm1, %ymm2
	vmulps	%ymm0, %ymm3, %ymm3
	vsubps	%ymm3, %ymm1, %ymm3
	vmulps	%ymm0, %ymm3, %ymm3
	vsubps	%ymm3, %ymm1, %ymm3
	vmulps	%ymm0, %ymm3, %ymm3
	vsubps	%ymm3, %ymm1, %ymm3
	vmulps	%ymm0, %ymm3, %ymm3
	vmulps	%ymm0, %ymm2, %ymm2
	vsubps	%ymm2, %ymm1, %ymm2
	vmulps	%ymm0, %ymm2, %ymm2
	vsubps	%ymm2, %ymm1, %ymm2
	vmulps	%ymm0, %ymm2, %ymm2
	vsubps	%ymm2, %ymm1, %ymm2
	vmulps	%ymm0, %ymm2, %ymm2
	vsubps	%ymm3, %ymm1, %ymm3
	vmulps	%ymm0, %ymm3, %ymm3
	vsubps	%ymm3, %ymm1, %ymm3
	vmulps	%ymm0, %ymm3, %ymm3
	vsubps	%ymm3, %ymm1, %ymm3
	vmulps	%ymm0, %ymm3, %ymm3
	vsubps	%ymm3, %ymm1, %ymm3
	vsubps	%ymm2, %ymm1, %ymm2
	vmulps	%ymm0, %ymm2, %ymm2
	vsubps	%ymm2, %ymm1, %ymm2
	vmulps	%ymm0, %ymm2, %ymm2
	vsubps	%ymm2, %ymm1, %ymm2
	vmulps	%ymm0, %ymm2, %ymm2
	vsubps	%ymm2, %ymm1, %ymm2
	vmulps	%ymm0, %ymm3, %ymm3
	vsubps	%ymm3, %ymm1, %ymm3
	vmulps	%ymm0, %ymm3, %ymm3
	vsubps	%ymm3, %ymm1, %ymm3
	vmulps	%ymm0, %ymm3, %ymm3
	vsubps	%ymm3, %ymm1, %ymm3
	vmulps	%ymm0, %ymm3, %ymm3
	vmulps	%ymm0, %ymm2, %ymm2
	vsubps	%ymm2, %ymm1, %ymm2
	vmulps	%ymm0, %ymm2, %ymm2
	vsubps	%ymm2, %ymm1, %ymm2
	vmulps	%ymm0, %ymm2, %ymm2
	vsubps	%ymm2, %ymm1, %ymm2
	vmulps	%ymm0, %ymm2, %ymm2
	vsubps	%ymm3, %ymm1, %ymm3
	vmulps	%ymm0, %ymm3, %ymm3
	vsubps	%ymm3, %ymm1, %ymm3
	vmulps	%ymm0, %ymm3, %ymm3
	vsubps	%ymm3, %ymm1, %ymm3
	vmulps	%ymm0, %ymm3, %ymm3
	vsubps	%ymm3, %ymm1, %ymm3
	vsubps	%ymm2, %ymm1, %ymm2
	vmulps	%ymm0, %ymm2, %ymm2
	vsubps	%ymm2, %ymm1, %ymm2
	vmulps	%ymm0, %ymm2, %ymm2
	vsubps	%ymm2, %ymm1, %ymm2
	vmulps	%ymm0, %ymm2, %ymm2
	vsubps	%ymm2, %ymm1, %ymm2
	vmulps	%ymm0, %ymm3, %ymm3
	vsubps	%ymm3, %ymm1, %ymm3
	vmulps	%ymm0, %ymm3, %ymm3
	vsubps	%ymm3, %ymm1, %ymm3
	vmulps	%ymm0, %ymm3, %ymm3
	vsubps	%ymm3, %ymm1, %ymm3
	vmulps	%ymm0, %ymm3, %ymm3
	vmulps	%ymm0, %ymm2, %ymm2
	vsubps	%ymm2, %ymm1, %ymm2
	vmulps	%ymm0, %ymm2, %ymm2
	vsubps	%ymm2, %ymm1, %ymm2
	vmulps	%ymm0, %ymm2, %ymm2
	vsubps	%ymm2, %ymm1, %ymm2
	vmulps	%ymm0, %ymm2, %ymm2
	vsubps	%ymm3, %ymm1, %ymm3
	vmulps	%ymm0, %ymm3, %ymm3
	vsubps	%ymm3, %ymm1, %ymm3
	vmulps	%ymm0, %ymm3, %ymm3
	vsubps	%ymm3, %ymm1, %ymm3
	vmulps	%ymm0, %ymm3, %ymm3
	vsubps	%ymm3, %ymm1, %ymm3
	vsubps	%ymm2, %ymm1, %ymm2
	vmulps	%ymm0, %ymm2, %ymm2
	vsubps	%ymm2, %ymm1, %ymm2
	vmulps	%ymm0, %ymm2, %ymm2
	vsubps	%ymm2, %ymm1, %ymm2
	vmulps	%ymm0, %ymm2, %ymm2
	vsubps	%ymm2, %ymm1, %ymm2
	vmulps	%ymm0, %ymm3, %ymm3
	vsubps	%ymm3, %ymm1, %ymm3
	vmulps	%ymm0, %ymm3, %ymm3
	vsubps	%ymm3, %ymm1, %ymm3
	vmulps	%ymm0, %ymm3, %ymm3
	vsubps	%ymm3, %ymm1, %ymm3
	vmulps	%ymm0, %ymm3, %ymm3
	vmulps	%ymm0, %ymm2, %ymm2
	vsubps	%ymm2, %ymm1, %ymm2
	vmulps	%ymm0, %ymm2, %ymm2
	vsubps	%ymm2, %ymm1, %ymm2
	vmulps	%ymm0, %ymm2, %ymm2
	vsubps	%ymm2, %ymm1, %ymm2
	vmulps	%ymm0, %ymm2, %ymm2
	vsubps	%ymm3, %ymm1, %ymm3
	vmulps	%ymm0, %ymm3, %ymm3
	vsubps	%ymm3, %ymm1, %ymm3
	vmulps	%ymm0, %ymm3, %ymm3
	vsubps	%ymm3, %ymm1, %ymm3
	vmulps	%ymm0, %ymm3, %ymm3
	vsubps	%ymm3, %ymm1, %ymm3
	vsubps	%ymm2, %ymm1, %ymm2
	vmulps	%ymm0, %ymm2, %ymm2
	vsubps	%ymm2, %ymm1, %ymm2
	vmulps	%ymm0, %ymm2, %ymm2
	vsubps	%ymm2, %ymm1, %ymm2
	vmulps	%ymm0, %ymm2, %ymm2
	vsubps	%ymm2, %ymm1, %ymm2
	vmulps	%ymm0, %ymm3, %ymm3
	vsubps	%ymm3, %ymm1, %ymm3
	vmulps	%ymm0, %ymm3, %ymm3
	vsubps	%ymm3, %ymm1, %ymm3
	vmulps	%ymm0, %ymm3, %ymm3
	vsubps	%ymm3, %ymm1, %ymm3
	vmulps	%ymm0, %ymm3, %ymm3
	vmulps	%ymm0, %ymm2, %ymm2
	vsubps	%ymm2, %ymm1, %ymm2
	vmulps	%ymm0, %ymm2, %ymm2
	vsubps	%ymm2, %ymm1, %ymm2
	vmulps	%ymm0, %ymm2, %ymm2
	vsubps	%ymm2, %ymm1, %ymm2
	vmulps	%ymm0, %ymm2, %ymm2
	vsubps	%ymm3, %ymm1, %ymm3
	vmulps	%ymm0, %ymm3, %ymm3
	vsubps	%ymm3, %ymm1, %ymm3
	vmulps	%ymm0, %ymm3, %ymm3
	vsubps	%ymm3, %ymm1, %ymm3
	vmulps	%ymm0, %ymm3, %ymm3
	vsubps	%ymm3, %ymm1, %ymm3
	vsubps	%ymm2, %ymm1, %ymm2
	vmulps	%ymm0, %ymm2, %ymm2
	vsubps	%ymm2, %ymm1, %ymm2
	vmulps	%ymm0, %ymm2, %ymm2
	vsubps	%ymm2, %ymm1, %ymm2
	vmulps	%ymm0, %ymm2, %ymm2
	vsubps	%ymm2, %ymm1, %ymm2
	vmulps	%ymm0, %ymm3, %ymm3
	vsubps	%ymm3, %ymm1, %ymm3
	vmulps	%ymm0, %ymm3, %ymm3
	vsubps	%ymm3, %ymm1, %ymm3
	vmulps	%ymm0, %ymm3, %ymm3
	vsubps	%ymm3, %ymm1, %ymm3
	vmulps	%ymm0, %ymm3, %ymm3
	vmulps	%ymm0, %ymm2, %ymm2
	vsubps	%ymm2, %ymm1, %ymm2
	vmulps	%ymm0, %ymm2, %ymm2
	vsubps	%ymm2, %ymm1, %ymm2
	vmulps	%ymm0, %ymm2, %ymm2
	vsubps	%ymm2, %ymm1, %ymm2
	vmulps	%ymm0, %ymm2, %ymm2
	vsubps	%ymm3, %ymm1, %ymm3
	vmulps	%ymm0, %ymm3, %ymm3
	vsubps	%ymm3, %ymm1, %ymm3
	vmulps	%ymm0, %ymm3, %ymm3
	vsubps	%ymm3, %ymm1, %ymm3
	vmulps	%ymm0, %ymm3, %ymm3
	vsubps	%ymm3, %ymm1, %ymm3
	vsubps	%ymm2, %ymm1, %ymm2
	vmulps	%ymm0, %ymm2, %ymm2
	vsubps	%ymm2, %ymm1, %ymm2
	vmulps	%ymm0, %ymm2, %ymm2
	vsubps	%ymm2, %ymm1, %ymm2
	vmulps	%ymm0, %ymm2, %ymm2
	vsubps	%ymm2, %ymm1, %ymm2
	vmulps	%ymm0, %ymm3, %ymm3
	vsubps	%ymm3, %ymm1, %ymm3
	vmulps	%ymm0, %ymm3, %ymm3
	vsubps	%ymm3, %ymm1, %ymm3
	vmulps	%ymm0, %ymm3, %ymm3
	vsubps	%ymm3, %ymm1, %ymm3
	vmulps	%ymm0, %ymm3, %ymm3
	vmulps	%ymm0, %ymm2, %ymm2
	vsubps	%ymm2, %ymm1, %ymm2
	vmulps	%ymm0, %ymm2, %ymm2
	vsubps	%ymm2, %ymm1, %ymm2
	vmulps	%ymm0, %ymm2, %ymm2
	vsubps	%ymm2, %ymm1, %ymm2
	vmulps	%ymm0, %ymm2, %ymm2
	vsubps	%ymm3, %ymm1, %ymm3
	vmulps	%ymm0, %ymm3, %ymm3
	vsubps	%ymm3, %ymm1, %ymm3
	vmulps	%ymm0, %ymm3, %ymm3
	vsubps	%ymm3, %ymm1, %ymm3
	vmulps	%ymm0, %ymm3, %ymm3
	vsubps	%ymm3, %ymm1, %ymm3
	vsubps	%ymm2, %ymm1, %ymm2
	vmulps	%ymm0, %ymm2, %ymm2
	vsubps	%ymm2, %ymm1, %ymm2
	vmulps	%ymm0, %ymm2, %ymm2
	vsubps	%ymm2, %ymm1, %ymm2
	vmulps	%ymm0, %ymm2, %ymm2
	vsubps	%ymm2, %ymm1, %ymm2
	vmulps	%ymm0, %ymm3, %ymm3
	vsubps	%ymm3, %ymm1, %ymm3
	vmulps	%ymm0, %ymm3, %ymm3
	vsubps	%ymm3, %ymm1, %ymm3
	vmulps	%ymm0, %ymm3, %ymm3
	vsubps	%ymm3, %ymm1, %ymm3
	vmulps	%ymm0, %ymm3, %ymm3
	vmulps	%ymm0, %ymm2, %ymm2
	vsubps	%ymm2, %ymm1, %ymm2
	vmulps	%ymm0, %ymm2, %ymm2
	vsubps	%ymm2, %ymm1, %ymm2
	vmulps	%ymm0, %ymm2, %ymm2
	vsubps	%ymm2, %ymm1, %ymm2
	vmulps	%ymm0, %ymm2, %ymm2
	vsubps	%ymm3, %ymm1, %ymm3
	vmulps	%ymm0, %ymm3, %ymm3
	vsubps	%ymm3, %ymm1, %ymm3
	vmulps	%ymm0, %ymm3, %ymm3
	vsubps	%ymm3, %ymm1, %ymm3
	vmulps	%ymm0, %ymm3, %ymm3
	vsubps	%ymm3, %ymm1, %ymm3
	vsubps	%ymm2, %ymm1, %ymm2
	vmulps	%ymm0, %ymm2, %ymm2
	vsubps	%ymm2, %ymm1, %ymm2
	vmulps	%ymm0, %ymm2, %ymm2
	vsubps	%ymm2, %ymm1, %ymm2
	vmulps	%ymm0, %ymm2, %ymm2
	vsubps	%ymm2, %ymm1, %ymm2
	vmulps	%ymm0, %ymm3, %ymm3
	vsubps	%ymm3, %ymm1, %ymm3
	vmulps	%ymm0, %ymm3, %ymm3
	vsubps	%ymm3, %ymm1, %ymm3
	vmulps	%ymm0, %ymm3, %ymm3
	vsubps	%ymm3, %ymm1, %ymm3
	vmulps	%ymm0, %ymm3, %ymm3
	vmulps	%ymm0, %ymm2, %ymm2
	vsubps	%ymm2, %ymm1, %ymm2
	vmulps	%ymm0, %ymm2, %ymm2
	vsubps	%ymm2, %ymm1, %ymm2
	vmulps	%ymm0, %ymm2, %ymm2
	vsubps	%ymm2, %ymm1, %ymm2
	vmulps	%ymm0, %ymm2, %ymm2
	vsubps	%ymm3, %ymm1, %ymm3
	vmulps	%ymm0, %ymm3, %ymm3
	vsubps	%ymm3, %ymm1, %ymm3
	vmulps	%ymm0, %ymm3, %ymm3
	vsubps	%ymm3, %ymm1, %ymm3
	vmulps	%ymm0, %ymm3, %ymm3
	vsubps	%ymm3, %ymm1, %ymm3
	vsubps	%ymm2, %ymm1, %ymm2
	vmulps	%ymm0, %ymm2, %ymm2
	vsubps	%ymm2, %ymm1, %ymm2
	vmulps	%ymm0, %ymm2, %ymm2
	vsubps	%ymm2, %ymm1, %ymm2
	vmulps	%ymm0, %ymm2, %ymm2
	vsubps	%ymm2, %ymm1, %ymm2
	vmulps	%ymm0, %ymm3, %ymm3
	vsubps	%ymm3, %ymm1, %ymm3
	vmulps	%ymm0, %ymm3, %ymm3
	vsubps	%ymm3, %ymm1, %ymm3
	vmulps	%ymm0, %ymm3, %ymm3
	vsubps	%ymm3, %ymm1, %ymm3
	vmulps	%ymm0, %ymm3, %ymm3
	vmulps	%ymm0, %ymm2, %ymm2
	vsubps	%ymm2, %ymm1, %ymm2
	vmulps	%ymm0, %ymm2, %ymm2
	vsubps	%ymm2, %ymm1, %ymm2
	vmulps	%ymm0, %ymm2, %ymm2
	vsubps	%ymm2, %ymm1, %ymm2
	vmulps	%ymm0, %ymm2, %ymm2
	vsubps	%ymm3, %ymm1, %ymm3
	vmulps	%ymm0, %ymm3, %ymm3
	vsubps	%ymm3, %ymm1, %ymm3
	vmulps	%ymm0, %ymm3, %ymm3
	vsubps	%ymm3, %ymm1, %ymm3
	vmulps	%ymm0, %ymm3, %ymm3
	vsubps	%ymm3, %ymm1, %ymm3
	vsubps	%ymm2, %ymm1, %ymm2
	vmulps	%ymm0, %ymm2, %ymm2
	vsubps	%ymm2, %ymm1, %ymm2
	vmulps	%ymm0, %ymm2, %ymm2
	vsubps	%ymm2, %ymm1, %ymm2
	vmulps	%ymm0, %ymm2, %ymm2
	vsubps	%ymm2, %ymm1, %ymm2
	vmulps	%ymm0, %ymm3, %ymm3
	vsubps	%ymm3, %ymm1, %ymm3
	vmulps	%ymm0, %ymm3, %ymm3
	vsubps	%ymm3, %ymm1, %ymm3
	vmulps	%ymm0, %ymm3, %ymm3
	vsubps	%ymm3, %ymm1, %ymm3
	vmulps	%ymm0, %ymm3, %ymm3
	vmulps	%ymm0, %ymm2, %ymm2
	vsubps	%ymm2, %ymm1, %ymm2
	vmulps	%ymm0, %ymm2, %ymm2
	vsubps	%ymm2, %ymm1, %ymm2
	vmulps	%ymm0, %ymm2, %ymm2
	vsubps	%ymm2, %ymm1, %ymm2
	vmulps	%ymm0, %ymm2, %ymm2
	vsubps	%ymm3, %ymm1, %ymm3
	vmulps	%ymm0, %ymm3, %ymm3
	vsubps	%ymm3, %ymm1, %ymm3
	vmulps	%ymm0, %ymm3, %ymm3
	vsubps	%ymm3, %ymm1, %ymm3
	vmulps	%ymm0, %ymm3, %ymm3
	vsubps	%ymm3, %ymm1, %ymm3
	vsubps	%ymm2, %ymm1, %ymm2
	vmulps	%ymm0, %ymm2, %ymm2
	vsubps	%ymm2, %ymm1, %ymm2
	vmulps	%ymm0, %ymm2, %ymm2
	vsubps	%ymm2, %ymm1, %ymm2
	vmulps	%ymm0, %ymm2, %ymm2
	vsubps	%ymm2, %ymm1, %ymm2
	vmulps	%ymm0, %ymm3, %ymm3
	vsubps	%ymm3, %ymm1, %ymm3
	vmulps	%ymm0, %ymm3, %ymm3
	vsubps	%ymm3, %ymm1, %ymm3
	vmulps	%ymm0, %ymm3, %ymm3
	vsubps	%ymm3, %ymm1, %ymm3
	vmulps	%ymm0, %ymm3, %ymm3
	vmulps	%ymm0, %ymm2, %ymm2
	vsubps	%ymm2, %ymm1, %ymm2
	vmulps	%ymm0, %ymm2, %ymm2
	vsubps	%ymm2, %ymm1, %ymm2
	vmulps	%ymm0, %ymm2, %ymm2
	vsubps	%ymm2, %ymm1, %ymm2
	vmulps	%ymm0, %ymm2, %ymm2
	vsubps	%ymm3, %ymm1, %ymm3
	vmulps	%ymm0, %ymm3, %ymm3
	vsubps	%ymm3, %ymm1, %ymm3
	vmulps	%ymm0, %ymm3, %ymm3
	vsubps	%ymm3, %ymm1, %ymm3
	vmulps	%ymm0, %ymm3, %ymm3
	vsubps	%ymm3, %ymm1, %ymm3
	vsubps	%ymm2, %ymm1, %ymm2
	vmulps	%ymm0, %ymm2, %ymm2
	vsubps	%ymm2, %ymm1, %ymm2
	vmulps	%ymm0, %ymm2, %ymm2
	vsubps	%ymm2, %ymm1, %ymm2
	vmulps	%ymm0, %ymm2, %ymm2
	vsubps	%ymm2, %ymm1, %ymm2
	vmulps	%ymm0, %ymm3, %ymm3
	vsubps	%ymm3, %ymm1, %ymm3
	vmulps	%ymm0, %ymm3, %ymm3
	vsubps	%ymm3, %ymm1, %ymm3
	vmulps	%ymm0, %ymm3, %ymm3
	vsubps	%ymm3, %ymm1, %ymm3
	vmulps	%ymm0, %ymm3, %ymm3
	vmulps	%ymm0, %ymm2, %ymm2
	vsubps	%ymm2, %ymm1, %ymm2
	vmulps	%ymm0, %ymm2, %ymm2
	vsubps	%ymm2, %ymm1, %ymm2
	vmulps	%ymm0, %ymm2, %ymm2
	vsubps	%ymm2, %ymm1, %ymm2
	vmulps	%ymm0, %ymm2, %ymm2
	vsubps	%ymm3, %ymm1, %ymm3
	vmulps	%ymm0, %ymm3, %ymm3
	vsubps	%ymm3, %ymm1, %ymm3
	vmulps	%ymm0, %ymm3, %ymm3
	vsubps	%ymm3, %ymm1, %ymm3
	vmulps	%ymm0, %ymm3, %ymm3
	vsubps	%ymm3, %ymm1, %ymm3
	vsubps	%ymm2, %ymm1, %ymm2
	vmulps	%ymm0, %ymm2, %ymm2
	vsubps	%ymm2, %ymm1, %ymm2
	vmulps	%ymm0, %ymm2, %ymm2
	vsubps	%ymm2, %ymm1, %ymm2
	vmulps	%ymm0, %ymm2, %ymm2
	vsubps	%ymm2, %ymm1, %ymm2
	vmulps	%ymm0, %ymm3, %ymm3
	vsubps	%ymm3, %ymm1, %ymm3
	vmulps	%ymm0, %ymm3, %ymm3
	vsubps	%ymm3, %ymm1, %ymm3
	vmulps	%ymm0, %ymm3, %ymm3
	vsubps	%ymm3, %ymm1, %ymm3
	vmulps	%ymm0, %ymm3, %ymm3
	vmulps	%ymm0, %ymm2, %ymm2
	vsubps	%ymm2, %ymm1, %ymm2
	vmulps	%ymm0, %ymm2, %ymm2
	vsubps	%ymm2, %ymm1, %ymm2
	vmulps	%ymm0, %ymm2, %ymm2
	vsubps	%ymm2, %ymm1, %ymm2
	vmulps	%ymm0, %ymm2, %ymm2
	vsubps	%ymm3, %ymm1, %ymm3
	vmulps	%ymm0, %ymm3, %ymm3
	vsubps	%ymm3, %ymm1, %ymm3
	vmulps	%ymm0, %ymm3, %ymm3
	vsubps	%ymm3, %ymm1, %ymm3
	vmulps	%ymm0, %ymm3, %ymm3
	vsubps	%ymm3, %ymm1, %ymm3
	vsubps	%ymm2, %ymm1, %ymm2
	vmulps	%ymm0, %ymm2, %ymm2
	vsubps	%ymm2, %ymm1, %ymm2
	vmulps	%ymm0, %ymm2, %ymm2
	vsubps	%ymm2, %ymm1, %ymm2
	vmulps	%ymm0, %ymm2, %ymm2
	vsubps	%ymm2, %ymm1, %ymm2
	vmulps	%ymm0, %ymm3, %ymm3
	vsubps	%ymm3, %ymm1, %ymm3
	vmulps	%ymm0, %ymm3, %ymm3
	vsubps	%ymm3, %ymm1, %ymm3
	vmulps	%ymm0, %ymm3, %ymm3
	vsubps	%ymm3, %ymm1, %ymm3
	vmulps	%ymm0, %ymm3, %ymm3
	vmulps	%ymm0, %ymm2, %ymm2
	vsubps	%ymm2, %ymm1, %ymm2
	vmulps	%ymm0, %ymm2, %ymm2
	vsubps	%ymm2, %ymm1, %ymm2
	vmulps	%ymm0, %ymm2, %ymm2
	vsubps	%ymm2, %ymm1, %ymm2
	vmulps	%ymm0, %ymm2, %ymm2
	vsubps	%ymm3, %ymm1, %ymm3
	vmulps	%ymm0, %ymm3, %ymm3
	vsubps	%ymm3, %ymm1, %ymm3
	vmulps	%ymm0, %ymm3, %ymm3
	vsubps	%ymm3, %ymm1, %ymm3
	vmulps	%ymm0, %ymm3, %ymm3
	vsubps	%ymm3, %ymm1, %ymm3
	vsubps	%ymm2, %ymm1, %ymm2
	vmulps	%ymm0, %ymm2, %ymm2
	vsubps	%ymm2, %ymm1, %ymm2
	vmulps	%ymm0, %ymm2, %ymm2
	vsubps	%ymm2, %ymm1, %ymm2
	vmulps	%ymm0, %ymm2, %ymm2
	vsubps	%ymm2, %ymm1, %ymm2
	vmulps	%ymm0, %ymm3, %ymm3
	vsubps	%ymm3, %ymm1, %ymm3
	vmulps	%ymm0, %ymm3, %ymm3
	vsubps	%ymm3, %ymm1, %ymm3
	vmulps	%ymm0, %ymm3, %ymm3
	vsubps	%ymm3, %ymm1, %ymm3
	vmulps	%ymm0, %ymm3, %ymm3
	vmulps	%ymm0, %ymm2, %ymm2
	vsubps	%ymm2, %ymm1, %ymm2
	vmulps	%ymm0, %ymm2, %ymm2
	vsubps	%ymm2, %ymm1, %ymm2
	vmulps	%ymm0, %ymm2, %ymm2
	vsubps	%ymm2, %ymm1, %ymm2
	vmulps	%ymm0, %ymm2, %ymm2
	vsubps	%ymm3, %ymm1, %ymm3
	vmulps	%ymm0, %ymm3, %ymm3
	vsubps	%ymm3, %ymm1, %ymm3
	vmulps	%ymm0, %ymm3, %ymm3
	vsubps	%ymm3, %ymm1, %ymm3
	vmulps	%ymm0, %ymm3, %ymm3
	vsubps	%ymm3, %ymm1, %ymm3
	vsubps	%ymm2, %ymm1, %ymm2
	vmulps	%ymm0, %ymm2, %ymm2
	vsubps	%ymm2, %ymm1, %ymm2
	vmulps	%ymm0, %ymm2, %ymm2
	vsubps	%ymm2, %ymm1, %ymm2
	vmulps	%ymm0, %ymm2, %ymm2
	vsubps	%ymm2, %ymm1, %ymm2
	vmulps	%ymm0, %ymm3, %ymm3
	vsubps	%ymm3, %ymm1, %ymm3
	vmulps	%ymm0, %ymm3, %ymm3
	vsubps	%ymm3, %ymm1, %ymm3
	vmulps	%ymm0, %ymm3, %ymm3
	vsubps	%ymm3, %ymm1, %ymm3
	vmulps	%ymm0, %ymm3, %ymm3
	vmulps	%ymm0, %ymm2, %ymm2
	vsubps	%ymm2, %ymm1, %ymm2
	vmulps	%ymm0, %ymm2, %ymm2
	vsubps	%ymm2, %ymm1, %ymm2
	vmulps	%ymm0, %ymm2, %ymm2
	vsubps	%ymm2, %ymm1, %ymm2
	vmulps	%ymm0, %ymm2, %ymm2
	vsubps	%ymm3, %ymm1, %ymm3
	vmulps	%ymm0, %ymm3, %ymm3
	vsubps	%ymm3, %ymm1, %ymm3
	vmulps	%ymm0, %ymm3, %ymm3
	vsubps	%ymm3, %ymm1, %ymm3
	vmulps	%ymm0, %ymm3, %ymm3
	vsubps	%ymm3, %ymm1, %ymm3
	vsubps	%ymm2, %ymm1, %ymm2
	vmulps	%ymm0, %ymm2, %ymm2
	vsubps	%ymm2, %ymm1, %ymm2
	vmulps	%ymm0, %ymm2, %ymm2
	vsubps	%ymm2, %ymm1, %ymm2
	vmulps	%ymm0, %ymm2, %ymm2
	vsubps	%ymm2, %ymm1, %ymm2
	vmulps	%ymm0, %ymm3, %ymm3
	vsubps	%ymm3, %ymm1, %ymm3
	vmulps	%ymm0, %ymm3, %ymm3
	vsubps	%ymm3, %ymm1, %ymm3
	vmulps	%ymm0, %ymm3, %ymm3
	vsubps	%ymm3, %ymm1, %ymm3
	vmulps	%ymm0, %ymm3, %ymm3
	vmulps	%ymm0, %ymm2, %ymm2
	vsubps	%ymm2, %ymm1, %ymm2
	vmulps	%ymm0, %ymm2, %ymm2
	vsubps	%ymm2, %ymm1, %ymm2
	vmulps	%ymm0, %ymm2, %ymm2
	vsubps	%ymm2, %ymm1, %ymm2
	vmulps	%ymm0, %ymm2, %ymm2
	vsubps	%ymm3, %ymm1, %ymm3
	vmulps	%ymm0, %ymm3, %ymm3
	vsubps	%ymm3, %ymm1, %ymm3
	vmulps	%ymm0, %ymm3, %ymm3
	vsubps	%ymm3, %ymm1, %ymm3
	vmulps	%ymm0, %ymm3, %ymm3
	vsubps	%ymm3, %ymm1, %ymm3
	vsubps	%ymm2, %ymm1, %ymm2
	vmulps	%ymm0, %ymm2, %ymm2
	vsubps	%ymm2, %ymm1, %ymm2
	vmulps	%ymm0, %ymm2, %ymm2
	vsubps	%ymm2, %ymm1, %ymm2
	vmulps	%ymm0, %ymm2, %ymm2
	vsubps	%ymm2, %ymm1, %ymm2
	jne	.LBB0_3
.LBB0_4:                                # %._crit_edge.i
                                        #   in Loop: Header=BB0_2 Depth=2
	vmovups	%ymm3, (%rdi,%rsi,4)
	vmovups	%ymm2, 32(%rdi,%rsi,4)
	incq	%rdx
	incq	%rcx
	cmpq	%r15, %rcx
	jne	.LBB0_2
# BB#5:                                 # %dim_0_exit.i
                                        #   in Loop: Header=BB0_1 Depth=1
	incq	%r14
	incq	%r10
	cmpq	%r11, %r10
	jne	.LBB0_1
# BB#6:                                 # %__flops_16_separated_args.exit
	popq	%rbx
	popq	%r12
	popq	%r13
	popq	%r14
	popq	%r15
	popq	%rbp
	vzeroupper
	ret
.Ltmp12:
	.size	flops_16, .Ltmp12-flops_16
.Ltmp13:
	.cfi_endproc
.Leh_func_end0:


	.section	".note.GNU-stack","",@progbits
