	.file	"/tmp/57fe29ed-65c6-4617-8c21-84f2a5bdfef2.TMP"
	.section	.rodata,"a",@progbits
	.align	32
.LCPI0_0:
	.quad	4                       # 0x4
	.quad	5                       # 0x5
	.quad	6                       # 0x6
	.quad	7                       # 0x7
.LCPI0_1:
	.quad	0                       # 0x0
	.quad	1                       # 0x1
	.quad	2                       # 0x2
	.quad	3                       # 0x3
	.text
	.globl	flops_2
	.align	16, 0x90
	.type	flops_2,@function
flops_2:                                # @flops_2
.Ltmp3:
	.cfi_startproc
# BB#0:                                 # %entry
	pushq	%rbp
.Ltmp4:
	.cfi_def_cfa_offset 16
.Ltmp5:
	.cfi_offset %rbp, -16
	movq	%rsp, %rbp
.Ltmp6:
	.cfi_def_cfa_register %rbp
	andq	$-32, %rsp
	pushq	%r15
	pushq	%r14
	pushq	%r13
	pushq	%r12
	pushq	%rbx
	subq	$280, %rsp              # imm = 0x118
.Ltmp7:
	.cfi_offset %rbx, -56
.Ltmp8:
	.cfi_offset %r12, -48
.Ltmp9:
	.cfi_offset %r13, -40
.Ltmp10:
	.cfi_offset %r14, -32
.Ltmp11:
	.cfi_offset %r15, -24
	vmovss	28(%rdi), %xmm0
	vmovaps	%ymm0, 32(%rsp)         # 32-byte Spill
	movq	48(%rdi), %rax
	vmovss	24(%rdi), %xmm0
	vmovdqa	%ymm0, 64(%rsp)         # 32-byte Spill
	movl	20(%rdi), %r12d
	movl	16(%rdi), %ecx
	movl	%ecx, 188(%rsp)         # 4-byte Spill
	movq	(%rdi), %rdx
	movq	8(%rdi), %rsi
	movq	(%rax), %rcx
	movq	%rcx, 120(%rsp)         # 8-byte Spill
	movq	8(%rax), %rax
	movq	%rax, 112(%rsp)         # 8-byte Spill
	movq	32(%rdi), %rax
	movq	56(%rax), %r13
	movq	%r13, 24(%rsp)          # 8-byte Spill
	movq	64(%rax), %rax
	movq	%rax, 176(%rsp)         # 8-byte Spill
	sarq	$3, %r13
	testq	%r13, %r13
	je	.LBB0_7
# BB#1:                                 # %dim_1_vector_pre_head.i
	vmovdqa	.LCPI0_0(%rip), %ymm1
	vmovq	120(%rsp), %xmm0        # 8-byte Folded Reload
	vmovlhps	%xmm0, %xmm0, %xmm0 # xmm0 = xmm0[0,0]
	vpaddq	%xmm1, %xmm0, %xmm2
	vextractf128	$1, %ymm1, %xmm1
	vpaddq	%xmm2, %xmm2, %xmm2
	vpaddq	%xmm1, %xmm0, %xmm1
	vpaddq	%xmm1, %xmm1, %xmm3
	vmovaps	.LCPI0_1(%rip), %ymm1
	vextractf128	$1, %ymm1, %xmm4
	vpaddq	%xmm4, %xmm0, %xmm4
	vpaddq	%xmm4, %xmm4, %xmm4
	vpshufd	$8, %xmm3, %xmm3        # xmm3 = xmm3[0,2,0,0]
	vpshufd	$8, %xmm2, %xmm5        # xmm5 = xmm2[0,2,0,0]
	vmovaps	32(%rsp), %ymm2         # 32-byte Reload
	vinsertf128	$1, %xmm2, %ymm2, %ymm2
	vmovlhps	%xmm3, %xmm5, %xmm3 # xmm3 = xmm5[0],xmm3[0]
	vpshufd	$8, %xmm4, %xmm4        # xmm4 = xmm4[0,2,0,0]
	vpaddq	%xmm1, %xmm0, %xmm0
	vpaddq	%xmm0, %xmm0, %xmm0
	vpshufd	$8, %xmm0, %xmm0        # xmm0 = xmm0[0,2,0,0]
	vmovlhps	%xmm4, %xmm0, %xmm0 # xmm0 = xmm0[0],xmm4[0]
	vinsertf128	$1, %xmm3, %ymm0, %ymm0
	vmovaps	%ymm0, 128(%rsp)        # 32-byte Spill
	vpermilps	$0, %ymm2, %ymm3 # ymm3 = ymm2[0,0,0,0,4,4,4,4]
	vmovaps	64(%rsp), %ymm0         # 32-byte Reload
	vinsertf128	$1, %xmm0, %ymm0, %ymm0
	vpermilps	$0, %ymm0, %ymm4 # ymm4 = ymm0[0,0,0,0,4,4,4,4]
	xorl	%eax, %eax
	movq	112(%rsp), %rcx         # 8-byte Reload
	.align	16, 0x90
.LBB0_2:                                # %dim_0_vector_pre_head.i
                                        # =>This Loop Header: Depth=1
                                        #     Child Loop BB0_3 Depth 2
                                        #       Child Loop BB0_4 Depth 3
	movq	%rcx, 160(%rsp)         # 8-byte Spill
	movq	%rax, 168(%rsp)         # 8-byte Spill
	movl	%ecx, %eax
	imull	188(%rsp), %eax         # 4-byte Folded Reload
	vmovd	%eax, %xmm0
	vinsertf128	$1, %xmm0, %ymm0, %ymm0
	vpermilps	$0, %ymm0, %ymm0 # ymm0 = ymm0[0,0,0,0,4,4,4,4]
	vmovaps	128(%rsp), %ymm1        # 32-byte Reload
	vextractf128	$1, %ymm1, %xmm2
	vextractf128	$1, %ymm0, %xmm5
	vpaddd	%xmm1, %xmm0, %xmm1
	vpmovsxdq	%xmm1, %xmm0
	vmovd	%xmm0, %rcx
	vpextrq	$1, %xmm0, %rax
	subq	%rcx, %rax
	shlq	$3, %rax
	vmovd	%rax, %xmm6
	vmovlhps	%xmm6, %xmm6, %xmm6 # xmm6 = xmm6[0,0]
	vpaddd	%xmm2, %xmm5, %xmm5
	vpmovsxdq	%xmm5, %xmm2
	vmovhlps	%xmm5, %xmm5, %xmm5 # xmm5 = xmm5[1,1]
	vpmovsxdq	%xmm5, %xmm5
	vinsertf128	$1, %xmm6, %ymm6, %ymm6
	vmovaps	%ymm6, 192(%rsp)        # 32-byte Spill
	vinsertf128	$1, %xmm5, %ymm2, %ymm8
	vmovhlps	%xmm1, %xmm1, %xmm1 # xmm1 = xmm1[1,1]
	vpmovsxdq	%xmm1, %xmm1
	vinsertf128	$1, %xmm1, %ymm0, %ymm9
	xorl	%ebx, %ebx
	.align	16, 0x90
.LBB0_3:                                #   Parent Loop BB0_2 Depth=1
                                        # =>  This Loop Header: Depth=2
                                        #       Child Loop BB0_4 Depth 3
	vpextrq	$1, %xmm9, %r14
	vmovq	(%rdx,%r14,4), %xmm11
	vmovd	%xmm9, %r15
	vmovq	(%rdx,%r15,4), %xmm13
	vextractf128	$1, %ymm9, %xmm1
	vmovaps	%xmm1, 224(%rsp)        # 16-byte Spill
	vmovd	%xmm1, %r10
	vinsertps	$16, %xmm11, %xmm13, %xmm5 # xmm5 = xmm13[0],xmm11[0],xmm13[2,3]
	vmovq	(%rdx,%r10,4), %xmm15
	vpextrq	$1, %xmm8, %rcx
	vmovq	(%rdx,%rcx,4), %xmm7
	vmovd	%xmm8, %r9
	vmovq	(%rdx,%r9,4), %xmm2
	vinsertps	$16, %xmm7, %xmm2, %xmm6 # xmm6 = xmm2[0],xmm7[0],xmm2[2,3]
	vinsertps	$32, %xmm15, %xmm5, %xmm0 # xmm0 = xmm5[0,1],xmm15[0],xmm5[3]
	vpextrq	$1, %xmm1, %r11
	vmovq	(%rdx,%r11,4), %xmm5
	vextractf128	$1, %ymm8, %xmm14
	vmovaps	%xmm14, 240(%rsp)       # 16-byte Spill
	vmovd	%xmm14, %rdi
	vinsertps	$48, %xmm5, %xmm0, %xmm10 # xmm10 = xmm0[0,1,2],xmm5[0]
	vmovq	(%rdx,%rdi,4), %xmm12
	vinsertps	$32, %xmm12, %xmm6, %xmm6 # xmm6 = xmm6[0,1],xmm12[0],xmm6[3]
	vpermilps	$1, %xmm7, %xmm0 # xmm0 = xmm7[1,0,0,0]
	vpermilps	$1, %xmm2, %xmm2 # xmm2 = xmm2[1,0,0,0]
	vinsertps	$16, %xmm0, %xmm2, %xmm0 # xmm0 = xmm2[0],xmm0[0],xmm2[2,3]
	vpextrq	$1, %xmm14, %r8
	vmovq	(%rdx,%r8,4), %xmm7
	vpermilps	$1, %xmm12, %xmm2 # xmm2 = xmm12[1,0,0,0]
	vinsertps	$32, %xmm2, %xmm0, %xmm2 # xmm2 = xmm0[0,1],xmm2[0],xmm0[3]
	vinsertps	$48, %xmm7, %xmm6, %xmm0 # xmm0 = xmm6[0,1,2],xmm7[0]
	vpermilps	$1, %xmm7, %xmm6 # xmm6 = xmm7[1,0,0,0]
	testl	%r12d, %r12d
	vinsertf128	$1, %xmm0, %ymm10, %ymm10
	vinsertps	$48, %xmm6, %xmm2, %xmm2 # xmm2 = xmm2[0,1,2],xmm6[0]
	vpermilps	$1, %xmm11, %xmm0 # xmm0 = xmm11[1,0,0,0]
	vpermilps	$1, %xmm13, %xmm6 # xmm6 = xmm13[1,0,0,0]
	vinsertps	$16, %xmm0, %xmm6, %xmm0 # xmm0 = xmm6[0],xmm0[0],xmm6[2,3]
	vpermilps	$1, %xmm15, %xmm1 # xmm1 = xmm15[1,0,0,0]
	vinsertps	$32, %xmm1, %xmm0, %xmm0 # xmm0 = xmm0[0,1],xmm1[0],xmm0[3]
	vpermilps	$1, %xmm5, %xmm1 # xmm1 = xmm5[1,0,0,0]
	vinsertps	$48, %xmm1, %xmm0, %xmm0 # xmm0 = xmm0[0,1,2],xmm1[0]
	vinsertf128	$1, %xmm2, %ymm0, %ymm11
	movl	%r12d, %eax
	jle	.LBB0_5
	.align	16, 0x90
.LBB0_4:                                # %.lr.phvector_func.i
                                        #   Parent Loop BB0_2 Depth=1
                                        #     Parent Loop BB0_3 Depth=2
                                        # =>    This Inner Loop Header: Depth=3
	vmulps	%ymm3, %ymm11, %ymm0
	vaddps	%ymm0, %ymm4, %ymm0
	vmulps	%ymm3, %ymm0, %ymm0
	vaddps	%ymm0, %ymm4, %ymm0
	vmulps	%ymm3, %ymm0, %ymm0
	vaddps	%ymm0, %ymm4, %ymm1
	vmulps	%ymm3, %ymm10, %ymm0
	vaddps	%ymm0, %ymm4, %ymm0
	vmulps	%ymm3, %ymm0, %ymm0
	vaddps	%ymm0, %ymm4, %ymm0
	vmulps	%ymm3, %ymm0, %ymm0
	vmulps	%ymm3, %ymm1, %ymm1
	decl	%eax
	vaddps	%ymm1, %ymm4, %ymm1
	vmulps	%ymm3, %ymm1, %ymm1
	vaddps	%ymm1, %ymm4, %ymm1
	vmulps	%ymm3, %ymm1, %ymm1
	vaddps	%ymm1, %ymm4, %ymm1
	vaddps	%ymm0, %ymm4, %ymm0
	vmulps	%ymm3, %ymm0, %ymm0
	vaddps	%ymm0, %ymm4, %ymm0
	vmulps	%ymm3, %ymm0, %ymm0
	vaddps	%ymm0, %ymm4, %ymm0
	vmulps	%ymm3, %ymm0, %ymm0
	vaddps	%ymm0, %ymm4, %ymm0
	vmulps	%ymm3, %ymm1, %ymm1
	vaddps	%ymm1, %ymm4, %ymm1
	vmulps	%ymm3, %ymm1, %ymm1
	vaddps	%ymm1, %ymm4, %ymm1
	vmulps	%ymm3, %ymm1, %ymm1
	vaddps	%ymm1, %ymm4, %ymm1
	vmulps	%ymm3, %ymm1, %ymm1
	vmulps	%ymm3, %ymm0, %ymm0
	vaddps	%ymm0, %ymm4, %ymm0
	vmulps	%ymm3, %ymm0, %ymm0
	vaddps	%ymm0, %ymm4, %ymm0
	vmulps	%ymm3, %ymm0, %ymm0
	vaddps	%ymm0, %ymm4, %ymm0
	vmulps	%ymm3, %ymm0, %ymm0
	vaddps	%ymm1, %ymm4, %ymm1
	vmulps	%ymm3, %ymm1, %ymm1
	vaddps	%ymm1, %ymm4, %ymm1
	vmulps	%ymm3, %ymm1, %ymm1
	vaddps	%ymm1, %ymm4, %ymm1
	vmulps	%ymm3, %ymm1, %ymm1
	vaddps	%ymm1, %ymm4, %ymm1
	vaddps	%ymm0, %ymm4, %ymm0
	vmulps	%ymm3, %ymm0, %ymm0
	vaddps	%ymm0, %ymm4, %ymm0
	vmulps	%ymm3, %ymm0, %ymm0
	vaddps	%ymm0, %ymm4, %ymm0
	vmulps	%ymm3, %ymm0, %ymm0
	vaddps	%ymm0, %ymm4, %ymm0
	vmulps	%ymm3, %ymm1, %ymm1
	vaddps	%ymm1, %ymm4, %ymm1
	vmulps	%ymm3, %ymm1, %ymm1
	vaddps	%ymm1, %ymm4, %ymm1
	vmulps	%ymm3, %ymm1, %ymm1
	vaddps	%ymm1, %ymm4, %ymm1
	vmulps	%ymm3, %ymm1, %ymm1
	vmulps	%ymm3, %ymm0, %ymm0
	vaddps	%ymm0, %ymm4, %ymm0
	vmulps	%ymm3, %ymm0, %ymm0
	vaddps	%ymm0, %ymm4, %ymm0
	vmulps	%ymm3, %ymm0, %ymm0
	vaddps	%ymm0, %ymm4, %ymm0
	vmulps	%ymm3, %ymm0, %ymm0
	vaddps	%ymm1, %ymm4, %ymm1
	vmulps	%ymm3, %ymm1, %ymm1
	vaddps	%ymm1, %ymm4, %ymm1
	vmulps	%ymm3, %ymm1, %ymm1
	vaddps	%ymm1, %ymm4, %ymm1
	vmulps	%ymm3, %ymm1, %ymm1
	vaddps	%ymm1, %ymm4, %ymm1
	vaddps	%ymm0, %ymm4, %ymm0
	vmulps	%ymm3, %ymm0, %ymm0
	vaddps	%ymm0, %ymm4, %ymm0
	vmulps	%ymm3, %ymm0, %ymm0
	vaddps	%ymm0, %ymm4, %ymm0
	vmulps	%ymm3, %ymm0, %ymm0
	vaddps	%ymm0, %ymm4, %ymm0
	vmulps	%ymm3, %ymm1, %ymm1
	vaddps	%ymm1, %ymm4, %ymm1
	vmulps	%ymm3, %ymm1, %ymm1
	vaddps	%ymm1, %ymm4, %ymm1
	vmulps	%ymm3, %ymm1, %ymm1
	vaddps	%ymm1, %ymm4, %ymm1
	vmulps	%ymm3, %ymm1, %ymm1
	vmulps	%ymm3, %ymm0, %ymm0
	vaddps	%ymm0, %ymm4, %ymm0
	vmulps	%ymm3, %ymm0, %ymm0
	vaddps	%ymm0, %ymm4, %ymm0
	vmulps	%ymm3, %ymm0, %ymm0
	vaddps	%ymm0, %ymm4, %ymm0
	vmulps	%ymm3, %ymm0, %ymm0
	vaddps	%ymm1, %ymm4, %ymm1
	vmulps	%ymm3, %ymm1, %ymm1
	vaddps	%ymm1, %ymm4, %ymm1
	vmulps	%ymm3, %ymm1, %ymm1
	vaddps	%ymm1, %ymm4, %ymm1
	vmulps	%ymm3, %ymm1, %ymm1
	vaddps	%ymm1, %ymm4, %ymm1
	vaddps	%ymm0, %ymm4, %ymm0
	vmulps	%ymm3, %ymm0, %ymm0
	vaddps	%ymm0, %ymm4, %ymm0
	vmulps	%ymm3, %ymm0, %ymm0
	vaddps	%ymm0, %ymm4, %ymm0
	vmulps	%ymm3, %ymm0, %ymm0
	vaddps	%ymm0, %ymm4, %ymm0
	vmulps	%ymm3, %ymm1, %ymm1
	vaddps	%ymm1, %ymm4, %ymm1
	vmulps	%ymm3, %ymm1, %ymm1
	vaddps	%ymm1, %ymm4, %ymm1
	vmulps	%ymm3, %ymm1, %ymm1
	vaddps	%ymm1, %ymm4, %ymm1
	vmulps	%ymm3, %ymm1, %ymm1
	vmulps	%ymm3, %ymm0, %ymm0
	vaddps	%ymm0, %ymm4, %ymm0
	vmulps	%ymm3, %ymm0, %ymm0
	vaddps	%ymm0, %ymm4, %ymm0
	vmulps	%ymm3, %ymm0, %ymm0
	vaddps	%ymm0, %ymm4, %ymm0
	vmulps	%ymm3, %ymm0, %ymm0
	vaddps	%ymm1, %ymm4, %ymm1
	vmulps	%ymm3, %ymm1, %ymm1
	vaddps	%ymm1, %ymm4, %ymm1
	vmulps	%ymm3, %ymm1, %ymm1
	vaddps	%ymm1, %ymm4, %ymm1
	vmulps	%ymm3, %ymm1, %ymm1
	vaddps	%ymm1, %ymm4, %ymm1
	vaddps	%ymm0, %ymm4, %ymm0
	vmulps	%ymm3, %ymm0, %ymm0
	vaddps	%ymm0, %ymm4, %ymm0
	vmulps	%ymm3, %ymm0, %ymm0
	vaddps	%ymm0, %ymm4, %ymm0
	vmulps	%ymm3, %ymm0, %ymm0
	vaddps	%ymm0, %ymm4, %ymm0
	vmulps	%ymm3, %ymm1, %ymm1
	vaddps	%ymm1, %ymm4, %ymm1
	vmulps	%ymm3, %ymm1, %ymm1
	vaddps	%ymm1, %ymm4, %ymm1
	vmulps	%ymm3, %ymm1, %ymm1
	vaddps	%ymm1, %ymm4, %ymm1
	vmulps	%ymm3, %ymm1, %ymm1
	vmulps	%ymm3, %ymm0, %ymm0
	vaddps	%ymm0, %ymm4, %ymm0
	vmulps	%ymm3, %ymm0, %ymm0
	vaddps	%ymm0, %ymm4, %ymm0
	vmulps	%ymm3, %ymm0, %ymm0
	vaddps	%ymm0, %ymm4, %ymm0
	vmulps	%ymm3, %ymm0, %ymm0
	vaddps	%ymm1, %ymm4, %ymm1
	vmulps	%ymm3, %ymm1, %ymm1
	vaddps	%ymm1, %ymm4, %ymm1
	vmulps	%ymm3, %ymm1, %ymm1
	vaddps	%ymm1, %ymm4, %ymm1
	vmulps	%ymm3, %ymm1, %ymm1
	vaddps	%ymm1, %ymm4, %ymm1
	vaddps	%ymm0, %ymm4, %ymm0
	vmulps	%ymm3, %ymm0, %ymm0
	vaddps	%ymm0, %ymm4, %ymm0
	vmulps	%ymm3, %ymm0, %ymm0
	vaddps	%ymm0, %ymm4, %ymm0
	vmulps	%ymm3, %ymm0, %ymm0
	vaddps	%ymm0, %ymm4, %ymm0
	vmulps	%ymm3, %ymm1, %ymm1
	vaddps	%ymm1, %ymm4, %ymm1
	vmulps	%ymm3, %ymm1, %ymm1
	vaddps	%ymm1, %ymm4, %ymm1
	vmulps	%ymm3, %ymm1, %ymm1
	vaddps	%ymm1, %ymm4, %ymm1
	vmulps	%ymm3, %ymm1, %ymm1
	vmulps	%ymm3, %ymm0, %ymm0
	vaddps	%ymm0, %ymm4, %ymm0
	vmulps	%ymm3, %ymm0, %ymm0
	vaddps	%ymm0, %ymm4, %ymm0
	vmulps	%ymm3, %ymm0, %ymm0
	vaddps	%ymm0, %ymm4, %ymm0
	vmulps	%ymm3, %ymm0, %ymm0
	vaddps	%ymm1, %ymm4, %ymm1
	vmulps	%ymm3, %ymm1, %ymm1
	vaddps	%ymm1, %ymm4, %ymm1
	vmulps	%ymm3, %ymm1, %ymm1
	vaddps	%ymm1, %ymm4, %ymm1
	vmulps	%ymm3, %ymm1, %ymm1
	vaddps	%ymm1, %ymm4, %ymm1
	vaddps	%ymm0, %ymm4, %ymm0
	vmulps	%ymm3, %ymm0, %ymm0
	vaddps	%ymm0, %ymm4, %ymm0
	vmulps	%ymm3, %ymm0, %ymm0
	vaddps	%ymm0, %ymm4, %ymm0
	vmulps	%ymm3, %ymm0, %ymm0
	vaddps	%ymm0, %ymm4, %ymm0
	vmulps	%ymm3, %ymm1, %ymm1
	vaddps	%ymm1, %ymm4, %ymm1
	vmulps	%ymm3, %ymm1, %ymm1
	vaddps	%ymm1, %ymm4, %ymm1
	vmulps	%ymm3, %ymm1, %ymm1
	vaddps	%ymm1, %ymm4, %ymm1
	vmulps	%ymm3, %ymm1, %ymm1
	vmulps	%ymm3, %ymm0, %ymm0
	vaddps	%ymm0, %ymm4, %ymm0
	vmulps	%ymm3, %ymm0, %ymm0
	vaddps	%ymm0, %ymm4, %ymm0
	vmulps	%ymm3, %ymm0, %ymm0
	vaddps	%ymm0, %ymm4, %ymm0
	vmulps	%ymm3, %ymm0, %ymm0
	vaddps	%ymm1, %ymm4, %ymm1
	vmulps	%ymm3, %ymm1, %ymm1
	vaddps	%ymm1, %ymm4, %ymm1
	vmulps	%ymm3, %ymm1, %ymm1
	vaddps	%ymm1, %ymm4, %ymm1
	vmulps	%ymm3, %ymm1, %ymm1
	vaddps	%ymm1, %ymm4, %ymm1
	vaddps	%ymm0, %ymm4, %ymm0
	vmulps	%ymm3, %ymm0, %ymm0
	vaddps	%ymm0, %ymm4, %ymm0
	vmulps	%ymm3, %ymm0, %ymm0
	vaddps	%ymm0, %ymm4, %ymm0
	vmulps	%ymm3, %ymm0, %ymm0
	vaddps	%ymm0, %ymm4, %ymm0
	vmulps	%ymm3, %ymm1, %ymm1
	vaddps	%ymm1, %ymm4, %ymm1
	vmulps	%ymm3, %ymm1, %ymm1
	vaddps	%ymm1, %ymm4, %ymm1
	vmulps	%ymm3, %ymm1, %ymm1
	vaddps	%ymm1, %ymm4, %ymm1
	vmulps	%ymm3, %ymm1, %ymm1
	vmulps	%ymm3, %ymm0, %ymm0
	vaddps	%ymm0, %ymm4, %ymm0
	vmulps	%ymm3, %ymm0, %ymm0
	vaddps	%ymm0, %ymm4, %ymm0
	vmulps	%ymm3, %ymm0, %ymm0
	vaddps	%ymm0, %ymm4, %ymm0
	vmulps	%ymm3, %ymm0, %ymm0
	vaddps	%ymm1, %ymm4, %ymm1
	vmulps	%ymm3, %ymm1, %ymm1
	vaddps	%ymm1, %ymm4, %ymm1
	vmulps	%ymm3, %ymm1, %ymm1
	vaddps	%ymm1, %ymm4, %ymm1
	vmulps	%ymm3, %ymm1, %ymm1
	vaddps	%ymm1, %ymm4, %ymm1
	vaddps	%ymm0, %ymm4, %ymm0
	vmulps	%ymm3, %ymm0, %ymm0
	vaddps	%ymm0, %ymm4, %ymm0
	vmulps	%ymm3, %ymm0, %ymm0
	vaddps	%ymm0, %ymm4, %ymm0
	vmulps	%ymm3, %ymm0, %ymm0
	vaddps	%ymm0, %ymm4, %ymm0
	vmulps	%ymm3, %ymm1, %ymm1
	vaddps	%ymm1, %ymm4, %ymm1
	vmulps	%ymm3, %ymm1, %ymm1
	vaddps	%ymm1, %ymm4, %ymm1
	vmulps	%ymm3, %ymm1, %ymm1
	vaddps	%ymm1, %ymm4, %ymm1
	vmulps	%ymm3, %ymm1, %ymm1
	vmulps	%ymm3, %ymm0, %ymm0
	vaddps	%ymm0, %ymm4, %ymm0
	vmulps	%ymm3, %ymm0, %ymm0
	vaddps	%ymm0, %ymm4, %ymm0
	vmulps	%ymm3, %ymm0, %ymm0
	vaddps	%ymm0, %ymm4, %ymm0
	vmulps	%ymm3, %ymm0, %ymm0
	vaddps	%ymm1, %ymm4, %ymm1
	vmulps	%ymm3, %ymm1, %ymm1
	vaddps	%ymm1, %ymm4, %ymm1
	vmulps	%ymm3, %ymm1, %ymm1
	vaddps	%ymm1, %ymm4, %ymm1
	vmulps	%ymm3, %ymm1, %ymm1
	vaddps	%ymm1, %ymm4, %ymm1
	vaddps	%ymm0, %ymm4, %ymm0
	vmulps	%ymm3, %ymm0, %ymm0
	vaddps	%ymm0, %ymm4, %ymm0
	vmulps	%ymm3, %ymm0, %ymm0
	vaddps	%ymm0, %ymm4, %ymm0
	vmulps	%ymm3, %ymm0, %ymm0
	vaddps	%ymm0, %ymm4, %ymm0
	vmulps	%ymm3, %ymm1, %ymm1
	vaddps	%ymm1, %ymm4, %ymm1
	vmulps	%ymm3, %ymm1, %ymm1
	vaddps	%ymm1, %ymm4, %ymm1
	vmulps	%ymm3, %ymm1, %ymm1
	vaddps	%ymm1, %ymm4, %ymm1
	vmulps	%ymm3, %ymm1, %ymm1
	vmulps	%ymm3, %ymm0, %ymm0
	vaddps	%ymm0, %ymm4, %ymm0
	vmulps	%ymm3, %ymm0, %ymm0
	vaddps	%ymm0, %ymm4, %ymm0
	vmulps	%ymm3, %ymm0, %ymm0
	vaddps	%ymm0, %ymm4, %ymm0
	vmulps	%ymm3, %ymm0, %ymm0
	vaddps	%ymm1, %ymm4, %ymm1
	vmulps	%ymm3, %ymm1, %ymm1
	vaddps	%ymm1, %ymm4, %ymm1
	vmulps	%ymm3, %ymm1, %ymm1
	vaddps	%ymm1, %ymm4, %ymm1
	vmulps	%ymm3, %ymm1, %ymm1
	vaddps	%ymm1, %ymm4, %ymm1
	vaddps	%ymm0, %ymm4, %ymm0
	vmulps	%ymm3, %ymm0, %ymm0
	vaddps	%ymm0, %ymm4, %ymm0
	vmulps	%ymm3, %ymm0, %ymm0
	vaddps	%ymm0, %ymm4, %ymm0
	vmulps	%ymm3, %ymm0, %ymm0
	vaddps	%ymm0, %ymm4, %ymm0
	vmulps	%ymm3, %ymm1, %ymm1
	vaddps	%ymm1, %ymm4, %ymm1
	vmulps	%ymm3, %ymm1, %ymm1
	vaddps	%ymm1, %ymm4, %ymm1
	vmulps	%ymm3, %ymm1, %ymm1
	vaddps	%ymm1, %ymm4, %ymm1
	vmulps	%ymm3, %ymm1, %ymm1
	vmulps	%ymm3, %ymm0, %ymm0
	vaddps	%ymm0, %ymm4, %ymm0
	vmulps	%ymm3, %ymm0, %ymm0
	vaddps	%ymm0, %ymm4, %ymm0
	vmulps	%ymm3, %ymm0, %ymm0
	vaddps	%ymm0, %ymm4, %ymm0
	vmulps	%ymm3, %ymm0, %ymm0
	vaddps	%ymm1, %ymm4, %ymm1
	vmulps	%ymm3, %ymm1, %ymm1
	vaddps	%ymm1, %ymm4, %ymm1
	vmulps	%ymm3, %ymm1, %ymm1
	vaddps	%ymm1, %ymm4, %ymm1
	vmulps	%ymm3, %ymm1, %ymm1
	vaddps	%ymm1, %ymm4, %ymm1
	vaddps	%ymm0, %ymm4, %ymm0
	vmulps	%ymm3, %ymm0, %ymm0
	vaddps	%ymm0, %ymm4, %ymm0
	vmulps	%ymm3, %ymm0, %ymm0
	vaddps	%ymm0, %ymm4, %ymm0
	vmulps	%ymm3, %ymm0, %ymm0
	vaddps	%ymm0, %ymm4, %ymm0
	vmulps	%ymm3, %ymm1, %ymm1
	vaddps	%ymm1, %ymm4, %ymm1
	vmulps	%ymm3, %ymm1, %ymm1
	vaddps	%ymm1, %ymm4, %ymm1
	vmulps	%ymm3, %ymm1, %ymm1
	vaddps	%ymm1, %ymm4, %ymm1
	vmulps	%ymm3, %ymm1, %ymm1
	vmulps	%ymm3, %ymm0, %ymm0
	vaddps	%ymm0, %ymm4, %ymm0
	vmulps	%ymm3, %ymm0, %ymm0
	vaddps	%ymm0, %ymm4, %ymm0
	vmulps	%ymm3, %ymm0, %ymm0
	vaddps	%ymm0, %ymm4, %ymm0
	vmulps	%ymm3, %ymm0, %ymm0
	vaddps	%ymm1, %ymm4, %ymm1
	vmulps	%ymm3, %ymm1, %ymm1
	vaddps	%ymm1, %ymm4, %ymm1
	vmulps	%ymm3, %ymm1, %ymm1
	vaddps	%ymm1, %ymm4, %ymm1
	vmulps	%ymm3, %ymm1, %ymm1
	vaddps	%ymm1, %ymm4, %ymm1
	vaddps	%ymm0, %ymm4, %ymm0
	vmulps	%ymm3, %ymm0, %ymm0
	vaddps	%ymm0, %ymm4, %ymm0
	vmulps	%ymm3, %ymm0, %ymm0
	vaddps	%ymm0, %ymm4, %ymm0
	vmulps	%ymm3, %ymm0, %ymm0
	vaddps	%ymm0, %ymm4, %ymm0
	vmulps	%ymm3, %ymm1, %ymm1
	vaddps	%ymm1, %ymm4, %ymm1
	vmulps	%ymm3, %ymm1, %ymm1
	vaddps	%ymm1, %ymm4, %ymm1
	vmulps	%ymm3, %ymm1, %ymm1
	vaddps	%ymm1, %ymm4, %ymm1
	vmulps	%ymm3, %ymm1, %ymm1
	vmulps	%ymm3, %ymm0, %ymm0
	vaddps	%ymm0, %ymm4, %ymm0
	vmulps	%ymm3, %ymm0, %ymm0
	vaddps	%ymm0, %ymm4, %ymm0
	vmulps	%ymm3, %ymm0, %ymm0
	vaddps	%ymm0, %ymm4, %ymm0
	vmulps	%ymm3, %ymm0, %ymm0
	vaddps	%ymm1, %ymm4, %ymm1
	vmulps	%ymm3, %ymm1, %ymm1
	vaddps	%ymm1, %ymm4, %ymm1
	vmulps	%ymm3, %ymm1, %ymm1
	vaddps	%ymm1, %ymm4, %ymm1
	vmulps	%ymm3, %ymm1, %ymm1
	vaddps	%ymm1, %ymm4, %ymm1
	vaddps	%ymm0, %ymm4, %ymm0
	vmulps	%ymm3, %ymm0, %ymm0
	vaddps	%ymm0, %ymm4, %ymm0
	vmulps	%ymm3, %ymm0, %ymm0
	vaddps	%ymm0, %ymm4, %ymm0
	vmulps	%ymm3, %ymm0, %ymm0
	vaddps	%ymm0, %ymm4, %ymm0
	vmulps	%ymm3, %ymm1, %ymm1
	vaddps	%ymm1, %ymm4, %ymm1
	vmulps	%ymm3, %ymm1, %ymm1
	vaddps	%ymm1, %ymm4, %ymm1
	vmulps	%ymm3, %ymm1, %ymm1
	vaddps	%ymm1, %ymm4, %ymm1
	vmulps	%ymm3, %ymm1, %ymm1
	vmulps	%ymm3, %ymm0, %ymm0
	vaddps	%ymm0, %ymm4, %ymm0
	vmulps	%ymm3, %ymm0, %ymm0
	vaddps	%ymm0, %ymm4, %ymm0
	vmulps	%ymm3, %ymm0, %ymm0
	vaddps	%ymm0, %ymm4, %ymm0
	vmulps	%ymm3, %ymm0, %ymm0
	vaddps	%ymm1, %ymm4, %ymm1
	vmulps	%ymm3, %ymm1, %ymm1
	vaddps	%ymm1, %ymm4, %ymm1
	vmulps	%ymm3, %ymm1, %ymm1
	vaddps	%ymm1, %ymm4, %ymm1
	vmulps	%ymm3, %ymm1, %ymm1
	vaddps	%ymm1, %ymm4, %ymm1
	vaddps	%ymm0, %ymm4, %ymm0
	vmulps	%ymm3, %ymm0, %ymm0
	vaddps	%ymm0, %ymm4, %ymm0
	vmulps	%ymm3, %ymm0, %ymm0
	vaddps	%ymm0, %ymm4, %ymm0
	vmulps	%ymm3, %ymm0, %ymm0
	vaddps	%ymm0, %ymm4, %ymm0
	vmulps	%ymm3, %ymm1, %ymm1
	vaddps	%ymm1, %ymm4, %ymm1
	vmulps	%ymm3, %ymm1, %ymm1
	vaddps	%ymm1, %ymm4, %ymm1
	vmulps	%ymm3, %ymm1, %ymm1
	vaddps	%ymm1, %ymm4, %ymm1
	vmulps	%ymm3, %ymm1, %ymm1
	vmulps	%ymm3, %ymm0, %ymm0
	vaddps	%ymm0, %ymm4, %ymm0
	vmulps	%ymm3, %ymm0, %ymm0
	vaddps	%ymm0, %ymm4, %ymm0
	vmulps	%ymm3, %ymm0, %ymm0
	vaddps	%ymm0, %ymm4, %ymm0
	vmulps	%ymm3, %ymm0, %ymm0
	vaddps	%ymm1, %ymm4, %ymm1
	vmulps	%ymm3, %ymm1, %ymm1
	vaddps	%ymm1, %ymm4, %ymm1
	vmulps	%ymm3, %ymm1, %ymm1
	vaddps	%ymm1, %ymm4, %ymm1
	vmulps	%ymm3, %ymm1, %ymm1
	vaddps	%ymm1, %ymm4, %ymm1
	vaddps	%ymm0, %ymm4, %ymm0
	vmulps	%ymm3, %ymm0, %ymm0
	vaddps	%ymm0, %ymm4, %ymm0
	vmulps	%ymm3, %ymm0, %ymm0
	vaddps	%ymm0, %ymm4, %ymm0
	vmulps	%ymm3, %ymm0, %ymm0
	vaddps	%ymm0, %ymm4, %ymm0
	vmulps	%ymm3, %ymm1, %ymm1
	vaddps	%ymm1, %ymm4, %ymm1
	vmulps	%ymm3, %ymm1, %ymm1
	vaddps	%ymm1, %ymm4, %ymm1
	vmulps	%ymm3, %ymm1, %ymm1
	vaddps	%ymm1, %ymm4, %ymm1
	vmulps	%ymm3, %ymm1, %ymm1
	vmulps	%ymm3, %ymm0, %ymm0
	vaddps	%ymm0, %ymm4, %ymm0
	vmulps	%ymm3, %ymm0, %ymm0
	vaddps	%ymm0, %ymm4, %ymm0
	vmulps	%ymm3, %ymm0, %ymm0
	vaddps	%ymm0, %ymm4, %ymm0
	vmulps	%ymm3, %ymm0, %ymm0
	vaddps	%ymm1, %ymm4, %ymm1
	vmulps	%ymm3, %ymm1, %ymm1
	vaddps	%ymm1, %ymm4, %ymm1
	vmulps	%ymm3, %ymm1, %ymm1
	vaddps	%ymm1, %ymm4, %ymm1
	vmulps	%ymm3, %ymm1, %ymm1
	vaddps	%ymm1, %ymm4, %ymm1
	vaddps	%ymm0, %ymm4, %ymm0
	vmulps	%ymm3, %ymm0, %ymm0
	vaddps	%ymm0, %ymm4, %ymm0
	vmulps	%ymm3, %ymm0, %ymm0
	vaddps	%ymm0, %ymm4, %ymm0
	vmulps	%ymm3, %ymm0, %ymm0
	vaddps	%ymm0, %ymm4, %ymm0
	vmulps	%ymm3, %ymm1, %ymm1
	vaddps	%ymm1, %ymm4, %ymm1
	vmulps	%ymm3, %ymm1, %ymm1
	vaddps	%ymm1, %ymm4, %ymm1
	vmulps	%ymm3, %ymm1, %ymm1
	vaddps	%ymm1, %ymm4, %ymm1
	vmulps	%ymm3, %ymm1, %ymm1
	vmulps	%ymm3, %ymm0, %ymm0
	vaddps	%ymm0, %ymm4, %ymm0
	vmulps	%ymm3, %ymm0, %ymm0
	vaddps	%ymm0, %ymm4, %ymm0
	vmulps	%ymm3, %ymm0, %ymm0
	vaddps	%ymm0, %ymm4, %ymm0
	vmulps	%ymm3, %ymm0, %ymm0
	vaddps	%ymm1, %ymm4, %ymm1
	vmulps	%ymm3, %ymm1, %ymm1
	vaddps	%ymm1, %ymm4, %ymm1
	vmulps	%ymm3, %ymm1, %ymm1
	vaddps	%ymm1, %ymm4, %ymm1
	vmulps	%ymm3, %ymm1, %ymm1
	vaddps	%ymm1, %ymm4, %ymm1
	vaddps	%ymm0, %ymm4, %ymm0
	vmulps	%ymm3, %ymm0, %ymm0
	vaddps	%ymm0, %ymm4, %ymm0
	vmulps	%ymm3, %ymm0, %ymm0
	vaddps	%ymm0, %ymm4, %ymm0
	vmulps	%ymm3, %ymm0, %ymm0
	vaddps	%ymm0, %ymm4, %ymm0
	vmulps	%ymm3, %ymm1, %ymm1
	vaddps	%ymm1, %ymm4, %ymm1
	vmulps	%ymm3, %ymm1, %ymm1
	vaddps	%ymm1, %ymm4, %ymm1
	vmulps	%ymm3, %ymm1, %ymm1
	vaddps	%ymm1, %ymm4, %ymm1
	vmulps	%ymm3, %ymm1, %ymm1
	vmulps	%ymm3, %ymm0, %ymm0
	vaddps	%ymm0, %ymm4, %ymm0
	vmulps	%ymm3, %ymm0, %ymm0
	vaddps	%ymm0, %ymm4, %ymm0
	vmulps	%ymm3, %ymm0, %ymm0
	vaddps	%ymm0, %ymm4, %ymm0
	vmulps	%ymm3, %ymm0, %ymm0
	vaddps	%ymm1, %ymm4, %ymm1
	vmulps	%ymm3, %ymm1, %ymm1
	vaddps	%ymm1, %ymm4, %ymm1
	vmulps	%ymm3, %ymm1, %ymm1
	vaddps	%ymm1, %ymm4, %ymm1
	vmulps	%ymm3, %ymm1, %ymm1
	vaddps	%ymm1, %ymm4, %ymm1
	vaddps	%ymm0, %ymm4, %ymm0
	vmulps	%ymm3, %ymm0, %ymm0
	vaddps	%ymm0, %ymm4, %ymm0
	vmulps	%ymm3, %ymm0, %ymm0
	vaddps	%ymm0, %ymm4, %ymm0
	vmulps	%ymm3, %ymm0, %ymm0
	vaddps	%ymm0, %ymm4, %ymm0
	vmulps	%ymm3, %ymm1, %ymm1
	vaddps	%ymm1, %ymm4, %ymm1
	vmulps	%ymm3, %ymm1, %ymm1
	vaddps	%ymm1, %ymm4, %ymm1
	vmulps	%ymm3, %ymm1, %ymm1
	vaddps	%ymm1, %ymm4, %ymm1
	vmulps	%ymm3, %ymm1, %ymm1
	vmulps	%ymm3, %ymm0, %ymm0
	vaddps	%ymm0, %ymm4, %ymm0
	vmulps	%ymm3, %ymm0, %ymm0
	vaddps	%ymm0, %ymm4, %ymm0
	vmulps	%ymm3, %ymm0, %ymm0
	vaddps	%ymm0, %ymm4, %ymm0
	vmulps	%ymm3, %ymm0, %ymm0
	vaddps	%ymm1, %ymm4, %ymm1
	vmulps	%ymm3, %ymm1, %ymm1
	vaddps	%ymm1, %ymm4, %ymm1
	vmulps	%ymm3, %ymm1, %ymm1
	vaddps	%ymm1, %ymm4, %ymm1
	vmulps	%ymm3, %ymm1, %ymm1
	vaddps	%ymm1, %ymm4, %ymm1
	vaddps	%ymm0, %ymm4, %ymm0
	vmulps	%ymm3, %ymm0, %ymm0
	vaddps	%ymm0, %ymm4, %ymm0
	vmulps	%ymm3, %ymm0, %ymm0
	vaddps	%ymm0, %ymm4, %ymm0
	vmulps	%ymm3, %ymm0, %ymm0
	vaddps	%ymm0, %ymm4, %ymm0
	vmulps	%ymm3, %ymm1, %ymm1
	vaddps	%ymm1, %ymm4, %ymm1
	vmulps	%ymm3, %ymm1, %ymm1
	vaddps	%ymm1, %ymm4, %ymm1
	vmulps	%ymm3, %ymm1, %ymm1
	vaddps	%ymm1, %ymm4, %ymm1
	vmulps	%ymm3, %ymm1, %ymm1
	vmulps	%ymm3, %ymm0, %ymm0
	vaddps	%ymm0, %ymm4, %ymm0
	vmulps	%ymm3, %ymm0, %ymm0
	vaddps	%ymm0, %ymm4, %ymm0
	vmulps	%ymm3, %ymm0, %ymm0
	vaddps	%ymm0, %ymm4, %ymm0
	vmulps	%ymm3, %ymm0, %ymm0
	vaddps	%ymm1, %ymm4, %ymm1
	vmulps	%ymm3, %ymm1, %ymm1
	vaddps	%ymm1, %ymm4, %ymm1
	vmulps	%ymm3, %ymm1, %ymm1
	vaddps	%ymm1, %ymm4, %ymm1
	vmulps	%ymm3, %ymm1, %ymm1
	vaddps	%ymm1, %ymm4, %ymm1
	vaddps	%ymm0, %ymm4, %ymm0
	vmulps	%ymm3, %ymm0, %ymm0
	vaddps	%ymm0, %ymm4, %ymm0
	vmulps	%ymm3, %ymm0, %ymm0
	vaddps	%ymm0, %ymm4, %ymm0
	vmulps	%ymm3, %ymm0, %ymm0
	vaddps	%ymm0, %ymm4, %ymm0
	vmulps	%ymm3, %ymm1, %ymm1
	vaddps	%ymm1, %ymm4, %ymm1
	vmulps	%ymm3, %ymm1, %ymm1
	vaddps	%ymm1, %ymm4, %ymm1
	vmulps	%ymm3, %ymm1, %ymm1
	vaddps	%ymm1, %ymm4, %ymm1
	vmulps	%ymm3, %ymm1, %ymm1
	vmulps	%ymm3, %ymm0, %ymm0
	vaddps	%ymm0, %ymm4, %ymm0
	vmulps	%ymm3, %ymm0, %ymm0
	vaddps	%ymm0, %ymm4, %ymm0
	vmulps	%ymm3, %ymm0, %ymm0
	vaddps	%ymm0, %ymm4, %ymm0
	vmulps	%ymm3, %ymm0, %ymm0
	vaddps	%ymm1, %ymm4, %ymm1
	vmulps	%ymm3, %ymm1, %ymm1
	vaddps	%ymm1, %ymm4, %ymm1
	vmulps	%ymm3, %ymm1, %ymm1
	vaddps	%ymm1, %ymm4, %ymm1
	vmulps	%ymm3, %ymm1, %ymm1
	vaddps	%ymm1, %ymm4, %ymm1
	vaddps	%ymm0, %ymm4, %ymm0
	vmulps	%ymm3, %ymm0, %ymm0
	vaddps	%ymm0, %ymm4, %ymm0
	vmulps	%ymm3, %ymm0, %ymm0
	vaddps	%ymm0, %ymm4, %ymm0
	vmulps	%ymm3, %ymm0, %ymm0
	vaddps	%ymm0, %ymm4, %ymm0
	vmulps	%ymm3, %ymm1, %ymm1
	vaddps	%ymm1, %ymm4, %ymm1
	vmulps	%ymm3, %ymm1, %ymm1
	vaddps	%ymm1, %ymm4, %ymm1
	vmulps	%ymm3, %ymm1, %ymm1
	vaddps	%ymm1, %ymm4, %ymm1
	vmulps	%ymm3, %ymm1, %ymm1
	vmulps	%ymm3, %ymm0, %ymm0
	vaddps	%ymm0, %ymm4, %ymm0
	vmulps	%ymm3, %ymm0, %ymm0
	vaddps	%ymm0, %ymm4, %ymm0
	vmulps	%ymm3, %ymm0, %ymm0
	vaddps	%ymm0, %ymm4, %ymm0
	vmulps	%ymm3, %ymm0, %ymm0
	vaddps	%ymm1, %ymm4, %ymm1
	vmulps	%ymm3, %ymm1, %ymm1
	vaddps	%ymm1, %ymm4, %ymm1
	vmulps	%ymm3, %ymm1, %ymm1
	vaddps	%ymm1, %ymm4, %ymm1
	vmulps	%ymm3, %ymm1, %ymm1
	vaddps	%ymm1, %ymm4, %ymm1
	vaddps	%ymm0, %ymm4, %ymm0
	vmulps	%ymm3, %ymm0, %ymm0
	vaddps	%ymm0, %ymm4, %ymm0
	vmulps	%ymm3, %ymm0, %ymm0
	vaddps	%ymm0, %ymm4, %ymm0
	vmulps	%ymm3, %ymm0, %ymm0
	vaddps	%ymm0, %ymm4, %ymm0
	vmulps	%ymm3, %ymm1, %ymm1
	vaddps	%ymm1, %ymm4, %ymm1
	vmulps	%ymm3, %ymm1, %ymm1
	vaddps	%ymm1, %ymm4, %ymm1
	vmulps	%ymm3, %ymm1, %ymm1
	vaddps	%ymm1, %ymm4, %ymm1
	vmulps	%ymm3, %ymm1, %ymm1
	vmulps	%ymm3, %ymm0, %ymm0
	vaddps	%ymm0, %ymm4, %ymm0
	vmulps	%ymm3, %ymm0, %ymm0
	vaddps	%ymm0, %ymm4, %ymm0
	vmulps	%ymm3, %ymm0, %ymm0
	vaddps	%ymm0, %ymm4, %ymm0
	vmulps	%ymm3, %ymm0, %ymm0
	vaddps	%ymm1, %ymm4, %ymm1
	vmulps	%ymm3, %ymm1, %ymm1
	vaddps	%ymm1, %ymm4, %ymm1
	vmulps	%ymm3, %ymm1, %ymm1
	vaddps	%ymm1, %ymm4, %ymm1
	vmulps	%ymm3, %ymm1, %ymm1
	vaddps	%ymm1, %ymm4, %ymm1
	vaddps	%ymm0, %ymm4, %ymm0
	vmulps	%ymm3, %ymm0, %ymm0
	vaddps	%ymm0, %ymm4, %ymm0
	vmulps	%ymm3, %ymm0, %ymm0
	vaddps	%ymm0, %ymm4, %ymm0
	vmulps	%ymm3, %ymm0, %ymm0
	vaddps	%ymm0, %ymm4, %ymm0
	vmulps	%ymm3, %ymm1, %ymm1
	vaddps	%ymm1, %ymm4, %ymm1
	vmulps	%ymm3, %ymm1, %ymm1
	vaddps	%ymm1, %ymm4, %ymm1
	vmulps	%ymm3, %ymm1, %ymm1
	vaddps	%ymm1, %ymm4, %ymm1
	vmulps	%ymm3, %ymm1, %ymm1
	vmulps	%ymm3, %ymm0, %ymm0
	vaddps	%ymm0, %ymm4, %ymm0
	vmulps	%ymm3, %ymm0, %ymm0
	vaddps	%ymm0, %ymm4, %ymm0
	vmulps	%ymm3, %ymm0, %ymm0
	vaddps	%ymm0, %ymm4, %ymm0
	vmulps	%ymm3, %ymm0, %ymm0
	vaddps	%ymm1, %ymm4, %ymm1
	vmulps	%ymm3, %ymm1, %ymm1
	vaddps	%ymm1, %ymm4, %ymm1
	vmulps	%ymm3, %ymm1, %ymm1
	vaddps	%ymm1, %ymm4, %ymm1
	vmulps	%ymm3, %ymm1, %ymm1
	vaddps	%ymm1, %ymm4, %ymm1
	vaddps	%ymm0, %ymm4, %ymm0
	vmulps	%ymm3, %ymm0, %ymm0
	vaddps	%ymm0, %ymm4, %ymm0
	vmulps	%ymm3, %ymm0, %ymm0
	vaddps	%ymm0, %ymm4, %ymm0
	vmulps	%ymm3, %ymm0, %ymm0
	vaddps	%ymm0, %ymm4, %ymm0
	vmulps	%ymm3, %ymm1, %ymm1
	vaddps	%ymm1, %ymm4, %ymm1
	vmulps	%ymm3, %ymm1, %ymm1
	vaddps	%ymm1, %ymm4, %ymm1
	vmulps	%ymm3, %ymm1, %ymm1
	vaddps	%ymm1, %ymm4, %ymm1
	vmulps	%ymm3, %ymm1, %ymm1
	vmulps	%ymm3, %ymm0, %ymm0
	vaddps	%ymm0, %ymm4, %ymm0
	vmulps	%ymm3, %ymm0, %ymm0
	vaddps	%ymm0, %ymm4, %ymm0
	vmulps	%ymm3, %ymm0, %ymm0
	vaddps	%ymm0, %ymm4, %ymm0
	vmulps	%ymm3, %ymm0, %ymm0
	vaddps	%ymm1, %ymm4, %ymm1
	vmulps	%ymm3, %ymm1, %ymm1
	vaddps	%ymm1, %ymm4, %ymm1
	vmulps	%ymm3, %ymm1, %ymm1
	vaddps	%ymm1, %ymm4, %ymm1
	vmulps	%ymm3, %ymm1, %ymm1
	vaddps	%ymm1, %ymm4, %ymm1
	vaddps	%ymm0, %ymm4, %ymm0
	vmulps	%ymm3, %ymm0, %ymm0
	vaddps	%ymm0, %ymm4, %ymm0
	vmulps	%ymm3, %ymm0, %ymm0
	vaddps	%ymm0, %ymm4, %ymm0
	vmulps	%ymm3, %ymm0, %ymm0
	vaddps	%ymm0, %ymm4, %ymm0
	vmulps	%ymm3, %ymm1, %ymm1
	vaddps	%ymm1, %ymm4, %ymm1
	vmulps	%ymm3, %ymm1, %ymm1
	vaddps	%ymm1, %ymm4, %ymm1
	vmulps	%ymm3, %ymm1, %ymm1
	vaddps	%ymm1, %ymm4, %ymm1
	vmulps	%ymm3, %ymm1, %ymm1
	vmulps	%ymm3, %ymm0, %ymm0
	vaddps	%ymm0, %ymm4, %ymm0
	vmulps	%ymm3, %ymm0, %ymm0
	vaddps	%ymm0, %ymm4, %ymm0
	vmulps	%ymm3, %ymm0, %ymm0
	vaddps	%ymm0, %ymm4, %ymm0
	vmulps	%ymm3, %ymm0, %ymm0
	vaddps	%ymm1, %ymm4, %ymm1
	vmulps	%ymm3, %ymm1, %ymm1
	vaddps	%ymm1, %ymm4, %ymm1
	vmulps	%ymm3, %ymm1, %ymm1
	vaddps	%ymm1, %ymm4, %ymm1
	vmulps	%ymm3, %ymm1, %ymm1
	vaddps	%ymm1, %ymm4, %ymm1
	vaddps	%ymm0, %ymm4, %ymm0
	vmulps	%ymm3, %ymm0, %ymm0
	vaddps	%ymm0, %ymm4, %ymm0
	vmulps	%ymm3, %ymm0, %ymm0
	vaddps	%ymm0, %ymm4, %ymm0
	vmulps	%ymm3, %ymm0, %ymm0
	vaddps	%ymm0, %ymm4, %ymm0
	vmulps	%ymm3, %ymm1, %ymm1
	vaddps	%ymm1, %ymm4, %ymm1
	vmulps	%ymm3, %ymm1, %ymm1
	vaddps	%ymm1, %ymm4, %ymm1
	vmulps	%ymm3, %ymm1, %ymm1
	vaddps	%ymm1, %ymm4, %ymm1
	vmulps	%ymm3, %ymm1, %ymm1
	vmulps	%ymm3, %ymm0, %ymm0
	vaddps	%ymm0, %ymm4, %ymm0
	vmulps	%ymm3, %ymm0, %ymm0
	vaddps	%ymm0, %ymm4, %ymm0
	vmulps	%ymm3, %ymm0, %ymm0
	vaddps	%ymm0, %ymm4, %ymm0
	vmulps	%ymm3, %ymm0, %ymm0
	vaddps	%ymm1, %ymm4, %ymm1
	vmulps	%ymm3, %ymm1, %ymm1
	vaddps	%ymm1, %ymm4, %ymm1
	vmulps	%ymm3, %ymm1, %ymm1
	vaddps	%ymm1, %ymm4, %ymm1
	vmulps	%ymm3, %ymm1, %ymm1
	vaddps	%ymm1, %ymm4, %ymm1
	vaddps	%ymm0, %ymm4, %ymm0
	vmulps	%ymm3, %ymm0, %ymm0
	vaddps	%ymm0, %ymm4, %ymm0
	vmulps	%ymm3, %ymm0, %ymm0
	vaddps	%ymm0, %ymm4, %ymm0
	vmulps	%ymm3, %ymm0, %ymm0
	vaddps	%ymm0, %ymm4, %ymm0
	vmulps	%ymm3, %ymm1, %ymm1
	vaddps	%ymm1, %ymm4, %ymm1
	vmulps	%ymm3, %ymm1, %ymm1
	vaddps	%ymm1, %ymm4, %ymm1
	vmulps	%ymm3, %ymm1, %ymm1
	vaddps	%ymm1, %ymm4, %ymm1
	vmulps	%ymm3, %ymm1, %ymm1
	vmulps	%ymm3, %ymm0, %ymm0
	vaddps	%ymm0, %ymm4, %ymm0
	vmulps	%ymm3, %ymm0, %ymm0
	vaddps	%ymm0, %ymm4, %ymm0
	vmulps	%ymm3, %ymm0, %ymm0
	vaddps	%ymm0, %ymm4, %ymm0
	vmulps	%ymm3, %ymm0, %ymm0
	vaddps	%ymm1, %ymm4, %ymm1
	vmulps	%ymm3, %ymm1, %ymm1
	vaddps	%ymm1, %ymm4, %ymm1
	vmulps	%ymm3, %ymm1, %ymm1
	vaddps	%ymm1, %ymm4, %ymm1
	vmulps	%ymm3, %ymm1, %ymm1
	vaddps	%ymm1, %ymm4, %ymm1
	vaddps	%ymm0, %ymm4, %ymm0
	vmulps	%ymm3, %ymm0, %ymm0
	vaddps	%ymm0, %ymm4, %ymm0
	vmulps	%ymm3, %ymm0, %ymm0
	vaddps	%ymm0, %ymm4, %ymm0
	vmulps	%ymm3, %ymm0, %ymm0
	vaddps	%ymm0, %ymm4, %ymm0
	vmulps	%ymm3, %ymm1, %ymm1
	vaddps	%ymm1, %ymm4, %ymm1
	vmulps	%ymm3, %ymm1, %ymm1
	vaddps	%ymm1, %ymm4, %ymm1
	vmulps	%ymm3, %ymm1, %ymm1
	vaddps	%ymm1, %ymm4, %ymm1
	vmulps	%ymm3, %ymm1, %ymm1
	vmulps	%ymm3, %ymm0, %ymm0
	vaddps	%ymm0, %ymm4, %ymm0
	vmulps	%ymm3, %ymm0, %ymm0
	vaddps	%ymm0, %ymm4, %ymm0
	vmulps	%ymm3, %ymm0, %ymm0
	vaddps	%ymm0, %ymm4, %ymm0
	vmulps	%ymm3, %ymm0, %ymm0
	vaddps	%ymm1, %ymm4, %ymm1
	vmulps	%ymm3, %ymm1, %ymm1
	vaddps	%ymm1, %ymm4, %ymm1
	vmulps	%ymm3, %ymm1, %ymm1
	vaddps	%ymm1, %ymm4, %ymm1
	vmulps	%ymm3, %ymm1, %ymm1
	vaddps	%ymm1, %ymm4, %ymm1
	vaddps	%ymm0, %ymm4, %ymm0
	vmulps	%ymm3, %ymm0, %ymm0
	vaddps	%ymm0, %ymm4, %ymm0
	vmulps	%ymm3, %ymm0, %ymm0
	vaddps	%ymm0, %ymm4, %ymm0
	vmulps	%ymm3, %ymm0, %ymm0
	vaddps	%ymm0, %ymm4, %ymm0
	vmulps	%ymm3, %ymm1, %ymm1
	vaddps	%ymm1, %ymm4, %ymm1
	vmulps	%ymm3, %ymm1, %ymm1
	vaddps	%ymm1, %ymm4, %ymm1
	vmulps	%ymm3, %ymm1, %ymm1
	vaddps	%ymm1, %ymm4, %ymm1
	vmulps	%ymm3, %ymm1, %ymm1
	vmulps	%ymm3, %ymm0, %ymm0
	vaddps	%ymm0, %ymm4, %ymm0
	vmulps	%ymm3, %ymm0, %ymm0
	vaddps	%ymm0, %ymm4, %ymm0
	vmulps	%ymm3, %ymm0, %ymm0
	vaddps	%ymm0, %ymm4, %ymm0
	vmulps	%ymm3, %ymm0, %ymm0
	vaddps	%ymm1, %ymm4, %ymm1
	vmulps	%ymm3, %ymm1, %ymm1
	vaddps	%ymm1, %ymm4, %ymm1
	vmulps	%ymm3, %ymm1, %ymm1
	vaddps	%ymm1, %ymm4, %ymm1
	vmulps	%ymm3, %ymm1, %ymm1
	vaddps	%ymm1, %ymm4, %ymm1
	vaddps	%ymm0, %ymm4, %ymm0
	vmulps	%ymm3, %ymm0, %ymm0
	vaddps	%ymm0, %ymm4, %ymm0
	vmulps	%ymm3, %ymm0, %ymm0
	vaddps	%ymm0, %ymm4, %ymm0
	vmulps	%ymm3, %ymm0, %ymm0
	vaddps	%ymm0, %ymm4, %ymm0
	vmulps	%ymm3, %ymm1, %ymm1
	vaddps	%ymm1, %ymm4, %ymm1
	vmulps	%ymm3, %ymm1, %ymm1
	vaddps	%ymm1, %ymm4, %ymm1
	vmulps	%ymm3, %ymm1, %ymm1
	vaddps	%ymm1, %ymm4, %ymm1
	vmulps	%ymm3, %ymm1, %ymm1
	vmulps	%ymm3, %ymm0, %ymm0
	vaddps	%ymm0, %ymm4, %ymm0
	vmulps	%ymm3, %ymm0, %ymm0
	vaddps	%ymm0, %ymm4, %ymm0
	vmulps	%ymm3, %ymm0, %ymm0
	vaddps	%ymm0, %ymm4, %ymm0
	vmulps	%ymm3, %ymm0, %ymm0
	vaddps	%ymm1, %ymm4, %ymm1
	vmulps	%ymm3, %ymm1, %ymm1
	vaddps	%ymm1, %ymm4, %ymm1
	vmulps	%ymm3, %ymm1, %ymm1
	vaddps	%ymm1, %ymm4, %ymm1
	vmulps	%ymm3, %ymm1, %ymm1
	vaddps	%ymm1, %ymm4, %ymm1
	vaddps	%ymm0, %ymm4, %ymm0
	vmulps	%ymm3, %ymm0, %ymm0
	vaddps	%ymm0, %ymm4, %ymm0
	vmulps	%ymm3, %ymm0, %ymm0
	vaddps	%ymm0, %ymm4, %ymm0
	vmulps	%ymm3, %ymm0, %ymm0
	vaddps	%ymm0, %ymm4, %ymm0
	vmulps	%ymm3, %ymm1, %ymm1
	vaddps	%ymm1, %ymm4, %ymm1
	vmulps	%ymm3, %ymm1, %ymm1
	vaddps	%ymm1, %ymm4, %ymm1
	vmulps	%ymm3, %ymm1, %ymm1
	vaddps	%ymm1, %ymm4, %ymm1
	vmulps	%ymm3, %ymm1, %ymm1
	vmulps	%ymm3, %ymm0, %ymm0
	vaddps	%ymm0, %ymm4, %ymm0
	vmulps	%ymm3, %ymm0, %ymm0
	vaddps	%ymm0, %ymm4, %ymm0
	vmulps	%ymm3, %ymm0, %ymm0
	vaddps	%ymm0, %ymm4, %ymm0
	vmulps	%ymm3, %ymm0, %ymm0
	vaddps	%ymm1, %ymm4, %ymm1
	vmulps	%ymm3, %ymm1, %ymm1
	vaddps	%ymm1, %ymm4, %ymm1
	vmulps	%ymm3, %ymm1, %ymm1
	vaddps	%ymm1, %ymm4, %ymm1
	vmulps	%ymm3, %ymm1, %ymm1
	vaddps	%ymm1, %ymm4, %ymm1
	vaddps	%ymm0, %ymm4, %ymm0
	vmulps	%ymm3, %ymm0, %ymm0
	vaddps	%ymm0, %ymm4, %ymm0
	vmulps	%ymm3, %ymm0, %ymm0
	vaddps	%ymm0, %ymm4, %ymm0
	vmulps	%ymm3, %ymm0, %ymm0
	vaddps	%ymm0, %ymm4, %ymm0
	vmulps	%ymm3, %ymm1, %ymm1
	vaddps	%ymm1, %ymm4, %ymm1
	vmulps	%ymm3, %ymm1, %ymm1
	vaddps	%ymm1, %ymm4, %ymm1
	vmulps	%ymm3, %ymm1, %ymm1
	vaddps	%ymm1, %ymm4, %ymm1
	vmulps	%ymm3, %ymm1, %ymm1
	vmulps	%ymm3, %ymm0, %ymm0
	vaddps	%ymm0, %ymm4, %ymm0
	vmulps	%ymm3, %ymm0, %ymm0
	vaddps	%ymm0, %ymm4, %ymm0
	vmulps	%ymm3, %ymm0, %ymm0
	vaddps	%ymm0, %ymm4, %ymm0
	vmulps	%ymm3, %ymm0, %ymm0
	vaddps	%ymm1, %ymm4, %ymm1
	vmulps	%ymm3, %ymm1, %ymm1
	vaddps	%ymm1, %ymm4, %ymm1
	vmulps	%ymm3, %ymm1, %ymm1
	vaddps	%ymm1, %ymm4, %ymm1
	vmulps	%ymm3, %ymm1, %ymm1
	vaddps	%ymm1, %ymm4, %ymm1
	vaddps	%ymm0, %ymm4, %ymm0
	vmulps	%ymm3, %ymm0, %ymm0
	vaddps	%ymm0, %ymm4, %ymm0
	vmulps	%ymm3, %ymm0, %ymm0
	vaddps	%ymm0, %ymm4, %ymm0
	vmulps	%ymm3, %ymm0, %ymm0
	vaddps	%ymm0, %ymm4, %ymm0
	vmulps	%ymm3, %ymm1, %ymm1
	vaddps	%ymm1, %ymm4, %ymm1
	vmulps	%ymm3, %ymm1, %ymm1
	vaddps	%ymm1, %ymm4, %ymm1
	vmulps	%ymm3, %ymm1, %ymm1
	vaddps	%ymm1, %ymm4, %ymm1
	vmulps	%ymm3, %ymm1, %ymm1
	vmulps	%ymm3, %ymm0, %ymm0
	vaddps	%ymm0, %ymm4, %ymm0
	vmulps	%ymm3, %ymm0, %ymm0
	vaddps	%ymm0, %ymm4, %ymm0
	vmulps	%ymm3, %ymm0, %ymm0
	vaddps	%ymm0, %ymm4, %ymm0
	vmulps	%ymm3, %ymm0, %ymm0
	vaddps	%ymm1, %ymm4, %ymm1
	vmulps	%ymm3, %ymm1, %ymm1
	vaddps	%ymm1, %ymm4, %ymm1
	vmulps	%ymm3, %ymm1, %ymm1
	vaddps	%ymm1, %ymm4, %ymm1
	vmulps	%ymm3, %ymm1, %ymm1
	vaddps	%ymm1, %ymm4, %ymm1
	vaddps	%ymm0, %ymm4, %ymm0
	vmulps	%ymm3, %ymm0, %ymm0
	vaddps	%ymm0, %ymm4, %ymm0
	vmulps	%ymm3, %ymm0, %ymm0
	vaddps	%ymm0, %ymm4, %ymm0
	vmulps	%ymm3, %ymm0, %ymm0
	vaddps	%ymm0, %ymm4, %ymm0
	vmulps	%ymm3, %ymm1, %ymm1
	vaddps	%ymm1, %ymm4, %ymm1
	vmulps	%ymm3, %ymm1, %ymm1
	vaddps	%ymm1, %ymm4, %ymm1
	vmulps	%ymm3, %ymm1, %ymm1
	vaddps	%ymm1, %ymm4, %ymm1
	vmulps	%ymm3, %ymm1, %ymm1
	vmulps	%ymm3, %ymm0, %ymm0
	vaddps	%ymm0, %ymm4, %ymm0
	vmulps	%ymm3, %ymm0, %ymm0
	vaddps	%ymm0, %ymm4, %ymm0
	vmulps	%ymm3, %ymm0, %ymm0
	vaddps	%ymm0, %ymm4, %ymm0
	vmulps	%ymm3, %ymm0, %ymm0
	vaddps	%ymm1, %ymm4, %ymm1
	vmulps	%ymm3, %ymm1, %ymm1
	vaddps	%ymm1, %ymm4, %ymm1
	vmulps	%ymm3, %ymm1, %ymm1
	vaddps	%ymm1, %ymm4, %ymm1
	vmulps	%ymm3, %ymm1, %ymm1
	vaddps	%ymm1, %ymm4, %ymm1
	vaddps	%ymm0, %ymm4, %ymm0
	vmulps	%ymm3, %ymm0, %ymm0
	vaddps	%ymm0, %ymm4, %ymm0
	vmulps	%ymm3, %ymm0, %ymm0
	vaddps	%ymm0, %ymm4, %ymm0
	vmulps	%ymm3, %ymm0, %ymm0
	vaddps	%ymm0, %ymm4, %ymm0
	vmulps	%ymm3, %ymm1, %ymm1
	vaddps	%ymm1, %ymm4, %ymm1
	vmulps	%ymm3, %ymm1, %ymm1
	vaddps	%ymm1, %ymm4, %ymm1
	vmulps	%ymm3, %ymm1, %ymm1
	vaddps	%ymm1, %ymm4, %ymm1
	vmulps	%ymm3, %ymm1, %ymm1
	vmulps	%ymm3, %ymm0, %ymm0
	vaddps	%ymm0, %ymm4, %ymm0
	vmulps	%ymm3, %ymm0, %ymm0
	vaddps	%ymm0, %ymm4, %ymm0
	vmulps	%ymm3, %ymm0, %ymm0
	vaddps	%ymm0, %ymm4, %ymm0
	vmulps	%ymm3, %ymm0, %ymm0
	vaddps	%ymm1, %ymm4, %ymm1
	vmulps	%ymm3, %ymm1, %ymm1
	vaddps	%ymm1, %ymm4, %ymm1
	vmulps	%ymm3, %ymm1, %ymm1
	vaddps	%ymm1, %ymm4, %ymm1
	vmulps	%ymm3, %ymm1, %ymm1
	vaddps	%ymm1, %ymm4, %ymm1
	vaddps	%ymm0, %ymm4, %ymm0
	vmulps	%ymm3, %ymm0, %ymm0
	vaddps	%ymm0, %ymm4, %ymm0
	vmulps	%ymm3, %ymm0, %ymm0
	vaddps	%ymm0, %ymm4, %ymm0
	vmulps	%ymm3, %ymm0, %ymm0
	vaddps	%ymm0, %ymm4, %ymm0
	vmulps	%ymm3, %ymm1, %ymm1
	vaddps	%ymm1, %ymm4, %ymm1
	vmulps	%ymm3, %ymm1, %ymm1
	vaddps	%ymm1, %ymm4, %ymm1
	vmulps	%ymm3, %ymm1, %ymm1
	vaddps	%ymm1, %ymm4, %ymm1
	vmulps	%ymm3, %ymm1, %ymm1
	vmulps	%ymm3, %ymm0, %ymm0
	vaddps	%ymm0, %ymm4, %ymm0
	vmulps	%ymm3, %ymm0, %ymm0
	vaddps	%ymm0, %ymm4, %ymm0
	vmulps	%ymm3, %ymm0, %ymm0
	vaddps	%ymm0, %ymm4, %ymm0
	vmulps	%ymm3, %ymm0, %ymm0
	vaddps	%ymm1, %ymm4, %ymm1
	vmulps	%ymm3, %ymm1, %ymm1
	vaddps	%ymm1, %ymm4, %ymm1
	vmulps	%ymm3, %ymm1, %ymm1
	vaddps	%ymm1, %ymm4, %ymm1
	vmulps	%ymm3, %ymm1, %ymm1
	vaddps	%ymm1, %ymm4, %ymm1
	vaddps	%ymm0, %ymm4, %ymm0
	vmulps	%ymm3, %ymm0, %ymm0
	vaddps	%ymm0, %ymm4, %ymm0
	vmulps	%ymm3, %ymm0, %ymm0
	vaddps	%ymm0, %ymm4, %ymm0
	vmulps	%ymm3, %ymm0, %ymm0
	vaddps	%ymm0, %ymm4, %ymm0
	vmulps	%ymm3, %ymm1, %ymm1
	vaddps	%ymm1, %ymm4, %ymm1
	vmulps	%ymm3, %ymm1, %ymm1
	vaddps	%ymm1, %ymm4, %ymm1
	vmulps	%ymm3, %ymm1, %ymm1
	vaddps	%ymm1, %ymm4, %ymm1
	vmulps	%ymm3, %ymm1, %ymm1
	vmulps	%ymm3, %ymm0, %ymm0
	vaddps	%ymm0, %ymm4, %ymm0
	vmulps	%ymm3, %ymm0, %ymm0
	vaddps	%ymm0, %ymm4, %ymm0
	vmulps	%ymm3, %ymm0, %ymm0
	vaddps	%ymm0, %ymm4, %ymm0
	vmulps	%ymm3, %ymm0, %ymm0
	vaddps	%ymm1, %ymm4, %ymm1
	vmulps	%ymm3, %ymm1, %ymm1
	vaddps	%ymm1, %ymm4, %ymm1
	vmulps	%ymm3, %ymm1, %ymm1
	vaddps	%ymm1, %ymm4, %ymm1
	vmulps	%ymm3, %ymm1, %ymm1
	vaddps	%ymm1, %ymm4, %ymm1
	vaddps	%ymm0, %ymm4, %ymm0
	vmulps	%ymm3, %ymm0, %ymm0
	vaddps	%ymm0, %ymm4, %ymm0
	vmulps	%ymm3, %ymm0, %ymm0
	vaddps	%ymm0, %ymm4, %ymm0
	vmulps	%ymm3, %ymm0, %ymm0
	vaddps	%ymm0, %ymm4, %ymm0
	vmulps	%ymm3, %ymm1, %ymm1
	vaddps	%ymm1, %ymm4, %ymm1
	vmulps	%ymm3, %ymm1, %ymm1
	vaddps	%ymm1, %ymm4, %ymm1
	vmulps	%ymm3, %ymm1, %ymm1
	vaddps	%ymm1, %ymm4, %ymm1
	vmulps	%ymm3, %ymm1, %ymm1
	vmulps	%ymm3, %ymm0, %ymm0
	vaddps	%ymm0, %ymm4, %ymm0
	vmulps	%ymm3, %ymm0, %ymm0
	vaddps	%ymm0, %ymm4, %ymm0
	vmulps	%ymm3, %ymm0, %ymm0
	vaddps	%ymm0, %ymm4, %ymm0
	vmulps	%ymm3, %ymm0, %ymm0
	vaddps	%ymm1, %ymm4, %ymm1
	vmulps	%ymm3, %ymm1, %ymm1
	vaddps	%ymm1, %ymm4, %ymm1
	vmulps	%ymm3, %ymm1, %ymm1
	vaddps	%ymm1, %ymm4, %ymm1
	vmulps	%ymm3, %ymm1, %ymm1
	vaddps	%ymm1, %ymm4, %ymm1
	vaddps	%ymm0, %ymm4, %ymm0
	vmulps	%ymm3, %ymm0, %ymm0
	vaddps	%ymm0, %ymm4, %ymm0
	vmulps	%ymm3, %ymm0, %ymm0
	vaddps	%ymm0, %ymm4, %ymm0
	vmulps	%ymm3, %ymm0, %ymm0
	vaddps	%ymm0, %ymm4, %ymm0
	vmulps	%ymm3, %ymm1, %ymm1
	vaddps	%ymm1, %ymm4, %ymm1
	vmulps	%ymm3, %ymm1, %ymm1
	vaddps	%ymm1, %ymm4, %ymm1
	vmulps	%ymm3, %ymm1, %ymm1
	vaddps	%ymm1, %ymm4, %ymm1
	vmulps	%ymm3, %ymm1, %ymm1
	vmulps	%ymm3, %ymm0, %ymm0
	vaddps	%ymm0, %ymm4, %ymm0
	vmulps	%ymm3, %ymm0, %ymm0
	vaddps	%ymm0, %ymm4, %ymm0
	vmulps	%ymm3, %ymm0, %ymm0
	vaddps	%ymm0, %ymm4, %ymm0
	vmulps	%ymm3, %ymm0, %ymm0
	vaddps	%ymm1, %ymm4, %ymm1
	vmulps	%ymm3, %ymm1, %ymm1
	vaddps	%ymm1, %ymm4, %ymm1
	vmulps	%ymm3, %ymm1, %ymm1
	vaddps	%ymm1, %ymm4, %ymm1
	vmulps	%ymm3, %ymm1, %ymm1
	vaddps	%ymm1, %ymm4, %ymm1
	vaddps	%ymm0, %ymm4, %ymm0
	vmulps	%ymm3, %ymm0, %ymm0
	vaddps	%ymm0, %ymm4, %ymm0
	vmulps	%ymm3, %ymm0, %ymm0
	vaddps	%ymm0, %ymm4, %ymm0
	vmulps	%ymm3, %ymm0, %ymm0
	vaddps	%ymm0, %ymm4, %ymm0
	vmulps	%ymm3, %ymm1, %ymm1
	vaddps	%ymm1, %ymm4, %ymm1
	vmulps	%ymm3, %ymm1, %ymm1
	vaddps	%ymm1, %ymm4, %ymm1
	vmulps	%ymm3, %ymm1, %ymm1
	vaddps	%ymm1, %ymm4, %ymm1
	vmulps	%ymm3, %ymm1, %ymm1
	vmulps	%ymm3, %ymm0, %ymm0
	vaddps	%ymm0, %ymm4, %ymm0
	vmulps	%ymm3, %ymm0, %ymm0
	vaddps	%ymm0, %ymm4, %ymm0
	vmulps	%ymm3, %ymm0, %ymm0
	vaddps	%ymm0, %ymm4, %ymm0
	vmulps	%ymm3, %ymm0, %ymm0
	vaddps	%ymm1, %ymm4, %ymm1
	vmulps	%ymm3, %ymm1, %ymm1
	vaddps	%ymm1, %ymm4, %ymm1
	vmulps	%ymm3, %ymm1, %ymm1
	vaddps	%ymm1, %ymm4, %ymm1
	vmulps	%ymm3, %ymm1, %ymm1
	vaddps	%ymm1, %ymm4, %ymm1
	vaddps	%ymm0, %ymm4, %ymm0
	vmulps	%ymm3, %ymm0, %ymm0
	vaddps	%ymm0, %ymm4, %ymm0
	vmulps	%ymm3, %ymm0, %ymm0
	vaddps	%ymm0, %ymm4, %ymm0
	vmulps	%ymm3, %ymm0, %ymm0
	vaddps	%ymm0, %ymm4, %ymm0
	vmulps	%ymm3, %ymm1, %ymm1
	vaddps	%ymm1, %ymm4, %ymm1
	vmulps	%ymm3, %ymm1, %ymm1
	vaddps	%ymm1, %ymm4, %ymm1
	vmulps	%ymm3, %ymm1, %ymm1
	vaddps	%ymm1, %ymm4, %ymm1
	vmulps	%ymm3, %ymm1, %ymm1
	vmulps	%ymm3, %ymm0, %ymm0
	vaddps	%ymm0, %ymm4, %ymm0
	vmulps	%ymm3, %ymm0, %ymm0
	vaddps	%ymm0, %ymm4, %ymm0
	vmulps	%ymm3, %ymm0, %ymm0
	vaddps	%ymm0, %ymm4, %ymm0
	vmulps	%ymm3, %ymm0, %ymm0
	vaddps	%ymm1, %ymm4, %ymm1
	vmulps	%ymm3, %ymm1, %ymm1
	vaddps	%ymm1, %ymm4, %ymm1
	vmulps	%ymm3, %ymm1, %ymm1
	vaddps	%ymm1, %ymm4, %ymm1
	vmulps	%ymm3, %ymm1, %ymm1
	vaddps	%ymm1, %ymm4, %ymm1
	vaddps	%ymm0, %ymm4, %ymm0
	vmulps	%ymm3, %ymm0, %ymm0
	vaddps	%ymm0, %ymm4, %ymm0
	vmulps	%ymm3, %ymm0, %ymm0
	vaddps	%ymm0, %ymm4, %ymm0
	vmulps	%ymm3, %ymm0, %ymm0
	vaddps	%ymm0, %ymm4, %ymm0
	vmulps	%ymm3, %ymm1, %ymm1
	vaddps	%ymm1, %ymm4, %ymm1
	vmulps	%ymm3, %ymm1, %ymm1
	vaddps	%ymm1, %ymm4, %ymm1
	vmulps	%ymm3, %ymm1, %ymm1
	vaddps	%ymm1, %ymm4, %ymm1
	vmulps	%ymm3, %ymm1, %ymm1
	vmulps	%ymm3, %ymm0, %ymm0
	vaddps	%ymm0, %ymm4, %ymm0
	vmulps	%ymm3, %ymm0, %ymm0
	vaddps	%ymm0, %ymm4, %ymm0
	vmulps	%ymm3, %ymm0, %ymm0
	vaddps	%ymm0, %ymm4, %ymm0
	vmulps	%ymm3, %ymm0, %ymm0
	vaddps	%ymm1, %ymm4, %ymm1
	vmulps	%ymm3, %ymm1, %ymm1
	vaddps	%ymm1, %ymm4, %ymm1
	vmulps	%ymm3, %ymm1, %ymm1
	vaddps	%ymm1, %ymm4, %ymm1
	vmulps	%ymm3, %ymm1, %ymm1
	vaddps	%ymm1, %ymm4, %ymm1
	vaddps	%ymm0, %ymm4, %ymm0
	vmulps	%ymm3, %ymm0, %ymm0
	vaddps	%ymm0, %ymm4, %ymm0
	vmulps	%ymm3, %ymm0, %ymm0
	vaddps	%ymm0, %ymm4, %ymm0
	vmulps	%ymm3, %ymm0, %ymm0
	vaddps	%ymm0, %ymm4, %ymm0
	vmulps	%ymm3, %ymm1, %ymm1
	vaddps	%ymm1, %ymm4, %ymm1
	vmulps	%ymm3, %ymm1, %ymm1
	vaddps	%ymm1, %ymm4, %ymm1
	vmulps	%ymm3, %ymm1, %ymm1
	vaddps	%ymm1, %ymm4, %ymm1
	vmulps	%ymm3, %ymm1, %ymm1
	vmulps	%ymm3, %ymm0, %ymm0
	vaddps	%ymm0, %ymm4, %ymm0
	vmulps	%ymm3, %ymm0, %ymm0
	vaddps	%ymm0, %ymm4, %ymm0
	vmulps	%ymm3, %ymm0, %ymm0
	vaddps	%ymm0, %ymm4, %ymm0
	vmulps	%ymm3, %ymm0, %ymm0
	vaddps	%ymm1, %ymm4, %ymm1
	vmulps	%ymm3, %ymm1, %ymm1
	vaddps	%ymm1, %ymm4, %ymm1
	vmulps	%ymm3, %ymm1, %ymm1
	vaddps	%ymm1, %ymm4, %ymm1
	vmulps	%ymm3, %ymm1, %ymm1
	vaddps	%ymm1, %ymm4, %ymm1
	vaddps	%ymm0, %ymm4, %ymm0
	vmulps	%ymm3, %ymm0, %ymm0
	vaddps	%ymm0, %ymm4, %ymm0
	vmulps	%ymm3, %ymm0, %ymm0
	vaddps	%ymm0, %ymm4, %ymm0
	vmulps	%ymm3, %ymm0, %ymm0
	vaddps	%ymm0, %ymm4, %ymm0
	vmulps	%ymm3, %ymm1, %ymm1
	vaddps	%ymm1, %ymm4, %ymm1
	vmulps	%ymm3, %ymm1, %ymm1
	vaddps	%ymm1, %ymm4, %ymm1
	vmulps	%ymm3, %ymm1, %ymm1
	vaddps	%ymm1, %ymm4, %ymm1
	vmulps	%ymm3, %ymm1, %ymm1
	vmulps	%ymm3, %ymm0, %ymm0
	vaddps	%ymm0, %ymm4, %ymm0
	vmulps	%ymm3, %ymm0, %ymm0
	vaddps	%ymm0, %ymm4, %ymm0
	vmulps	%ymm3, %ymm0, %ymm0
	vaddps	%ymm0, %ymm4, %ymm0
	vmulps	%ymm3, %ymm0, %ymm0
	vaddps	%ymm1, %ymm4, %ymm1
	vmulps	%ymm3, %ymm1, %ymm1
	vaddps	%ymm1, %ymm4, %ymm1
	vmulps	%ymm3, %ymm1, %ymm1
	vaddps	%ymm1, %ymm4, %ymm1
	vmulps	%ymm3, %ymm1, %ymm1
	vaddps	%ymm1, %ymm4, %ymm1
	vaddps	%ymm0, %ymm4, %ymm0
	vmulps	%ymm3, %ymm0, %ymm0
	vaddps	%ymm0, %ymm4, %ymm0
	vmulps	%ymm3, %ymm0, %ymm0
	vaddps	%ymm0, %ymm4, %ymm0
	vmulps	%ymm3, %ymm0, %ymm0
	vaddps	%ymm0, %ymm4, %ymm0
	vmulps	%ymm3, %ymm1, %ymm1
	vaddps	%ymm1, %ymm4, %ymm1
	vmulps	%ymm3, %ymm1, %ymm1
	vaddps	%ymm1, %ymm4, %ymm1
	vmulps	%ymm3, %ymm1, %ymm1
	vaddps	%ymm1, %ymm4, %ymm1
	vmulps	%ymm3, %ymm1, %ymm1
	vmulps	%ymm3, %ymm0, %ymm0
	vaddps	%ymm0, %ymm4, %ymm0
	vmulps	%ymm3, %ymm0, %ymm0
	vaddps	%ymm0, %ymm4, %ymm0
	vmulps	%ymm3, %ymm0, %ymm0
	vaddps	%ymm0, %ymm4, %ymm0
	vmulps	%ymm3, %ymm0, %ymm0
	vaddps	%ymm1, %ymm4, %ymm1
	vmulps	%ymm3, %ymm1, %ymm1
	vaddps	%ymm1, %ymm4, %ymm1
	vmulps	%ymm3, %ymm1, %ymm1
	vaddps	%ymm1, %ymm4, %ymm1
	vmulps	%ymm3, %ymm1, %ymm1
	vaddps	%ymm1, %ymm4, %ymm1
	vaddps	%ymm0, %ymm4, %ymm0
	vmulps	%ymm3, %ymm0, %ymm0
	vaddps	%ymm0, %ymm4, %ymm0
	vmulps	%ymm3, %ymm0, %ymm0
	vaddps	%ymm0, %ymm4, %ymm0
	vmulps	%ymm3, %ymm0, %ymm0
	vaddps	%ymm0, %ymm4, %ymm0
	vmulps	%ymm3, %ymm1, %ymm1
	vaddps	%ymm1, %ymm4, %ymm1
	vmulps	%ymm3, %ymm1, %ymm1
	vaddps	%ymm1, %ymm4, %ymm1
	vmulps	%ymm3, %ymm1, %ymm1
	vaddps	%ymm1, %ymm4, %ymm1
	vmulps	%ymm3, %ymm1, %ymm1
	vmulps	%ymm3, %ymm0, %ymm0
	vaddps	%ymm0, %ymm4, %ymm0
	vmulps	%ymm3, %ymm0, %ymm0
	vaddps	%ymm0, %ymm4, %ymm0
	vmulps	%ymm3, %ymm0, %ymm0
	vaddps	%ymm0, %ymm4, %ymm0
	vmulps	%ymm3, %ymm0, %ymm0
	vaddps	%ymm1, %ymm4, %ymm1
	vmulps	%ymm3, %ymm1, %ymm1
	vaddps	%ymm1, %ymm4, %ymm1
	vmulps	%ymm3, %ymm1, %ymm1
	vaddps	%ymm1, %ymm4, %ymm1
	vmulps	%ymm3, %ymm1, %ymm1
	vaddps	%ymm1, %ymm4, %ymm1
	vaddps	%ymm0, %ymm4, %ymm0
	vmulps	%ymm3, %ymm0, %ymm0
	vaddps	%ymm0, %ymm4, %ymm0
	vmulps	%ymm3, %ymm0, %ymm0
	vaddps	%ymm0, %ymm4, %ymm0
	vmulps	%ymm3, %ymm0, %ymm0
	vaddps	%ymm0, %ymm4, %ymm0
	vmulps	%ymm3, %ymm1, %ymm1
	vaddps	%ymm1, %ymm4, %ymm1
	vmulps	%ymm3, %ymm1, %ymm1
	vaddps	%ymm1, %ymm4, %ymm1
	vmulps	%ymm3, %ymm1, %ymm1
	vaddps	%ymm1, %ymm4, %ymm1
	vmulps	%ymm3, %ymm1, %ymm1
	vmulps	%ymm3, %ymm0, %ymm0
	vaddps	%ymm0, %ymm4, %ymm0
	vmulps	%ymm3, %ymm0, %ymm0
	vaddps	%ymm0, %ymm4, %ymm0
	vmulps	%ymm3, %ymm0, %ymm0
	vaddps	%ymm0, %ymm4, %ymm0
	vmulps	%ymm3, %ymm0, %ymm0
	vaddps	%ymm1, %ymm4, %ymm1
	vmulps	%ymm3, %ymm1, %ymm1
	vaddps	%ymm1, %ymm4, %ymm1
	vmulps	%ymm3, %ymm1, %ymm1
	vaddps	%ymm1, %ymm4, %ymm1
	vmulps	%ymm3, %ymm1, %ymm1
	vaddps	%ymm1, %ymm4, %ymm1
	vaddps	%ymm0, %ymm4, %ymm0
	vmulps	%ymm3, %ymm0, %ymm0
	vaddps	%ymm0, %ymm4, %ymm0
	vmulps	%ymm3, %ymm0, %ymm0
	vaddps	%ymm0, %ymm4, %ymm0
	vmulps	%ymm3, %ymm0, %ymm0
	vaddps	%ymm0, %ymm4, %ymm0
	vmulps	%ymm3, %ymm1, %ymm1
	vaddps	%ymm1, %ymm4, %ymm1
	vmulps	%ymm3, %ymm1, %ymm1
	vaddps	%ymm1, %ymm4, %ymm1
	vmulps	%ymm3, %ymm1, %ymm1
	vaddps	%ymm1, %ymm4, %ymm1
	vmulps	%ymm3, %ymm1, %ymm1
	vmulps	%ymm3, %ymm0, %ymm0
	vaddps	%ymm0, %ymm4, %ymm0
	vmulps	%ymm3, %ymm0, %ymm0
	vaddps	%ymm0, %ymm4, %ymm0
	vmulps	%ymm3, %ymm0, %ymm0
	vaddps	%ymm0, %ymm4, %ymm0
	vmulps	%ymm3, %ymm0, %ymm0
	vaddps	%ymm1, %ymm4, %ymm1
	vmulps	%ymm3, %ymm1, %ymm1
	vaddps	%ymm1, %ymm4, %ymm1
	vmulps	%ymm3, %ymm1, %ymm1
	vaddps	%ymm1, %ymm4, %ymm1
	vmulps	%ymm3, %ymm1, %ymm1
	vaddps	%ymm1, %ymm4, %ymm1
	vaddps	%ymm0, %ymm4, %ymm0
	vmulps	%ymm3, %ymm0, %ymm0
	vaddps	%ymm0, %ymm4, %ymm0
	vmulps	%ymm3, %ymm0, %ymm0
	vaddps	%ymm0, %ymm4, %ymm0
	vmulps	%ymm3, %ymm0, %ymm0
	vaddps	%ymm0, %ymm4, %ymm0
	vmulps	%ymm3, %ymm1, %ymm1
	vaddps	%ymm1, %ymm4, %ymm1
	vmulps	%ymm3, %ymm1, %ymm1
	vaddps	%ymm1, %ymm4, %ymm1
	vmulps	%ymm3, %ymm1, %ymm1
	vaddps	%ymm1, %ymm4, %ymm1
	vmulps	%ymm3, %ymm1, %ymm1
	vmulps	%ymm3, %ymm0, %ymm0
	vaddps	%ymm0, %ymm4, %ymm0
	vmulps	%ymm3, %ymm0, %ymm0
	vaddps	%ymm0, %ymm4, %ymm0
	vmulps	%ymm3, %ymm0, %ymm0
	vaddps	%ymm0, %ymm4, %ymm0
	vmulps	%ymm3, %ymm0, %ymm0
	vaddps	%ymm1, %ymm4, %ymm1
	vmulps	%ymm3, %ymm1, %ymm1
	vaddps	%ymm1, %ymm4, %ymm1
	vmulps	%ymm3, %ymm1, %ymm1
	vaddps	%ymm1, %ymm4, %ymm1
	vmulps	%ymm3, %ymm1, %ymm1
	vaddps	%ymm1, %ymm4, %ymm1
	vaddps	%ymm0, %ymm4, %ymm0
	vmulps	%ymm3, %ymm0, %ymm0
	vaddps	%ymm0, %ymm4, %ymm0
	vmulps	%ymm3, %ymm0, %ymm0
	vaddps	%ymm0, %ymm4, %ymm0
	vmulps	%ymm3, %ymm0, %ymm0
	vaddps	%ymm0, %ymm4, %ymm0
	vmulps	%ymm3, %ymm1, %ymm1
	vaddps	%ymm1, %ymm4, %ymm1
	vmulps	%ymm3, %ymm1, %ymm1
	vaddps	%ymm1, %ymm4, %ymm1
	vmulps	%ymm3, %ymm1, %ymm1
	vaddps	%ymm1, %ymm4, %ymm1
	vmulps	%ymm3, %ymm1, %ymm1
	vmulps	%ymm3, %ymm0, %ymm0
	vaddps	%ymm0, %ymm4, %ymm0
	vmulps	%ymm3, %ymm0, %ymm0
	vaddps	%ymm0, %ymm4, %ymm0
	vmulps	%ymm3, %ymm0, %ymm0
	vaddps	%ymm0, %ymm4, %ymm0
	vmulps	%ymm3, %ymm0, %ymm0
	vaddps	%ymm1, %ymm4, %ymm1
	vmulps	%ymm3, %ymm1, %ymm1
	vaddps	%ymm1, %ymm4, %ymm1
	vmulps	%ymm3, %ymm1, %ymm1
	vaddps	%ymm1, %ymm4, %ymm1
	vmulps	%ymm3, %ymm1, %ymm1
	vaddps	%ymm1, %ymm4, %ymm1
	vaddps	%ymm0, %ymm4, %ymm0
	vmulps	%ymm3, %ymm0, %ymm0
	vaddps	%ymm0, %ymm4, %ymm0
	vmulps	%ymm3, %ymm0, %ymm0
	vaddps	%ymm0, %ymm4, %ymm0
	vmulps	%ymm3, %ymm0, %ymm0
	vaddps	%ymm0, %ymm4, %ymm0
	vmulps	%ymm3, %ymm1, %ymm1
	vaddps	%ymm1, %ymm4, %ymm1
	vmulps	%ymm3, %ymm1, %ymm1
	vaddps	%ymm1, %ymm4, %ymm1
	vmulps	%ymm3, %ymm1, %ymm1
	vaddps	%ymm1, %ymm4, %ymm1
	vmulps	%ymm3, %ymm1, %ymm1
	vmulps	%ymm3, %ymm0, %ymm0
	vaddps	%ymm0, %ymm4, %ymm0
	vmulps	%ymm3, %ymm0, %ymm0
	vaddps	%ymm0, %ymm4, %ymm0
	vmulps	%ymm3, %ymm0, %ymm0
	vaddps	%ymm0, %ymm4, %ymm0
	vmulps	%ymm3, %ymm0, %ymm0
	vaddps	%ymm1, %ymm4, %ymm1
	vmulps	%ymm3, %ymm1, %ymm1
	vaddps	%ymm1, %ymm4, %ymm1
	vmulps	%ymm3, %ymm1, %ymm1
	vaddps	%ymm1, %ymm4, %ymm1
	vmulps	%ymm3, %ymm1, %ymm1
	vaddps	%ymm1, %ymm4, %ymm1
	vaddps	%ymm0, %ymm4, %ymm0
	vmulps	%ymm3, %ymm0, %ymm0
	vaddps	%ymm0, %ymm4, %ymm0
	vmulps	%ymm3, %ymm0, %ymm0
	vaddps	%ymm0, %ymm4, %ymm0
	vmulps	%ymm3, %ymm0, %ymm0
	vaddps	%ymm0, %ymm4, %ymm0
	vmulps	%ymm3, %ymm1, %ymm1
	vaddps	%ymm1, %ymm4, %ymm1
	vmulps	%ymm3, %ymm1, %ymm1
	vaddps	%ymm1, %ymm4, %ymm1
	vmulps	%ymm3, %ymm1, %ymm1
	vaddps	%ymm1, %ymm4, %ymm1
	vmulps	%ymm3, %ymm1, %ymm1
	vmulps	%ymm3, %ymm0, %ymm0
	vaddps	%ymm0, %ymm4, %ymm0
	vmulps	%ymm3, %ymm0, %ymm0
	vaddps	%ymm0, %ymm4, %ymm0
	vmulps	%ymm3, %ymm0, %ymm0
	vaddps	%ymm0, %ymm4, %ymm0
	vmulps	%ymm3, %ymm0, %ymm0
	vaddps	%ymm1, %ymm4, %ymm1
	vmulps	%ymm3, %ymm1, %ymm1
	vaddps	%ymm1, %ymm4, %ymm1
	vmulps	%ymm3, %ymm1, %ymm1
	vaddps	%ymm1, %ymm4, %ymm1
	vmulps	%ymm3, %ymm1, %ymm1
	vaddps	%ymm1, %ymm4, %ymm1
	vaddps	%ymm0, %ymm4, %ymm0
	vmulps	%ymm3, %ymm0, %ymm0
	vaddps	%ymm0, %ymm4, %ymm0
	vmulps	%ymm3, %ymm0, %ymm0
	vaddps	%ymm0, %ymm4, %ymm0
	vmulps	%ymm3, %ymm0, %ymm0
	vaddps	%ymm0, %ymm4, %ymm0
	vmulps	%ymm3, %ymm1, %ymm1
	vaddps	%ymm1, %ymm4, %ymm1
	vmulps	%ymm3, %ymm1, %ymm1
	vaddps	%ymm1, %ymm4, %ymm1
	vmulps	%ymm3, %ymm1, %ymm1
	vaddps	%ymm1, %ymm4, %ymm1
	vmulps	%ymm3, %ymm1, %ymm1
	vmulps	%ymm3, %ymm0, %ymm0
	vaddps	%ymm0, %ymm4, %ymm0
	vmulps	%ymm3, %ymm0, %ymm0
	vaddps	%ymm0, %ymm4, %ymm0
	vmulps	%ymm3, %ymm0, %ymm0
	vaddps	%ymm0, %ymm4, %ymm0
	vmulps	%ymm3, %ymm0, %ymm0
	vaddps	%ymm1, %ymm4, %ymm1
	vmulps	%ymm3, %ymm1, %ymm1
	vaddps	%ymm1, %ymm4, %ymm1
	vmulps	%ymm3, %ymm1, %ymm1
	vaddps	%ymm1, %ymm4, %ymm1
	vmulps	%ymm3, %ymm1, %ymm1
	vaddps	%ymm1, %ymm4, %ymm1
	vaddps	%ymm0, %ymm4, %ymm0
	vmulps	%ymm3, %ymm0, %ymm0
	vaddps	%ymm0, %ymm4, %ymm0
	vmulps	%ymm3, %ymm0, %ymm0
	vaddps	%ymm0, %ymm4, %ymm0
	vmulps	%ymm3, %ymm0, %ymm0
	vaddps	%ymm0, %ymm4, %ymm0
	vmulps	%ymm3, %ymm1, %ymm1
	vaddps	%ymm1, %ymm4, %ymm1
	vmulps	%ymm3, %ymm1, %ymm1
	vaddps	%ymm1, %ymm4, %ymm1
	vmulps	%ymm3, %ymm1, %ymm1
	vaddps	%ymm1, %ymm4, %ymm1
	vmulps	%ymm3, %ymm1, %ymm1
	vmulps	%ymm3, %ymm0, %ymm0
	vaddps	%ymm0, %ymm4, %ymm0
	vmulps	%ymm3, %ymm0, %ymm0
	vaddps	%ymm0, %ymm4, %ymm0
	vmulps	%ymm3, %ymm0, %ymm0
	vaddps	%ymm0, %ymm4, %ymm0
	vmulps	%ymm3, %ymm0, %ymm0
	vaddps	%ymm1, %ymm4, %ymm1
	vmulps	%ymm3, %ymm1, %ymm1
	vaddps	%ymm1, %ymm4, %ymm1
	vmulps	%ymm3, %ymm1, %ymm1
	vaddps	%ymm1, %ymm4, %ymm1
	vmulps	%ymm3, %ymm1, %ymm1
	vaddps	%ymm1, %ymm4, %ymm1
	vaddps	%ymm0, %ymm4, %ymm0
	vmulps	%ymm3, %ymm0, %ymm0
	vaddps	%ymm0, %ymm4, %ymm0
	vmulps	%ymm3, %ymm0, %ymm0
	vaddps	%ymm0, %ymm4, %ymm0
	vmulps	%ymm3, %ymm0, %ymm0
	vaddps	%ymm0, %ymm4, %ymm0
	vmulps	%ymm3, %ymm1, %ymm1
	vaddps	%ymm1, %ymm4, %ymm1
	vmulps	%ymm3, %ymm1, %ymm1
	vaddps	%ymm1, %ymm4, %ymm1
	vmulps	%ymm3, %ymm1, %ymm1
	vaddps	%ymm1, %ymm4, %ymm1
	vmulps	%ymm3, %ymm1, %ymm1
	vmulps	%ymm3, %ymm0, %ymm0
	vaddps	%ymm0, %ymm4, %ymm0
	vmulps	%ymm3, %ymm0, %ymm0
	vaddps	%ymm0, %ymm4, %ymm0
	vmulps	%ymm3, %ymm0, %ymm0
	vaddps	%ymm0, %ymm4, %ymm0
	vmulps	%ymm3, %ymm0, %ymm0
	vaddps	%ymm1, %ymm4, %ymm1
	vmulps	%ymm3, %ymm1, %ymm1
	vaddps	%ymm1, %ymm4, %ymm1
	vmulps	%ymm3, %ymm1, %ymm1
	vaddps	%ymm1, %ymm4, %ymm1
	vmulps	%ymm3, %ymm1, %ymm1
	vaddps	%ymm1, %ymm4, %ymm1
	vaddps	%ymm0, %ymm4, %ymm0
	vmulps	%ymm3, %ymm0, %ymm0
	vaddps	%ymm0, %ymm4, %ymm0
	vmulps	%ymm3, %ymm0, %ymm0
	vaddps	%ymm0, %ymm4, %ymm0
	vmulps	%ymm3, %ymm0, %ymm0
	vaddps	%ymm0, %ymm4, %ymm0
	vmulps	%ymm3, %ymm1, %ymm1
	vaddps	%ymm1, %ymm4, %ymm1
	vmulps	%ymm3, %ymm1, %ymm1
	vaddps	%ymm1, %ymm4, %ymm1
	vmulps	%ymm3, %ymm1, %ymm1
	vaddps	%ymm1, %ymm4, %ymm1
	vmulps	%ymm3, %ymm1, %ymm1
	vmulps	%ymm3, %ymm0, %ymm0
	vaddps	%ymm0, %ymm4, %ymm0
	vmulps	%ymm3, %ymm0, %ymm0
	vaddps	%ymm0, %ymm4, %ymm0
	vmulps	%ymm3, %ymm0, %ymm0
	vaddps	%ymm0, %ymm4, %ymm0
	vmulps	%ymm3, %ymm0, %ymm0
	vaddps	%ymm1, %ymm4, %ymm1
	vmulps	%ymm3, %ymm1, %ymm1
	vaddps	%ymm1, %ymm4, %ymm1
	vmulps	%ymm3, %ymm1, %ymm1
	vaddps	%ymm1, %ymm4, %ymm1
	vmulps	%ymm3, %ymm1, %ymm1
	vaddps	%ymm1, %ymm4, %ymm1
	vaddps	%ymm0, %ymm4, %ymm0
	vmulps	%ymm3, %ymm0, %ymm0
	vaddps	%ymm0, %ymm4, %ymm0
	vmulps	%ymm3, %ymm0, %ymm0
	vaddps	%ymm0, %ymm4, %ymm0
	vmulps	%ymm3, %ymm0, %ymm0
	vaddps	%ymm0, %ymm4, %ymm0
	vmulps	%ymm3, %ymm1, %ymm1
	vaddps	%ymm1, %ymm4, %ymm1
	vmulps	%ymm3, %ymm1, %ymm1
	vaddps	%ymm1, %ymm4, %ymm1
	vmulps	%ymm3, %ymm1, %ymm1
	vaddps	%ymm1, %ymm4, %ymm1
	vmulps	%ymm3, %ymm1, %ymm1
	vmulps	%ymm3, %ymm0, %ymm0
	vaddps	%ymm0, %ymm4, %ymm0
	vmulps	%ymm3, %ymm0, %ymm0
	vaddps	%ymm0, %ymm4, %ymm0
	vmulps	%ymm3, %ymm0, %ymm0
	vaddps	%ymm0, %ymm4, %ymm0
	vmulps	%ymm3, %ymm0, %ymm0
	vaddps	%ymm1, %ymm4, %ymm1
	vmulps	%ymm3, %ymm1, %ymm1
	vaddps	%ymm1, %ymm4, %ymm1
	vmulps	%ymm3, %ymm1, %ymm1
	vaddps	%ymm1, %ymm4, %ymm1
	vmulps	%ymm3, %ymm1, %ymm1
	vaddps	%ymm1, %ymm4, %ymm1
	vaddps	%ymm0, %ymm4, %ymm0
	vmulps	%ymm3, %ymm0, %ymm0
	vaddps	%ymm0, %ymm4, %ymm0
	vmulps	%ymm3, %ymm0, %ymm0
	vaddps	%ymm0, %ymm4, %ymm0
	vmulps	%ymm3, %ymm0, %ymm0
	vaddps	%ymm0, %ymm4, %ymm0
	vmulps	%ymm3, %ymm1, %ymm1
	vaddps	%ymm1, %ymm4, %ymm1
	vmulps	%ymm3, %ymm1, %ymm1
	vaddps	%ymm1, %ymm4, %ymm1
	vmulps	%ymm3, %ymm1, %ymm1
	vaddps	%ymm1, %ymm4, %ymm1
	vmulps	%ymm3, %ymm1, %ymm1
	vmulps	%ymm3, %ymm0, %ymm0
	vaddps	%ymm0, %ymm4, %ymm0
	vmulps	%ymm3, %ymm0, %ymm0
	vaddps	%ymm0, %ymm4, %ymm0
	vmulps	%ymm3, %ymm0, %ymm0
	vaddps	%ymm0, %ymm4, %ymm0
	vmulps	%ymm3, %ymm0, %ymm0
	vaddps	%ymm1, %ymm4, %ymm1
	vmulps	%ymm3, %ymm1, %ymm1
	vaddps	%ymm1, %ymm4, %ymm1
	vmulps	%ymm3, %ymm1, %ymm1
	vaddps	%ymm1, %ymm4, %ymm1
	vmulps	%ymm3, %ymm1, %ymm1
	vaddps	%ymm1, %ymm4, %ymm1
	vaddps	%ymm0, %ymm4, %ymm0
	vmulps	%ymm3, %ymm0, %ymm0
	vaddps	%ymm0, %ymm4, %ymm0
	vmulps	%ymm3, %ymm0, %ymm0
	vaddps	%ymm0, %ymm4, %ymm0
	vmulps	%ymm3, %ymm0, %ymm0
	vaddps	%ymm0, %ymm4, %ymm0
	vmulps	%ymm3, %ymm1, %ymm1
	vaddps	%ymm1, %ymm4, %ymm1
	vmulps	%ymm3, %ymm1, %ymm1
	vaddps	%ymm1, %ymm4, %ymm1
	vmulps	%ymm3, %ymm1, %ymm1
	vaddps	%ymm1, %ymm4, %ymm1
	vmulps	%ymm3, %ymm1, %ymm1
	vmulps	%ymm3, %ymm0, %ymm0
	vaddps	%ymm0, %ymm4, %ymm0
	vmulps	%ymm3, %ymm0, %ymm0
	vaddps	%ymm0, %ymm4, %ymm0
	vmulps	%ymm3, %ymm0, %ymm0
	vaddps	%ymm0, %ymm4, %ymm0
	vmulps	%ymm3, %ymm0, %ymm0
	vaddps	%ymm1, %ymm4, %ymm1
	vmulps	%ymm3, %ymm1, %ymm1
	vaddps	%ymm1, %ymm4, %ymm1
	vmulps	%ymm3, %ymm1, %ymm1
	vaddps	%ymm1, %ymm4, %ymm1
	vmulps	%ymm3, %ymm1, %ymm1
	vaddps	%ymm1, %ymm4, %ymm1
	vaddps	%ymm0, %ymm4, %ymm0
	vmulps	%ymm3, %ymm0, %ymm0
	vaddps	%ymm0, %ymm4, %ymm0
	vmulps	%ymm3, %ymm0, %ymm0
	vaddps	%ymm0, %ymm4, %ymm0
	vmulps	%ymm3, %ymm0, %ymm0
	vaddps	%ymm0, %ymm4, %ymm0
	vmulps	%ymm3, %ymm1, %ymm1
	vaddps	%ymm1, %ymm4, %ymm1
	vmulps	%ymm3, %ymm1, %ymm1
	vaddps	%ymm1, %ymm4, %ymm1
	vmulps	%ymm3, %ymm1, %ymm1
	vaddps	%ymm1, %ymm4, %ymm1
	vmulps	%ymm3, %ymm1, %ymm1
	vmulps	%ymm3, %ymm0, %ymm0
	vaddps	%ymm0, %ymm4, %ymm0
	vmulps	%ymm3, %ymm0, %ymm0
	vaddps	%ymm0, %ymm4, %ymm0
	vmulps	%ymm3, %ymm0, %ymm0
	vaddps	%ymm0, %ymm4, %ymm0
	vmulps	%ymm3, %ymm0, %ymm0
	vaddps	%ymm1, %ymm4, %ymm1
	vmulps	%ymm3, %ymm1, %ymm1
	vaddps	%ymm1, %ymm4, %ymm1
	vmulps	%ymm3, %ymm1, %ymm1
	vaddps	%ymm1, %ymm4, %ymm1
	vmulps	%ymm3, %ymm1, %ymm1
	vaddps	%ymm1, %ymm4, %ymm1
	vaddps	%ymm0, %ymm4, %ymm0
	vmulps	%ymm3, %ymm0, %ymm0
	vaddps	%ymm0, %ymm4, %ymm0
	vmulps	%ymm3, %ymm0, %ymm0
	vaddps	%ymm0, %ymm4, %ymm0
	vmulps	%ymm3, %ymm0, %ymm0
	vaddps	%ymm0, %ymm4, %ymm0
	vmulps	%ymm3, %ymm1, %ymm1
	vaddps	%ymm1, %ymm4, %ymm1
	vmulps	%ymm3, %ymm1, %ymm1
	vaddps	%ymm1, %ymm4, %ymm1
	vmulps	%ymm3, %ymm1, %ymm1
	vaddps	%ymm1, %ymm4, %ymm1
	vmulps	%ymm3, %ymm1, %ymm1
	vmulps	%ymm3, %ymm0, %ymm0
	vaddps	%ymm0, %ymm4, %ymm0
	vmulps	%ymm3, %ymm0, %ymm0
	vaddps	%ymm0, %ymm4, %ymm0
	vmulps	%ymm3, %ymm0, %ymm0
	vaddps	%ymm0, %ymm4, %ymm0
	vmulps	%ymm3, %ymm0, %ymm0
	vaddps	%ymm1, %ymm4, %ymm1
	vmulps	%ymm3, %ymm1, %ymm1
	vaddps	%ymm1, %ymm4, %ymm1
	vmulps	%ymm3, %ymm1, %ymm1
	vaddps	%ymm1, %ymm4, %ymm1
	vmulps	%ymm3, %ymm1, %ymm1
	vaddps	%ymm1, %ymm4, %ymm1
	vaddps	%ymm0, %ymm4, %ymm0
	vmulps	%ymm3, %ymm0, %ymm0
	vaddps	%ymm0, %ymm4, %ymm0
	vmulps	%ymm3, %ymm0, %ymm0
	vaddps	%ymm0, %ymm4, %ymm0
	vmulps	%ymm3, %ymm0, %ymm0
	vaddps	%ymm0, %ymm4, %ymm0
	vmulps	%ymm3, %ymm1, %ymm1
	vaddps	%ymm1, %ymm4, %ymm1
	vmulps	%ymm3, %ymm1, %ymm1
	vaddps	%ymm1, %ymm4, %ymm1
	vmulps	%ymm3, %ymm1, %ymm1
	vaddps	%ymm1, %ymm4, %ymm1
	vmulps	%ymm3, %ymm1, %ymm1
	vmulps	%ymm3, %ymm0, %ymm0
	vaddps	%ymm0, %ymm4, %ymm0
	vmulps	%ymm3, %ymm0, %ymm0
	vaddps	%ymm0, %ymm4, %ymm0
	vmulps	%ymm3, %ymm0, %ymm0
	vaddps	%ymm0, %ymm4, %ymm0
	vmulps	%ymm3, %ymm0, %ymm0
	vaddps	%ymm1, %ymm4, %ymm1
	vmulps	%ymm3, %ymm1, %ymm1
	vaddps	%ymm1, %ymm4, %ymm1
	vmulps	%ymm3, %ymm1, %ymm1
	vaddps	%ymm1, %ymm4, %ymm1
	vmulps	%ymm3, %ymm1, %ymm1
	vaddps	%ymm1, %ymm4, %ymm1
	vaddps	%ymm0, %ymm4, %ymm0
	vmulps	%ymm3, %ymm0, %ymm0
	vaddps	%ymm0, %ymm4, %ymm0
	vmulps	%ymm3, %ymm0, %ymm0
	vaddps	%ymm0, %ymm4, %ymm0
	vmulps	%ymm3, %ymm0, %ymm0
	vaddps	%ymm0, %ymm4, %ymm0
	vmulps	%ymm3, %ymm1, %ymm1
	vaddps	%ymm1, %ymm4, %ymm1
	vmulps	%ymm3, %ymm1, %ymm1
	vaddps	%ymm1, %ymm4, %ymm1
	vmulps	%ymm3, %ymm1, %ymm1
	vaddps	%ymm1, %ymm4, %ymm1
	vmulps	%ymm3, %ymm1, %ymm1
	vmulps	%ymm3, %ymm0, %ymm0
	vaddps	%ymm0, %ymm4, %ymm0
	vmulps	%ymm3, %ymm0, %ymm0
	vaddps	%ymm0, %ymm4, %ymm0
	vmulps	%ymm3, %ymm0, %ymm0
	vaddps	%ymm0, %ymm4, %ymm0
	vmulps	%ymm3, %ymm0, %ymm0
	vaddps	%ymm1, %ymm4, %ymm1
	vmulps	%ymm3, %ymm1, %ymm1
	vaddps	%ymm1, %ymm4, %ymm1
	vmulps	%ymm3, %ymm1, %ymm1
	vaddps	%ymm1, %ymm4, %ymm1
	vmulps	%ymm3, %ymm1, %ymm1
	vaddps	%ymm1, %ymm4, %ymm1
	vaddps	%ymm0, %ymm4, %ymm0
	vmulps	%ymm3, %ymm0, %ymm0
	vaddps	%ymm0, %ymm4, %ymm0
	vmulps	%ymm3, %ymm0, %ymm0
	vaddps	%ymm0, %ymm4, %ymm0
	vmulps	%ymm3, %ymm0, %ymm0
	vaddps	%ymm0, %ymm4, %ymm0
	vmulps	%ymm3, %ymm1, %ymm1
	vaddps	%ymm1, %ymm4, %ymm1
	vmulps	%ymm3, %ymm1, %ymm1
	vaddps	%ymm1, %ymm4, %ymm1
	vmulps	%ymm3, %ymm1, %ymm1
	vaddps	%ymm1, %ymm4, %ymm1
	vmulps	%ymm3, %ymm1, %ymm1
	vmulps	%ymm3, %ymm0, %ymm0
	vaddps	%ymm0, %ymm4, %ymm0
	vmulps	%ymm3, %ymm0, %ymm0
	vaddps	%ymm0, %ymm4, %ymm0
	vmulps	%ymm3, %ymm0, %ymm0
	vaddps	%ymm0, %ymm4, %ymm0
	vmulps	%ymm3, %ymm0, %ymm0
	vaddps	%ymm1, %ymm4, %ymm1
	vmulps	%ymm3, %ymm1, %ymm1
	vaddps	%ymm1, %ymm4, %ymm1
	vmulps	%ymm3, %ymm1, %ymm1
	vaddps	%ymm1, %ymm4, %ymm1
	vmulps	%ymm3, %ymm1, %ymm1
	vaddps	%ymm1, %ymm4, %ymm1
	vaddps	%ymm0, %ymm4, %ymm0
	vmulps	%ymm3, %ymm0, %ymm0
	vaddps	%ymm0, %ymm4, %ymm0
	vmulps	%ymm3, %ymm0, %ymm0
	vaddps	%ymm0, %ymm4, %ymm0
	vmulps	%ymm3, %ymm0, %ymm0
	vaddps	%ymm0, %ymm4, %ymm0
	vmulps	%ymm3, %ymm1, %ymm1
	vaddps	%ymm1, %ymm4, %ymm1
	vmulps	%ymm3, %ymm1, %ymm1
	vaddps	%ymm1, %ymm4, %ymm1
	vmulps	%ymm3, %ymm1, %ymm1
	vaddps	%ymm1, %ymm4, %ymm1
	vmulps	%ymm3, %ymm1, %ymm1
	vmulps	%ymm3, %ymm0, %ymm0
	vaddps	%ymm0, %ymm4, %ymm0
	vmulps	%ymm3, %ymm0, %ymm0
	vaddps	%ymm0, %ymm4, %ymm0
	vmulps	%ymm3, %ymm0, %ymm0
	vaddps	%ymm0, %ymm4, %ymm0
	vmulps	%ymm3, %ymm0, %ymm0
	vaddps	%ymm1, %ymm4, %ymm1
	vmulps	%ymm3, %ymm1, %ymm1
	vaddps	%ymm1, %ymm4, %ymm1
	vmulps	%ymm3, %ymm1, %ymm1
	vaddps	%ymm1, %ymm4, %ymm1
	vmulps	%ymm3, %ymm1, %ymm1
	vaddps	%ymm1, %ymm4, %ymm1
	vaddps	%ymm0, %ymm4, %ymm0
	vmulps	%ymm3, %ymm0, %ymm0
	vaddps	%ymm0, %ymm4, %ymm0
	vmulps	%ymm3, %ymm0, %ymm0
	vaddps	%ymm0, %ymm4, %ymm0
	vmulps	%ymm3, %ymm0, %ymm0
	vaddps	%ymm0, %ymm4, %ymm0
	vmulps	%ymm3, %ymm1, %ymm1
	vaddps	%ymm1, %ymm4, %ymm1
	vmulps	%ymm3, %ymm1, %ymm1
	vaddps	%ymm1, %ymm4, %ymm1
	vmulps	%ymm3, %ymm1, %ymm1
	vaddps	%ymm1, %ymm4, %ymm1
	vmulps	%ymm3, %ymm1, %ymm1
	vmulps	%ymm3, %ymm0, %ymm0
	vaddps	%ymm0, %ymm4, %ymm0
	vmulps	%ymm3, %ymm0, %ymm0
	vaddps	%ymm0, %ymm4, %ymm0
	vmulps	%ymm3, %ymm0, %ymm0
	vaddps	%ymm0, %ymm4, %ymm0
	vmulps	%ymm3, %ymm0, %ymm0
	vaddps	%ymm1, %ymm4, %ymm1
	vmulps	%ymm3, %ymm1, %ymm1
	vaddps	%ymm1, %ymm4, %ymm1
	vmulps	%ymm3, %ymm1, %ymm1
	vaddps	%ymm1, %ymm4, %ymm1
	vmulps	%ymm3, %ymm1, %ymm1
	vaddps	%ymm1, %ymm4, %ymm1
	vaddps	%ymm0, %ymm4, %ymm0
	vmulps	%ymm3, %ymm0, %ymm0
	vaddps	%ymm0, %ymm4, %ymm0
	vmulps	%ymm3, %ymm0, %ymm0
	vaddps	%ymm0, %ymm4, %ymm0
	vmulps	%ymm3, %ymm0, %ymm0
	vaddps	%ymm0, %ymm4, %ymm0
	vmulps	%ymm3, %ymm1, %ymm1
	vaddps	%ymm1, %ymm4, %ymm1
	vmulps	%ymm3, %ymm1, %ymm1
	vaddps	%ymm1, %ymm4, %ymm1
	vmulps	%ymm3, %ymm1, %ymm1
	vaddps	%ymm1, %ymm4, %ymm1
	vmulps	%ymm3, %ymm1, %ymm1
	vmulps	%ymm3, %ymm0, %ymm0
	vaddps	%ymm0, %ymm4, %ymm0
	vmulps	%ymm3, %ymm0, %ymm0
	vaddps	%ymm0, %ymm4, %ymm0
	vmulps	%ymm3, %ymm0, %ymm0
	vaddps	%ymm0, %ymm4, %ymm0
	vmulps	%ymm3, %ymm0, %ymm0
	vaddps	%ymm1, %ymm4, %ymm1
	vmulps	%ymm3, %ymm1, %ymm1
	vaddps	%ymm1, %ymm4, %ymm1
	vmulps	%ymm3, %ymm1, %ymm1
	vaddps	%ymm1, %ymm4, %ymm1
	vmulps	%ymm3, %ymm1, %ymm1
	vaddps	%ymm1, %ymm4, %ymm1
	vaddps	%ymm0, %ymm4, %ymm0
	vmulps	%ymm3, %ymm0, %ymm0
	vaddps	%ymm0, %ymm4, %ymm0
	vmulps	%ymm3, %ymm0, %ymm0
	vaddps	%ymm0, %ymm4, %ymm0
	vmulps	%ymm3, %ymm0, %ymm0
	vaddps	%ymm0, %ymm4, %ymm0
	vmulps	%ymm3, %ymm1, %ymm1
	vaddps	%ymm1, %ymm4, %ymm1
	vmulps	%ymm3, %ymm1, %ymm1
	vaddps	%ymm1, %ymm4, %ymm1
	vmulps	%ymm3, %ymm1, %ymm1
	vaddps	%ymm1, %ymm4, %ymm1
	vmulps	%ymm3, %ymm1, %ymm1
	vmulps	%ymm3, %ymm0, %ymm0
	vaddps	%ymm0, %ymm4, %ymm0
	vmulps	%ymm3, %ymm0, %ymm0
	vaddps	%ymm0, %ymm4, %ymm0
	vmulps	%ymm3, %ymm0, %ymm0
	vaddps	%ymm0, %ymm4, %ymm0
	vmulps	%ymm3, %ymm0, %ymm0
	vaddps	%ymm1, %ymm4, %ymm1
	vmulps	%ymm3, %ymm1, %ymm1
	vaddps	%ymm1, %ymm4, %ymm1
	vmulps	%ymm3, %ymm1, %ymm1
	vaddps	%ymm1, %ymm4, %ymm1
	vmulps	%ymm3, %ymm1, %ymm1
	vaddps	%ymm1, %ymm4, %ymm1
	vaddps	%ymm0, %ymm4, %ymm0
	vmulps	%ymm3, %ymm0, %ymm0
	vaddps	%ymm0, %ymm4, %ymm0
	vmulps	%ymm3, %ymm0, %ymm0
	vaddps	%ymm0, %ymm4, %ymm0
	vmulps	%ymm3, %ymm0, %ymm0
	vaddps	%ymm0, %ymm4, %ymm0
	vmulps	%ymm3, %ymm1, %ymm1
	vaddps	%ymm1, %ymm4, %ymm1
	vmulps	%ymm3, %ymm1, %ymm1
	vaddps	%ymm1, %ymm4, %ymm1
	vmulps	%ymm3, %ymm1, %ymm1
	vaddps	%ymm1, %ymm4, %ymm1
	vmulps	%ymm3, %ymm1, %ymm1
	vmulps	%ymm3, %ymm0, %ymm0
	vaddps	%ymm0, %ymm4, %ymm0
	vmulps	%ymm3, %ymm0, %ymm0
	vaddps	%ymm0, %ymm4, %ymm0
	vmulps	%ymm3, %ymm0, %ymm0
	vaddps	%ymm0, %ymm4, %ymm0
	vmulps	%ymm3, %ymm0, %ymm0
	vaddps	%ymm1, %ymm4, %ymm1
	vmulps	%ymm3, %ymm1, %ymm1
	vaddps	%ymm1, %ymm4, %ymm1
	vmulps	%ymm3, %ymm1, %ymm1
	vaddps	%ymm1, %ymm4, %ymm1
	vmulps	%ymm3, %ymm1, %ymm1
	vaddps	%ymm1, %ymm4, %ymm1
	vaddps	%ymm0, %ymm4, %ymm0
	vmulps	%ymm3, %ymm0, %ymm0
	vaddps	%ymm0, %ymm4, %ymm0
	vmulps	%ymm3, %ymm0, %ymm0
	vaddps	%ymm0, %ymm4, %ymm0
	vmulps	%ymm3, %ymm0, %ymm0
	vaddps	%ymm0, %ymm4, %ymm0
	vmulps	%ymm3, %ymm1, %ymm1
	vaddps	%ymm1, %ymm4, %ymm1
	vmulps	%ymm3, %ymm1, %ymm1
	vaddps	%ymm1, %ymm4, %ymm1
	vmulps	%ymm3, %ymm1, %ymm1
	vaddps	%ymm1, %ymm4, %ymm1
	vmulps	%ymm3, %ymm1, %ymm1
	vmulps	%ymm3, %ymm0, %ymm0
	vaddps	%ymm0, %ymm4, %ymm0
	vmulps	%ymm3, %ymm0, %ymm0
	vaddps	%ymm0, %ymm4, %ymm0
	vmulps	%ymm3, %ymm0, %ymm0
	vaddps	%ymm0, %ymm4, %ymm0
	vmulps	%ymm3, %ymm0, %ymm0
	vaddps	%ymm1, %ymm4, %ymm1
	vmulps	%ymm3, %ymm1, %ymm1
	vaddps	%ymm1, %ymm4, %ymm1
	vmulps	%ymm3, %ymm1, %ymm1
	vaddps	%ymm1, %ymm4, %ymm1
	vmulps	%ymm3, %ymm1, %ymm1
	vaddps	%ymm1, %ymm4, %ymm1
	vaddps	%ymm0, %ymm4, %ymm0
	vmulps	%ymm3, %ymm0, %ymm0
	vaddps	%ymm0, %ymm4, %ymm0
	vmulps	%ymm3, %ymm0, %ymm0
	vaddps	%ymm0, %ymm4, %ymm0
	vmulps	%ymm3, %ymm0, %ymm0
	vaddps	%ymm0, %ymm4, %ymm0
	vmulps	%ymm3, %ymm1, %ymm1
	vaddps	%ymm1, %ymm4, %ymm1
	vmulps	%ymm3, %ymm1, %ymm1
	vaddps	%ymm1, %ymm4, %ymm1
	vmulps	%ymm3, %ymm1, %ymm1
	vaddps	%ymm1, %ymm4, %ymm1
	vmulps	%ymm3, %ymm1, %ymm1
	vmulps	%ymm3, %ymm0, %ymm0
	vaddps	%ymm0, %ymm4, %ymm0
	vmulps	%ymm3, %ymm0, %ymm0
	vaddps	%ymm0, %ymm4, %ymm0
	vmulps	%ymm3, %ymm0, %ymm0
	vaddps	%ymm0, %ymm4, %ymm0
	vmulps	%ymm3, %ymm0, %ymm0
	vaddps	%ymm1, %ymm4, %ymm1
	vmulps	%ymm3, %ymm1, %ymm1
	vaddps	%ymm1, %ymm4, %ymm1
	vmulps	%ymm3, %ymm1, %ymm1
	vaddps	%ymm1, %ymm4, %ymm1
	vmulps	%ymm3, %ymm1, %ymm1
	vaddps	%ymm1, %ymm4, %ymm1
	vaddps	%ymm0, %ymm4, %ymm0
	vmulps	%ymm3, %ymm0, %ymm0
	vaddps	%ymm0, %ymm4, %ymm0
	vmulps	%ymm3, %ymm0, %ymm0
	vaddps	%ymm0, %ymm4, %ymm0
	vmulps	%ymm3, %ymm0, %ymm0
	vaddps	%ymm0, %ymm4, %ymm0
	vmulps	%ymm3, %ymm1, %ymm1
	vaddps	%ymm1, %ymm4, %ymm1
	vmulps	%ymm3, %ymm1, %ymm1
	vaddps	%ymm1, %ymm4, %ymm1
	vmulps	%ymm3, %ymm1, %ymm1
	vaddps	%ymm1, %ymm4, %ymm1
	vmulps	%ymm3, %ymm1, %ymm1
	vmulps	%ymm3, %ymm0, %ymm0
	vaddps	%ymm0, %ymm4, %ymm0
	vmulps	%ymm3, %ymm0, %ymm0
	vaddps	%ymm0, %ymm4, %ymm0
	vmulps	%ymm3, %ymm0, %ymm0
	vaddps	%ymm0, %ymm4, %ymm0
	vmulps	%ymm3, %ymm0, %ymm0
	vaddps	%ymm1, %ymm4, %ymm1
	vmulps	%ymm3, %ymm1, %ymm1
	vaddps	%ymm1, %ymm4, %ymm1
	vmulps	%ymm3, %ymm1, %ymm1
	vaddps	%ymm1, %ymm4, %ymm1
	vmulps	%ymm3, %ymm1, %ymm1
	vaddps	%ymm1, %ymm4, %ymm1
	vaddps	%ymm0, %ymm4, %ymm0
	vmulps	%ymm3, %ymm0, %ymm0
	vaddps	%ymm0, %ymm4, %ymm0
	vmulps	%ymm3, %ymm0, %ymm0
	vaddps	%ymm0, %ymm4, %ymm0
	vmulps	%ymm3, %ymm0, %ymm0
	vaddps	%ymm0, %ymm4, %ymm0
	vmulps	%ymm3, %ymm1, %ymm1
	vaddps	%ymm1, %ymm4, %ymm1
	vmulps	%ymm3, %ymm1, %ymm1
	vaddps	%ymm1, %ymm4, %ymm1
	vmulps	%ymm3, %ymm1, %ymm1
	vaddps	%ymm1, %ymm4, %ymm1
	vmulps	%ymm3, %ymm1, %ymm1
	vmulps	%ymm3, %ymm0, %ymm0
	vaddps	%ymm0, %ymm4, %ymm0
	vmulps	%ymm3, %ymm0, %ymm0
	vaddps	%ymm0, %ymm4, %ymm0
	vmulps	%ymm3, %ymm0, %ymm0
	vaddps	%ymm0, %ymm4, %ymm0
	vmulps	%ymm3, %ymm0, %ymm0
	vaddps	%ymm1, %ymm4, %ymm1
	vmulps	%ymm3, %ymm1, %ymm1
	vaddps	%ymm1, %ymm4, %ymm1
	vmulps	%ymm3, %ymm1, %ymm1
	vaddps	%ymm1, %ymm4, %ymm1
	vmulps	%ymm3, %ymm1, %ymm1
	vaddps	%ymm1, %ymm4, %ymm1
	vaddps	%ymm0, %ymm4, %ymm0
	vmulps	%ymm3, %ymm0, %ymm0
	vaddps	%ymm0, %ymm4, %ymm0
	vmulps	%ymm3, %ymm0, %ymm0
	vaddps	%ymm0, %ymm4, %ymm0
	vmulps	%ymm3, %ymm0, %ymm0
	vaddps	%ymm0, %ymm4, %ymm0
	vmulps	%ymm3, %ymm1, %ymm1
	vaddps	%ymm1, %ymm4, %ymm1
	vmulps	%ymm3, %ymm1, %ymm1
	vaddps	%ymm1, %ymm4, %ymm1
	vmulps	%ymm3, %ymm1, %ymm1
	vaddps	%ymm1, %ymm4, %ymm1
	vmulps	%ymm3, %ymm1, %ymm1
	vmulps	%ymm3, %ymm0, %ymm0
	vaddps	%ymm0, %ymm4, %ymm0
	vmulps	%ymm3, %ymm0, %ymm0
	vaddps	%ymm0, %ymm4, %ymm0
	vmulps	%ymm3, %ymm0, %ymm0
	vaddps	%ymm0, %ymm4, %ymm0
	vmulps	%ymm3, %ymm0, %ymm0
	vaddps	%ymm1, %ymm4, %ymm1
	vmulps	%ymm3, %ymm1, %ymm1
	vaddps	%ymm1, %ymm4, %ymm1
	vmulps	%ymm3, %ymm1, %ymm1
	vaddps	%ymm1, %ymm4, %ymm1
	vmulps	%ymm3, %ymm1, %ymm1
	vaddps	%ymm1, %ymm4, %ymm1
	vaddps	%ymm0, %ymm4, %ymm0
	vmulps	%ymm3, %ymm0, %ymm0
	vaddps	%ymm0, %ymm4, %ymm0
	vmulps	%ymm3, %ymm0, %ymm0
	vaddps	%ymm0, %ymm4, %ymm0
	vmulps	%ymm3, %ymm0, %ymm0
	vaddps	%ymm0, %ymm4, %ymm0
	vmulps	%ymm3, %ymm1, %ymm1
	vaddps	%ymm1, %ymm4, %ymm1
	vmulps	%ymm3, %ymm1, %ymm1
	vaddps	%ymm1, %ymm4, %ymm1
	vmulps	%ymm3, %ymm1, %ymm1
	vaddps	%ymm1, %ymm4, %ymm1
	vmulps	%ymm3, %ymm1, %ymm1
	vmulps	%ymm3, %ymm0, %ymm0
	vaddps	%ymm0, %ymm4, %ymm0
	vmulps	%ymm3, %ymm0, %ymm0
	vaddps	%ymm0, %ymm4, %ymm0
	vmulps	%ymm3, %ymm0, %ymm0
	vaddps	%ymm0, %ymm4, %ymm0
	vmulps	%ymm3, %ymm0, %ymm0
	vaddps	%ymm1, %ymm4, %ymm1
	vmulps	%ymm3, %ymm1, %ymm1
	vaddps	%ymm1, %ymm4, %ymm1
	vmulps	%ymm3, %ymm1, %ymm1
	vaddps	%ymm1, %ymm4, %ymm1
	vmulps	%ymm3, %ymm1, %ymm1
	vaddps	%ymm1, %ymm4, %ymm1
	vaddps	%ymm0, %ymm4, %ymm0
	vmulps	%ymm3, %ymm0, %ymm0
	vaddps	%ymm0, %ymm4, %ymm0
	vmulps	%ymm3, %ymm0, %ymm0
	vaddps	%ymm0, %ymm4, %ymm0
	vmulps	%ymm3, %ymm0, %ymm0
	vaddps	%ymm0, %ymm4, %ymm0
	vmulps	%ymm3, %ymm1, %ymm1
	vaddps	%ymm1, %ymm4, %ymm1
	vmulps	%ymm3, %ymm1, %ymm1
	vaddps	%ymm1, %ymm4, %ymm1
	vmulps	%ymm3, %ymm1, %ymm1
	vaddps	%ymm1, %ymm4, %ymm1
	vmulps	%ymm3, %ymm1, %ymm1
	vmulps	%ymm3, %ymm0, %ymm0
	vaddps	%ymm0, %ymm4, %ymm0
	vmulps	%ymm3, %ymm0, %ymm0
	vaddps	%ymm0, %ymm4, %ymm0
	vmulps	%ymm3, %ymm0, %ymm0
	vaddps	%ymm0, %ymm4, %ymm0
	vmulps	%ymm3, %ymm0, %ymm0
	vaddps	%ymm1, %ymm4, %ymm1
	vmulps	%ymm3, %ymm1, %ymm1
	vaddps	%ymm1, %ymm4, %ymm1
	vmulps	%ymm3, %ymm1, %ymm1
	vaddps	%ymm1, %ymm4, %ymm1
	vmulps	%ymm3, %ymm1, %ymm1
	vaddps	%ymm1, %ymm4, %ymm1
	vaddps	%ymm0, %ymm4, %ymm0
	vmulps	%ymm3, %ymm0, %ymm0
	vaddps	%ymm0, %ymm4, %ymm0
	vmulps	%ymm3, %ymm0, %ymm0
	vaddps	%ymm0, %ymm4, %ymm0
	vmulps	%ymm3, %ymm0, %ymm0
	vaddps	%ymm0, %ymm4, %ymm0
	vmulps	%ymm3, %ymm1, %ymm1
	vaddps	%ymm1, %ymm4, %ymm1
	vmulps	%ymm3, %ymm1, %ymm1
	vaddps	%ymm1, %ymm4, %ymm1
	vmulps	%ymm3, %ymm1, %ymm1
	vaddps	%ymm1, %ymm4, %ymm1
	vmulps	%ymm3, %ymm1, %ymm1
	vmulps	%ymm3, %ymm0, %ymm0
	vaddps	%ymm0, %ymm4, %ymm0
	vmulps	%ymm3, %ymm0, %ymm0
	vaddps	%ymm0, %ymm4, %ymm0
	vmulps	%ymm3, %ymm0, %ymm0
	vaddps	%ymm0, %ymm4, %ymm0
	vmulps	%ymm3, %ymm0, %ymm0
	vaddps	%ymm1, %ymm4, %ymm1
	vmulps	%ymm3, %ymm1, %ymm1
	vaddps	%ymm1, %ymm4, %ymm1
	vmulps	%ymm3, %ymm1, %ymm1
	vaddps	%ymm1, %ymm4, %ymm1
	vmulps	%ymm3, %ymm1, %ymm1
	vaddps	%ymm1, %ymm4, %ymm1
	vaddps	%ymm0, %ymm4, %ymm0
	vmulps	%ymm3, %ymm0, %ymm0
	vaddps	%ymm0, %ymm4, %ymm0
	vmulps	%ymm3, %ymm0, %ymm0
	vaddps	%ymm0, %ymm4, %ymm0
	vmulps	%ymm3, %ymm0, %ymm0
	vaddps	%ymm0, %ymm4, %ymm0
	vmulps	%ymm3, %ymm1, %ymm1
	vaddps	%ymm1, %ymm4, %ymm1
	vmulps	%ymm3, %ymm1, %ymm1
	vaddps	%ymm1, %ymm4, %ymm1
	vmulps	%ymm3, %ymm1, %ymm1
	vaddps	%ymm1, %ymm4, %ymm1
	vmulps	%ymm3, %ymm1, %ymm1
	vmulps	%ymm3, %ymm0, %ymm0
	vaddps	%ymm0, %ymm4, %ymm0
	vmulps	%ymm3, %ymm0, %ymm0
	vaddps	%ymm0, %ymm4, %ymm0
	vmulps	%ymm3, %ymm0, %ymm0
	vaddps	%ymm0, %ymm4, %ymm0
	vmulps	%ymm3, %ymm0, %ymm0
	vaddps	%ymm1, %ymm4, %ymm1
	vmulps	%ymm3, %ymm1, %ymm1
	vaddps	%ymm1, %ymm4, %ymm1
	vmulps	%ymm3, %ymm1, %ymm1
	vaddps	%ymm1, %ymm4, %ymm1
	vmulps	%ymm3, %ymm1, %ymm1
	vaddps	%ymm1, %ymm4, %ymm1
	vaddps	%ymm0, %ymm4, %ymm0
	vmulps	%ymm3, %ymm0, %ymm0
	vaddps	%ymm0, %ymm4, %ymm0
	vmulps	%ymm3, %ymm0, %ymm0
	vaddps	%ymm0, %ymm4, %ymm0
	vmulps	%ymm3, %ymm0, %ymm0
	vaddps	%ymm0, %ymm4, %ymm0
	vmulps	%ymm3, %ymm1, %ymm1
	vaddps	%ymm1, %ymm4, %ymm1
	vmulps	%ymm3, %ymm1, %ymm1
	vaddps	%ymm1, %ymm4, %ymm1
	vmulps	%ymm3, %ymm1, %ymm1
	vaddps	%ymm1, %ymm4, %ymm1
	vmulps	%ymm3, %ymm1, %ymm1
	vmulps	%ymm3, %ymm0, %ymm0
	vaddps	%ymm0, %ymm4, %ymm0
	vmulps	%ymm3, %ymm0, %ymm0
	vaddps	%ymm0, %ymm4, %ymm0
	vmulps	%ymm3, %ymm0, %ymm0
	vaddps	%ymm0, %ymm4, %ymm0
	vmulps	%ymm3, %ymm0, %ymm0
	vaddps	%ymm1, %ymm4, %ymm1
	vmulps	%ymm3, %ymm1, %ymm1
	vaddps	%ymm1, %ymm4, %ymm1
	vmulps	%ymm3, %ymm1, %ymm1
	vaddps	%ymm1, %ymm4, %ymm1
	vmulps	%ymm3, %ymm1, %ymm1
	vaddps	%ymm1, %ymm4, %ymm1
	vaddps	%ymm0, %ymm4, %ymm0
	vmulps	%ymm3, %ymm0, %ymm0
	vaddps	%ymm0, %ymm4, %ymm0
	vmulps	%ymm3, %ymm0, %ymm0
	vaddps	%ymm0, %ymm4, %ymm0
	vmulps	%ymm3, %ymm0, %ymm0
	vaddps	%ymm0, %ymm4, %ymm0
	vmulps	%ymm3, %ymm1, %ymm1
	vaddps	%ymm1, %ymm4, %ymm1
	vmulps	%ymm3, %ymm1, %ymm1
	vaddps	%ymm1, %ymm4, %ymm1
	vmulps	%ymm3, %ymm1, %ymm1
	vaddps	%ymm1, %ymm4, %ymm1
	vmulps	%ymm3, %ymm1, %ymm1
	vmulps	%ymm3, %ymm0, %ymm0
	vaddps	%ymm0, %ymm4, %ymm0
	vmulps	%ymm3, %ymm0, %ymm0
	vaddps	%ymm0, %ymm4, %ymm0
	vmulps	%ymm3, %ymm0, %ymm0
	vaddps	%ymm0, %ymm4, %ymm0
	vmulps	%ymm3, %ymm0, %ymm0
	vaddps	%ymm1, %ymm4, %ymm1
	vmulps	%ymm3, %ymm1, %ymm1
	vaddps	%ymm1, %ymm4, %ymm1
	vmulps	%ymm3, %ymm1, %ymm1
	vaddps	%ymm1, %ymm4, %ymm1
	vmulps	%ymm3, %ymm1, %ymm1
	vaddps	%ymm1, %ymm4, %ymm1
	vaddps	%ymm0, %ymm4, %ymm0
	vmulps	%ymm3, %ymm0, %ymm0
	vaddps	%ymm0, %ymm4, %ymm0
	vmulps	%ymm3, %ymm0, %ymm0
	vaddps	%ymm0, %ymm4, %ymm0
	vmulps	%ymm3, %ymm0, %ymm0
	vaddps	%ymm0, %ymm4, %ymm0
	vmulps	%ymm3, %ymm1, %ymm1
	vaddps	%ymm1, %ymm4, %ymm1
	vmulps	%ymm3, %ymm1, %ymm1
	vaddps	%ymm1, %ymm4, %ymm1
	vmulps	%ymm3, %ymm1, %ymm1
	vaddps	%ymm1, %ymm4, %ymm1
	vmulps	%ymm3, %ymm1, %ymm1
	vmulps	%ymm3, %ymm0, %ymm0
	vaddps	%ymm0, %ymm4, %ymm0
	vmulps	%ymm3, %ymm0, %ymm0
	vaddps	%ymm0, %ymm4, %ymm0
	vmulps	%ymm3, %ymm0, %ymm0
	vaddps	%ymm0, %ymm4, %ymm0
	vmulps	%ymm3, %ymm0, %ymm0
	vaddps	%ymm1, %ymm4, %ymm1
	vmulps	%ymm3, %ymm1, %ymm1
	vaddps	%ymm1, %ymm4, %ymm1
	vmulps	%ymm3, %ymm1, %ymm1
	vaddps	%ymm1, %ymm4, %ymm1
	vmulps	%ymm3, %ymm1, %ymm1
	vaddps	%ymm1, %ymm4, %ymm1
	vaddps	%ymm0, %ymm4, %ymm0
	vmulps	%ymm3, %ymm0, %ymm0
	vaddps	%ymm0, %ymm4, %ymm0
	vmulps	%ymm3, %ymm0, %ymm0
	vaddps	%ymm0, %ymm4, %ymm0
	vmulps	%ymm3, %ymm0, %ymm0
	vaddps	%ymm0, %ymm4, %ymm0
	vmulps	%ymm3, %ymm1, %ymm1
	vaddps	%ymm1, %ymm4, %ymm1
	vmulps	%ymm3, %ymm1, %ymm1
	vaddps	%ymm1, %ymm4, %ymm1
	vmulps	%ymm3, %ymm1, %ymm1
	vaddps	%ymm1, %ymm4, %ymm1
	vmulps	%ymm3, %ymm1, %ymm1
	vmulps	%ymm3, %ymm0, %ymm0
	vaddps	%ymm0, %ymm4, %ymm0
	vmulps	%ymm3, %ymm0, %ymm0
	vaddps	%ymm0, %ymm4, %ymm0
	vmulps	%ymm3, %ymm0, %ymm0
	vaddps	%ymm0, %ymm4, %ymm0
	vmulps	%ymm3, %ymm0, %ymm0
	vaddps	%ymm1, %ymm4, %ymm1
	vmulps	%ymm3, %ymm1, %ymm1
	vaddps	%ymm1, %ymm4, %ymm1
	vmulps	%ymm3, %ymm1, %ymm1
	vaddps	%ymm1, %ymm4, %ymm1
	vmulps	%ymm3, %ymm1, %ymm1
	vaddps	%ymm1, %ymm4, %ymm1
	vaddps	%ymm0, %ymm4, %ymm0
	vmulps	%ymm3, %ymm0, %ymm0
	vaddps	%ymm0, %ymm4, %ymm0
	vmulps	%ymm3, %ymm0, %ymm0
	vaddps	%ymm0, %ymm4, %ymm0
	vmulps	%ymm3, %ymm0, %ymm0
	vaddps	%ymm0, %ymm4, %ymm0
	vmulps	%ymm3, %ymm1, %ymm1
	vaddps	%ymm1, %ymm4, %ymm1
	vmulps	%ymm3, %ymm1, %ymm1
	vaddps	%ymm1, %ymm4, %ymm1
	vmulps	%ymm3, %ymm1, %ymm1
	vaddps	%ymm1, %ymm4, %ymm1
	vmulps	%ymm3, %ymm1, %ymm1
	vmulps	%ymm3, %ymm0, %ymm0
	vaddps	%ymm0, %ymm4, %ymm0
	vmulps	%ymm3, %ymm0, %ymm0
	vaddps	%ymm0, %ymm4, %ymm0
	vmulps	%ymm3, %ymm0, %ymm0
	vaddps	%ymm0, %ymm4, %ymm0
	vmulps	%ymm3, %ymm0, %ymm0
	vaddps	%ymm1, %ymm4, %ymm1
	vmulps	%ymm3, %ymm1, %ymm1
	vaddps	%ymm1, %ymm4, %ymm1
	vmulps	%ymm3, %ymm1, %ymm1
	vaddps	%ymm1, %ymm4, %ymm1
	vmulps	%ymm3, %ymm1, %ymm1
	vaddps	%ymm1, %ymm4, %ymm1
	vaddps	%ymm0, %ymm4, %ymm0
	vmulps	%ymm3, %ymm0, %ymm0
	vaddps	%ymm0, %ymm4, %ymm0
	vmulps	%ymm3, %ymm0, %ymm0
	vaddps	%ymm0, %ymm4, %ymm0
	vmulps	%ymm3, %ymm0, %ymm0
	vaddps	%ymm0, %ymm4, %ymm0
	vmulps	%ymm3, %ymm1, %ymm1
	vaddps	%ymm1, %ymm4, %ymm1
	vmulps	%ymm3, %ymm1, %ymm1
	vaddps	%ymm1, %ymm4, %ymm1
	vmulps	%ymm3, %ymm1, %ymm1
	vaddps	%ymm1, %ymm4, %ymm1
	vmulps	%ymm3, %ymm1, %ymm1
	vmulps	%ymm3, %ymm0, %ymm0
	vaddps	%ymm0, %ymm4, %ymm0
	vmulps	%ymm3, %ymm0, %ymm0
	vaddps	%ymm0, %ymm4, %ymm0
	vmulps	%ymm3, %ymm0, %ymm0
	vaddps	%ymm0, %ymm4, %ymm0
	vmulps	%ymm3, %ymm0, %ymm0
	vaddps	%ymm1, %ymm4, %ymm1
	vmulps	%ymm3, %ymm1, %ymm1
	vaddps	%ymm1, %ymm4, %ymm1
	vmulps	%ymm3, %ymm1, %ymm1
	vaddps	%ymm1, %ymm4, %ymm1
	vmulps	%ymm3, %ymm1, %ymm1
	vaddps	%ymm1, %ymm4, %ymm1
	vaddps	%ymm0, %ymm4, %ymm0
	vmulps	%ymm3, %ymm0, %ymm0
	vaddps	%ymm0, %ymm4, %ymm0
	vmulps	%ymm3, %ymm0, %ymm0
	vaddps	%ymm0, %ymm4, %ymm0
	vmulps	%ymm3, %ymm0, %ymm0
	vaddps	%ymm0, %ymm4, %ymm0
	vmulps	%ymm3, %ymm1, %ymm1
	vaddps	%ymm1, %ymm4, %ymm1
	vmulps	%ymm3, %ymm1, %ymm1
	vaddps	%ymm1, %ymm4, %ymm1
	vmulps	%ymm3, %ymm1, %ymm1
	vaddps	%ymm1, %ymm4, %ymm1
	vmulps	%ymm3, %ymm1, %ymm1
	vmulps	%ymm3, %ymm0, %ymm0
	vaddps	%ymm0, %ymm4, %ymm0
	vmulps	%ymm3, %ymm0, %ymm0
	vaddps	%ymm0, %ymm4, %ymm0
	vmulps	%ymm3, %ymm0, %ymm0
	vaddps	%ymm0, %ymm4, %ymm0
	vmulps	%ymm3, %ymm0, %ymm0
	vaddps	%ymm1, %ymm4, %ymm1
	vmulps	%ymm3, %ymm1, %ymm1
	vaddps	%ymm1, %ymm4, %ymm1
	vmulps	%ymm3, %ymm1, %ymm1
	vaddps	%ymm1, %ymm4, %ymm1
	vmulps	%ymm3, %ymm1, %ymm1
	vaddps	%ymm1, %ymm4, %ymm1
	vaddps	%ymm0, %ymm4, %ymm0
	vmulps	%ymm3, %ymm0, %ymm0
	vaddps	%ymm0, %ymm4, %ymm0
	vmulps	%ymm3, %ymm0, %ymm0
	vaddps	%ymm0, %ymm4, %ymm0
	vmulps	%ymm3, %ymm0, %ymm0
	vaddps	%ymm0, %ymm4, %ymm0
	vmulps	%ymm3, %ymm1, %ymm1
	vaddps	%ymm1, %ymm4, %ymm1
	vmulps	%ymm3, %ymm1, %ymm1
	vaddps	%ymm1, %ymm4, %ymm1
	vmulps	%ymm3, %ymm1, %ymm1
	vaddps	%ymm1, %ymm4, %ymm1
	vmulps	%ymm3, %ymm1, %ymm1
	vmulps	%ymm3, %ymm0, %ymm0
	vaddps	%ymm0, %ymm4, %ymm0
	vmulps	%ymm3, %ymm0, %ymm0
	vaddps	%ymm0, %ymm4, %ymm0
	vmulps	%ymm3, %ymm0, %ymm0
	vaddps	%ymm0, %ymm4, %ymm0
	vmulps	%ymm3, %ymm0, %ymm0
	vaddps	%ymm1, %ymm4, %ymm1
	vmulps	%ymm3, %ymm1, %ymm1
	vaddps	%ymm1, %ymm4, %ymm1
	vmulps	%ymm3, %ymm1, %ymm1
	vaddps	%ymm1, %ymm4, %ymm1
	vmulps	%ymm3, %ymm1, %ymm1
	vaddps	%ymm1, %ymm4, %ymm1
	vaddps	%ymm0, %ymm4, %ymm0
	vmulps	%ymm3, %ymm0, %ymm0
	vaddps	%ymm0, %ymm4, %ymm0
	vmulps	%ymm3, %ymm0, %ymm0
	vaddps	%ymm0, %ymm4, %ymm0
	vmulps	%ymm3, %ymm0, %ymm0
	vaddps	%ymm0, %ymm4, %ymm0
	vmulps	%ymm3, %ymm1, %ymm1
	vaddps	%ymm1, %ymm4, %ymm1
	vmulps	%ymm3, %ymm1, %ymm1
	vaddps	%ymm1, %ymm4, %ymm1
	vmulps	%ymm3, %ymm1, %ymm1
	vaddps	%ymm1, %ymm4, %ymm1
	vmulps	%ymm3, %ymm1, %ymm1
	vmulps	%ymm3, %ymm0, %ymm0
	vaddps	%ymm0, %ymm4, %ymm0
	vmulps	%ymm3, %ymm0, %ymm0
	vaddps	%ymm0, %ymm4, %ymm0
	vmulps	%ymm3, %ymm0, %ymm0
	vaddps	%ymm0, %ymm4, %ymm0
	vmulps	%ymm3, %ymm0, %ymm0
	vaddps	%ymm1, %ymm4, %ymm1
	vmulps	%ymm3, %ymm1, %ymm1
	vaddps	%ymm1, %ymm4, %ymm1
	vmulps	%ymm3, %ymm1, %ymm1
	vaddps	%ymm1, %ymm4, %ymm1
	vmulps	%ymm3, %ymm1, %ymm1
	vaddps	%ymm1, %ymm4, %ymm1
	vaddps	%ymm0, %ymm4, %ymm0
	vmulps	%ymm3, %ymm0, %ymm0
	vaddps	%ymm0, %ymm4, %ymm0
	vmulps	%ymm3, %ymm0, %ymm0
	vaddps	%ymm0, %ymm4, %ymm0
	vmulps	%ymm3, %ymm0, %ymm0
	vaddps	%ymm0, %ymm4, %ymm0
	vmulps	%ymm3, %ymm1, %ymm1
	vaddps	%ymm1, %ymm4, %ymm1
	vmulps	%ymm3, %ymm1, %ymm1
	vaddps	%ymm1, %ymm4, %ymm1
	vmulps	%ymm3, %ymm1, %ymm1
	vaddps	%ymm1, %ymm4, %ymm1
	vmulps	%ymm3, %ymm1, %ymm1
	vmulps	%ymm3, %ymm0, %ymm0
	vaddps	%ymm0, %ymm4, %ymm0
	vmulps	%ymm3, %ymm0, %ymm0
	vaddps	%ymm0, %ymm4, %ymm0
	vmulps	%ymm3, %ymm0, %ymm0
	vaddps	%ymm0, %ymm4, %ymm0
	vmulps	%ymm3, %ymm0, %ymm0
	vaddps	%ymm1, %ymm4, %ymm1
	vmulps	%ymm3, %ymm1, %ymm1
	vaddps	%ymm1, %ymm4, %ymm1
	vmulps	%ymm3, %ymm1, %ymm1
	vaddps	%ymm1, %ymm4, %ymm1
	vmulps	%ymm3, %ymm1, %ymm1
	vaddps	%ymm1, %ymm4, %ymm1
	vaddps	%ymm0, %ymm4, %ymm0
	vmulps	%ymm3, %ymm0, %ymm0
	vaddps	%ymm0, %ymm4, %ymm0
	vmulps	%ymm3, %ymm0, %ymm0
	vaddps	%ymm0, %ymm4, %ymm0
	vmulps	%ymm3, %ymm0, %ymm0
	vaddps	%ymm0, %ymm4, %ymm0
	vmulps	%ymm3, %ymm1, %ymm1
	vaddps	%ymm1, %ymm4, %ymm1
	vmulps	%ymm3, %ymm1, %ymm1
	vaddps	%ymm1, %ymm4, %ymm1
	vmulps	%ymm3, %ymm1, %ymm1
	vaddps	%ymm1, %ymm4, %ymm1
	vmulps	%ymm3, %ymm1, %ymm1
	vmulps	%ymm3, %ymm0, %ymm0
	vaddps	%ymm0, %ymm4, %ymm0
	vmulps	%ymm3, %ymm0, %ymm0
	vaddps	%ymm0, %ymm4, %ymm0
	vmulps	%ymm3, %ymm0, %ymm0
	vaddps	%ymm0, %ymm4, %ymm0
	vmulps	%ymm3, %ymm0, %ymm0
	vaddps	%ymm1, %ymm4, %ymm1
	vmulps	%ymm3, %ymm1, %ymm1
	vaddps	%ymm1, %ymm4, %ymm1
	vmulps	%ymm3, %ymm1, %ymm1
	vaddps	%ymm1, %ymm4, %ymm1
	vmulps	%ymm3, %ymm1, %ymm1
	vaddps	%ymm1, %ymm4, %ymm1
	vaddps	%ymm0, %ymm4, %ymm0
	vmulps	%ymm3, %ymm0, %ymm0
	vaddps	%ymm0, %ymm4, %ymm0
	vmulps	%ymm3, %ymm0, %ymm0
	vaddps	%ymm0, %ymm4, %ymm0
	vmulps	%ymm3, %ymm0, %ymm0
	vaddps	%ymm0, %ymm4, %ymm0
	vmulps	%ymm3, %ymm1, %ymm1
	vaddps	%ymm1, %ymm4, %ymm1
	vmulps	%ymm3, %ymm1, %ymm1
	vaddps	%ymm1, %ymm4, %ymm1
	vmulps	%ymm3, %ymm1, %ymm1
	vaddps	%ymm1, %ymm4, %ymm1
	vmulps	%ymm3, %ymm1, %ymm1
	vmulps	%ymm3, %ymm0, %ymm0
	vaddps	%ymm0, %ymm4, %ymm0
	vmulps	%ymm3, %ymm0, %ymm0
	vaddps	%ymm0, %ymm4, %ymm0
	vmulps	%ymm3, %ymm0, %ymm0
	vaddps	%ymm0, %ymm4, %ymm0
	vmulps	%ymm3, %ymm0, %ymm0
	vaddps	%ymm1, %ymm4, %ymm1
	vmulps	%ymm3, %ymm1, %ymm1
	vaddps	%ymm1, %ymm4, %ymm1
	vmulps	%ymm3, %ymm1, %ymm1
	vaddps	%ymm1, %ymm4, %ymm1
	vmulps	%ymm3, %ymm1, %ymm1
	vaddps	%ymm1, %ymm4, %ymm1
	vaddps	%ymm0, %ymm4, %ymm0
	vmulps	%ymm3, %ymm0, %ymm0
	vaddps	%ymm0, %ymm4, %ymm0
	vmulps	%ymm3, %ymm0, %ymm0
	vaddps	%ymm0, %ymm4, %ymm0
	vmulps	%ymm3, %ymm0, %ymm0
	vaddps	%ymm0, %ymm4, %ymm0
	vmulps	%ymm3, %ymm1, %ymm1
	vaddps	%ymm1, %ymm4, %ymm1
	vmulps	%ymm3, %ymm1, %ymm1
	vaddps	%ymm1, %ymm4, %ymm1
	vmulps	%ymm3, %ymm1, %ymm1
	vaddps	%ymm1, %ymm4, %ymm1
	vmulps	%ymm3, %ymm1, %ymm1
	vmulps	%ymm3, %ymm0, %ymm0
	vaddps	%ymm0, %ymm4, %ymm0
	vmulps	%ymm3, %ymm0, %ymm0
	vaddps	%ymm0, %ymm4, %ymm0
	vmulps	%ymm3, %ymm0, %ymm0
	vaddps	%ymm0, %ymm4, %ymm0
	vmulps	%ymm3, %ymm0, %ymm0
	vaddps	%ymm1, %ymm4, %ymm1
	vmulps	%ymm3, %ymm1, %ymm1
	vaddps	%ymm1, %ymm4, %ymm1
	vmulps	%ymm3, %ymm1, %ymm1
	vaddps	%ymm1, %ymm4, %ymm1
	vmulps	%ymm3, %ymm1, %ymm1
	vaddps	%ymm1, %ymm4, %ymm1
	vaddps	%ymm0, %ymm4, %ymm0
	vmulps	%ymm3, %ymm0, %ymm0
	vaddps	%ymm0, %ymm4, %ymm0
	vmulps	%ymm3, %ymm0, %ymm0
	vaddps	%ymm0, %ymm4, %ymm0
	vmulps	%ymm3, %ymm0, %ymm0
	vaddps	%ymm0, %ymm4, %ymm0
	vmulps	%ymm3, %ymm1, %ymm1
	vaddps	%ymm1, %ymm4, %ymm1
	vmulps	%ymm3, %ymm1, %ymm1
	vaddps	%ymm1, %ymm4, %ymm1
	vmulps	%ymm3, %ymm1, %ymm1
	vaddps	%ymm1, %ymm4, %ymm1
	vmulps	%ymm3, %ymm1, %ymm1
	vmulps	%ymm3, %ymm0, %ymm0
	vaddps	%ymm0, %ymm4, %ymm0
	vmulps	%ymm3, %ymm0, %ymm0
	vaddps	%ymm0, %ymm4, %ymm0
	vmulps	%ymm3, %ymm0, %ymm0
	vaddps	%ymm0, %ymm4, %ymm0
	vmulps	%ymm3, %ymm0, %ymm0
	vaddps	%ymm1, %ymm4, %ymm1
	vmulps	%ymm3, %ymm1, %ymm1
	vaddps	%ymm1, %ymm4, %ymm1
	vmulps	%ymm3, %ymm1, %ymm1
	vaddps	%ymm1, %ymm4, %ymm1
	vmulps	%ymm3, %ymm1, %ymm1
	vaddps	%ymm1, %ymm4, %ymm1
	vaddps	%ymm0, %ymm4, %ymm0
	vmulps	%ymm3, %ymm0, %ymm0
	vaddps	%ymm0, %ymm4, %ymm0
	vmulps	%ymm3, %ymm0, %ymm0
	vaddps	%ymm0, %ymm4, %ymm0
	vmulps	%ymm3, %ymm0, %ymm0
	vaddps	%ymm0, %ymm4, %ymm0
	vmulps	%ymm3, %ymm1, %ymm1
	vaddps	%ymm1, %ymm4, %ymm1
	vmulps	%ymm3, %ymm1, %ymm1
	vaddps	%ymm1, %ymm4, %ymm1
	vmulps	%ymm3, %ymm1, %ymm1
	vaddps	%ymm1, %ymm4, %ymm1
	vmulps	%ymm3, %ymm1, %ymm1
	vmulps	%ymm3, %ymm0, %ymm0
	vaddps	%ymm0, %ymm4, %ymm0
	vmulps	%ymm3, %ymm0, %ymm0
	vaddps	%ymm0, %ymm4, %ymm0
	vmulps	%ymm3, %ymm0, %ymm0
	vaddps	%ymm0, %ymm4, %ymm0
	vmulps	%ymm3, %ymm0, %ymm0
	vaddps	%ymm1, %ymm4, %ymm1
	vmulps	%ymm3, %ymm1, %ymm1
	vaddps	%ymm1, %ymm4, %ymm1
	vmulps	%ymm3, %ymm1, %ymm1
	vaddps	%ymm1, %ymm4, %ymm1
	vmulps	%ymm3, %ymm1, %ymm1
	vaddps	%ymm1, %ymm4, %ymm1
	vaddps	%ymm0, %ymm4, %ymm0
	vmulps	%ymm3, %ymm0, %ymm0
	vaddps	%ymm0, %ymm4, %ymm0
	vmulps	%ymm3, %ymm0, %ymm0
	vaddps	%ymm0, %ymm4, %ymm0
	vmulps	%ymm3, %ymm0, %ymm0
	vaddps	%ymm0, %ymm4, %ymm0
	vmulps	%ymm3, %ymm1, %ymm1
	vaddps	%ymm1, %ymm4, %ymm1
	vmulps	%ymm3, %ymm1, %ymm1
	vaddps	%ymm1, %ymm4, %ymm1
	vmulps	%ymm3, %ymm1, %ymm1
	vaddps	%ymm1, %ymm4, %ymm1
	vmulps	%ymm3, %ymm1, %ymm1
	vmulps	%ymm3, %ymm0, %ymm0
	vaddps	%ymm0, %ymm4, %ymm0
	vmulps	%ymm3, %ymm0, %ymm0
	vaddps	%ymm0, %ymm4, %ymm0
	vmulps	%ymm3, %ymm0, %ymm0
	vaddps	%ymm0, %ymm4, %ymm0
	vmulps	%ymm3, %ymm0, %ymm0
	vaddps	%ymm1, %ymm4, %ymm1
	vmulps	%ymm3, %ymm1, %ymm1
	vaddps	%ymm1, %ymm4, %ymm1
	vmulps	%ymm3, %ymm1, %ymm1
	vaddps	%ymm1, %ymm4, %ymm1
	vmulps	%ymm3, %ymm1, %ymm1
	vaddps	%ymm1, %ymm4, %ymm1
	vaddps	%ymm0, %ymm4, %ymm0
	vmulps	%ymm3, %ymm0, %ymm0
	vaddps	%ymm0, %ymm4, %ymm0
	vmulps	%ymm3, %ymm0, %ymm0
	vaddps	%ymm0, %ymm4, %ymm0
	vmulps	%ymm3, %ymm0, %ymm0
	vaddps	%ymm0, %ymm4, %ymm0
	vmulps	%ymm3, %ymm1, %ymm1
	vaddps	%ymm1, %ymm4, %ymm1
	vmulps	%ymm3, %ymm1, %ymm1
	vaddps	%ymm1, %ymm4, %ymm1
	vmulps	%ymm3, %ymm1, %ymm1
	vaddps	%ymm1, %ymm4, %ymm1
	vmulps	%ymm3, %ymm1, %ymm1
	vmulps	%ymm3, %ymm0, %ymm0
	vaddps	%ymm0, %ymm4, %ymm0
	vmulps	%ymm3, %ymm0, %ymm0
	vaddps	%ymm0, %ymm4, %ymm0
	vmulps	%ymm3, %ymm0, %ymm0
	vaddps	%ymm0, %ymm4, %ymm0
	vmulps	%ymm3, %ymm0, %ymm0
	vaddps	%ymm1, %ymm4, %ymm1
	vmulps	%ymm3, %ymm1, %ymm1
	vaddps	%ymm1, %ymm4, %ymm1
	vmulps	%ymm3, %ymm1, %ymm1
	vaddps	%ymm1, %ymm4, %ymm1
	vmulps	%ymm3, %ymm1, %ymm1
	vaddps	%ymm1, %ymm4, %ymm1
	vaddps	%ymm0, %ymm4, %ymm0
	vmulps	%ymm3, %ymm0, %ymm0
	vaddps	%ymm0, %ymm4, %ymm0
	vmulps	%ymm3, %ymm0, %ymm0
	vaddps	%ymm0, %ymm4, %ymm0
	vmulps	%ymm3, %ymm0, %ymm0
	vaddps	%ymm0, %ymm4, %ymm0
	vmulps	%ymm3, %ymm1, %ymm1
	vaddps	%ymm1, %ymm4, %ymm1
	vmulps	%ymm3, %ymm1, %ymm1
	vaddps	%ymm1, %ymm4, %ymm1
	vmulps	%ymm3, %ymm1, %ymm1
	vaddps	%ymm1, %ymm4, %ymm1
	vmulps	%ymm3, %ymm1, %ymm1
	vmulps	%ymm3, %ymm0, %ymm0
	vaddps	%ymm0, %ymm4, %ymm0
	vmulps	%ymm3, %ymm0, %ymm0
	vaddps	%ymm0, %ymm4, %ymm0
	vmulps	%ymm3, %ymm0, %ymm0
	vaddps	%ymm0, %ymm4, %ymm0
	vmulps	%ymm3, %ymm0, %ymm0
	vaddps	%ymm1, %ymm4, %ymm1
	vmulps	%ymm3, %ymm1, %ymm1
	vaddps	%ymm1, %ymm4, %ymm1
	vmulps	%ymm3, %ymm1, %ymm1
	vaddps	%ymm1, %ymm4, %ymm1
	vmulps	%ymm3, %ymm1, %ymm1
	vaddps	%ymm1, %ymm4, %ymm1
	vaddps	%ymm0, %ymm4, %ymm0
	vmulps	%ymm3, %ymm0, %ymm0
	vaddps	%ymm0, %ymm4, %ymm0
	vmulps	%ymm3, %ymm0, %ymm0
	vaddps	%ymm0, %ymm4, %ymm0
	vmulps	%ymm3, %ymm0, %ymm0
	vaddps	%ymm0, %ymm4, %ymm0
	vmulps	%ymm3, %ymm1, %ymm1
	vaddps	%ymm1, %ymm4, %ymm1
	vmulps	%ymm3, %ymm1, %ymm1
	vaddps	%ymm1, %ymm4, %ymm1
	vmulps	%ymm3, %ymm1, %ymm1
	vaddps	%ymm1, %ymm4, %ymm1
	vmulps	%ymm3, %ymm1, %ymm1
	vmulps	%ymm3, %ymm0, %ymm0
	vaddps	%ymm0, %ymm4, %ymm0
	vmulps	%ymm3, %ymm0, %ymm0
	vaddps	%ymm0, %ymm4, %ymm0
	vmulps	%ymm3, %ymm0, %ymm0
	vaddps	%ymm0, %ymm4, %ymm0
	vmulps	%ymm3, %ymm0, %ymm0
	vaddps	%ymm1, %ymm4, %ymm1
	vmulps	%ymm3, %ymm1, %ymm1
	vaddps	%ymm1, %ymm4, %ymm1
	vmulps	%ymm3, %ymm1, %ymm1
	vaddps	%ymm1, %ymm4, %ymm1
	vmulps	%ymm3, %ymm1, %ymm1
	vaddps	%ymm1, %ymm4, %ymm1
	vaddps	%ymm0, %ymm4, %ymm0
	vmulps	%ymm3, %ymm0, %ymm0
	vaddps	%ymm0, %ymm4, %ymm0
	vmulps	%ymm3, %ymm0, %ymm0
	vaddps	%ymm0, %ymm4, %ymm0
	vmulps	%ymm3, %ymm0, %ymm0
	vaddps	%ymm0, %ymm4, %ymm0
	vmulps	%ymm3, %ymm1, %ymm1
	vaddps	%ymm1, %ymm4, %ymm1
	vmulps	%ymm3, %ymm1, %ymm1
	vaddps	%ymm1, %ymm4, %ymm1
	vmulps	%ymm3, %ymm1, %ymm1
	vaddps	%ymm1, %ymm4, %ymm1
	vmulps	%ymm3, %ymm1, %ymm1
	vmulps	%ymm3, %ymm0, %ymm0
	vaddps	%ymm0, %ymm4, %ymm0
	vmulps	%ymm3, %ymm0, %ymm0
	vaddps	%ymm0, %ymm4, %ymm0
	vmulps	%ymm3, %ymm0, %ymm0
	vaddps	%ymm0, %ymm4, %ymm0
	vmulps	%ymm3, %ymm0, %ymm0
	vaddps	%ymm1, %ymm4, %ymm1
	vmulps	%ymm3, %ymm1, %ymm1
	vaddps	%ymm1, %ymm4, %ymm1
	vmulps	%ymm3, %ymm1, %ymm1
	vaddps	%ymm1, %ymm4, %ymm1
	vmulps	%ymm3, %ymm1, %ymm1
	vaddps	%ymm1, %ymm4, %ymm1
	vaddps	%ymm0, %ymm4, %ymm0
	vmulps	%ymm3, %ymm0, %ymm0
	vaddps	%ymm0, %ymm4, %ymm0
	vmulps	%ymm3, %ymm0, %ymm0
	vaddps	%ymm0, %ymm4, %ymm0
	vmulps	%ymm3, %ymm0, %ymm0
	vaddps	%ymm0, %ymm4, %ymm0
	vmulps	%ymm3, %ymm1, %ymm1
	vaddps	%ymm1, %ymm4, %ymm1
	vmulps	%ymm3, %ymm1, %ymm1
	vaddps	%ymm1, %ymm4, %ymm1
	vmulps	%ymm3, %ymm1, %ymm1
	vaddps	%ymm1, %ymm4, %ymm1
	vmulps	%ymm3, %ymm1, %ymm1
	vmulps	%ymm3, %ymm0, %ymm0
	vaddps	%ymm0, %ymm4, %ymm0
	vmulps	%ymm3, %ymm0, %ymm0
	vaddps	%ymm0, %ymm4, %ymm0
	vmulps	%ymm3, %ymm0, %ymm0
	vaddps	%ymm0, %ymm4, %ymm0
	vmulps	%ymm3, %ymm0, %ymm0
	vaddps	%ymm1, %ymm4, %ymm1
	vmulps	%ymm3, %ymm1, %ymm1
	vaddps	%ymm1, %ymm4, %ymm1
	vmulps	%ymm3, %ymm1, %ymm1
	vaddps	%ymm1, %ymm4, %ymm1
	vmulps	%ymm3, %ymm1, %ymm1
	vaddps	%ymm1, %ymm4, %ymm1
	vaddps	%ymm0, %ymm4, %ymm0
	vmulps	%ymm3, %ymm0, %ymm0
	vaddps	%ymm0, %ymm4, %ymm0
	vmulps	%ymm3, %ymm0, %ymm0
	vaddps	%ymm0, %ymm4, %ymm0
	vmulps	%ymm3, %ymm0, %ymm0
	vaddps	%ymm0, %ymm4, %ymm0
	vmulps	%ymm3, %ymm1, %ymm1
	vaddps	%ymm1, %ymm4, %ymm1
	vmulps	%ymm3, %ymm1, %ymm1
	vaddps	%ymm1, %ymm4, %ymm1
	vmulps	%ymm3, %ymm1, %ymm1
	vaddps	%ymm1, %ymm4, %ymm1
	vmulps	%ymm3, %ymm1, %ymm1
	vmulps	%ymm3, %ymm0, %ymm0
	vaddps	%ymm0, %ymm4, %ymm0
	vmulps	%ymm3, %ymm0, %ymm0
	vaddps	%ymm0, %ymm4, %ymm0
	vmulps	%ymm3, %ymm0, %ymm0
	vaddps	%ymm0, %ymm4, %ymm0
	vmulps	%ymm3, %ymm0, %ymm0
	vaddps	%ymm1, %ymm4, %ymm1
	vmulps	%ymm3, %ymm1, %ymm1
	vaddps	%ymm1, %ymm4, %ymm1
	vmulps	%ymm3, %ymm1, %ymm1
	vaddps	%ymm1, %ymm4, %ymm1
	vmulps	%ymm3, %ymm1, %ymm1
	vaddps	%ymm1, %ymm4, %ymm1
	vaddps	%ymm0, %ymm4, %ymm0
	vmulps	%ymm3, %ymm0, %ymm0
	vaddps	%ymm0, %ymm4, %ymm0
	vmulps	%ymm3, %ymm0, %ymm0
	vaddps	%ymm0, %ymm4, %ymm0
	vmulps	%ymm3, %ymm0, %ymm0
	vaddps	%ymm0, %ymm4, %ymm0
	vmulps	%ymm3, %ymm1, %ymm1
	vaddps	%ymm1, %ymm4, %ymm1
	vmulps	%ymm3, %ymm1, %ymm1
	vaddps	%ymm1, %ymm4, %ymm1
	vmulps	%ymm3, %ymm1, %ymm1
	vaddps	%ymm1, %ymm4, %ymm1
	vmulps	%ymm3, %ymm1, %ymm1
	vmulps	%ymm3, %ymm0, %ymm0
	vaddps	%ymm0, %ymm4, %ymm0
	vmulps	%ymm3, %ymm0, %ymm0
	vaddps	%ymm0, %ymm4, %ymm0
	vmulps	%ymm3, %ymm0, %ymm0
	vaddps	%ymm0, %ymm4, %ymm0
	vmulps	%ymm3, %ymm0, %ymm0
	vaddps	%ymm1, %ymm4, %ymm1
	vmulps	%ymm3, %ymm1, %ymm1
	vaddps	%ymm1, %ymm4, %ymm1
	vmulps	%ymm3, %ymm1, %ymm1
	vaddps	%ymm1, %ymm4, %ymm1
	vmulps	%ymm3, %ymm1, %ymm1
	vaddps	%ymm1, %ymm4, %ymm1
	vaddps	%ymm0, %ymm4, %ymm0
	vmulps	%ymm3, %ymm0, %ymm0
	vaddps	%ymm0, %ymm4, %ymm0
	vmulps	%ymm3, %ymm0, %ymm0
	vaddps	%ymm0, %ymm4, %ymm0
	vmulps	%ymm3, %ymm0, %ymm0
	vaddps	%ymm0, %ymm4, %ymm0
	vmulps	%ymm3, %ymm1, %ymm1
	vaddps	%ymm1, %ymm4, %ymm1
	vmulps	%ymm3, %ymm1, %ymm1
	vaddps	%ymm1, %ymm4, %ymm1
	vmulps	%ymm3, %ymm1, %ymm1
	vaddps	%ymm1, %ymm4, %ymm1
	vmulps	%ymm3, %ymm1, %ymm1
	vmulps	%ymm3, %ymm0, %ymm0
	vaddps	%ymm0, %ymm4, %ymm0
	vmulps	%ymm3, %ymm0, %ymm0
	vaddps	%ymm0, %ymm4, %ymm0
	vmulps	%ymm3, %ymm0, %ymm0
	vaddps	%ymm0, %ymm4, %ymm0
	vmulps	%ymm3, %ymm0, %ymm0
	vaddps	%ymm1, %ymm4, %ymm1
	vmulps	%ymm3, %ymm1, %ymm1
	vaddps	%ymm1, %ymm4, %ymm1
	vmulps	%ymm3, %ymm1, %ymm1
	vaddps	%ymm1, %ymm4, %ymm1
	vmulps	%ymm3, %ymm1, %ymm1
	vaddps	%ymm1, %ymm4, %ymm1
	vaddps	%ymm0, %ymm4, %ymm0
	vmulps	%ymm3, %ymm0, %ymm0
	vaddps	%ymm0, %ymm4, %ymm0
	vmulps	%ymm3, %ymm0, %ymm0
	vaddps	%ymm0, %ymm4, %ymm0
	vmulps	%ymm3, %ymm0, %ymm0
	vaddps	%ymm0, %ymm4, %ymm0
	vmulps	%ymm3, %ymm1, %ymm1
	vaddps	%ymm1, %ymm4, %ymm1
	vmulps	%ymm3, %ymm1, %ymm1
	vaddps	%ymm1, %ymm4, %ymm1
	vmulps	%ymm3, %ymm1, %ymm1
	vaddps	%ymm1, %ymm4, %ymm1
	vmulps	%ymm3, %ymm1, %ymm1
	vmulps	%ymm3, %ymm0, %ymm0
	vaddps	%ymm0, %ymm4, %ymm0
	vmulps	%ymm3, %ymm0, %ymm0
	vaddps	%ymm0, %ymm4, %ymm0
	vmulps	%ymm3, %ymm0, %ymm0
	vaddps	%ymm0, %ymm4, %ymm0
	vmulps	%ymm3, %ymm0, %ymm0
	vaddps	%ymm1, %ymm4, %ymm1
	vmulps	%ymm3, %ymm1, %ymm1
	vaddps	%ymm1, %ymm4, %ymm1
	vmulps	%ymm3, %ymm1, %ymm1
	vaddps	%ymm1, %ymm4, %ymm1
	vmulps	%ymm3, %ymm1, %ymm1
	vaddps	%ymm1, %ymm4, %ymm1
	vaddps	%ymm0, %ymm4, %ymm0
	vmulps	%ymm3, %ymm0, %ymm0
	vaddps	%ymm0, %ymm4, %ymm0
	vmulps	%ymm3, %ymm0, %ymm0
	vaddps	%ymm0, %ymm4, %ymm0
	vmulps	%ymm3, %ymm0, %ymm0
	vaddps	%ymm0, %ymm4, %ymm0
	vmulps	%ymm3, %ymm1, %ymm1
	vaddps	%ymm1, %ymm4, %ymm1
	vmulps	%ymm3, %ymm1, %ymm1
	vaddps	%ymm1, %ymm4, %ymm1
	vmulps	%ymm3, %ymm1, %ymm1
	vaddps	%ymm1, %ymm4, %ymm1
	vmulps	%ymm3, %ymm1, %ymm1
	vmulps	%ymm3, %ymm0, %ymm0
	vaddps	%ymm0, %ymm4, %ymm0
	vmulps	%ymm3, %ymm0, %ymm0
	vaddps	%ymm0, %ymm4, %ymm0
	vmulps	%ymm3, %ymm0, %ymm0
	vaddps	%ymm0, %ymm4, %ymm0
	vmulps	%ymm3, %ymm0, %ymm0
	vaddps	%ymm1, %ymm4, %ymm1
	vmulps	%ymm3, %ymm1, %ymm1
	vaddps	%ymm1, %ymm4, %ymm1
	vmulps	%ymm3, %ymm1, %ymm1
	vaddps	%ymm1, %ymm4, %ymm1
	vmulps	%ymm3, %ymm1, %ymm1
	vaddps	%ymm1, %ymm4, %ymm1
	vaddps	%ymm0, %ymm4, %ymm0
	vmulps	%ymm3, %ymm0, %ymm0
	vaddps	%ymm0, %ymm4, %ymm0
	vmulps	%ymm3, %ymm0, %ymm0
	vaddps	%ymm0, %ymm4, %ymm0
	vmulps	%ymm3, %ymm0, %ymm0
	vaddps	%ymm0, %ymm4, %ymm0
	vmulps	%ymm3, %ymm1, %ymm1
	vaddps	%ymm1, %ymm4, %ymm1
	vmulps	%ymm3, %ymm1, %ymm1
	vaddps	%ymm1, %ymm4, %ymm1
	vmulps	%ymm3, %ymm1, %ymm1
	vaddps	%ymm1, %ymm4, %ymm1
	vmulps	%ymm3, %ymm1, %ymm1
	vmulps	%ymm3, %ymm0, %ymm0
	vaddps	%ymm0, %ymm4, %ymm0
	vmulps	%ymm3, %ymm0, %ymm0
	vaddps	%ymm0, %ymm4, %ymm0
	vmulps	%ymm3, %ymm0, %ymm0
	vaddps	%ymm0, %ymm4, %ymm0
	vmulps	%ymm3, %ymm0, %ymm0
	vaddps	%ymm1, %ymm4, %ymm1
	vmulps	%ymm3, %ymm1, %ymm1
	vaddps	%ymm1, %ymm4, %ymm1
	vmulps	%ymm3, %ymm1, %ymm1
	vaddps	%ymm1, %ymm4, %ymm1
	vmulps	%ymm3, %ymm1, %ymm1
	vaddps	%ymm1, %ymm4, %ymm1
	vaddps	%ymm0, %ymm4, %ymm0
	vmulps	%ymm3, %ymm0, %ymm0
	vaddps	%ymm0, %ymm4, %ymm0
	vmulps	%ymm3, %ymm0, %ymm0
	vaddps	%ymm0, %ymm4, %ymm0
	vmulps	%ymm3, %ymm0, %ymm0
	vaddps	%ymm0, %ymm4, %ymm0
	vmulps	%ymm3, %ymm1, %ymm1
	vaddps	%ymm1, %ymm4, %ymm1
	vmulps	%ymm3, %ymm1, %ymm1
	vaddps	%ymm1, %ymm4, %ymm1
	vmulps	%ymm3, %ymm1, %ymm1
	vaddps	%ymm1, %ymm4, %ymm1
	vmulps	%ymm3, %ymm1, %ymm1
	vmulps	%ymm3, %ymm0, %ymm0
	vaddps	%ymm0, %ymm4, %ymm0
	vmulps	%ymm3, %ymm0, %ymm0
	vaddps	%ymm0, %ymm4, %ymm0
	vmulps	%ymm3, %ymm0, %ymm0
	vaddps	%ymm0, %ymm4, %ymm0
	vmulps	%ymm3, %ymm0, %ymm0
	vaddps	%ymm1, %ymm4, %ymm1
	vmulps	%ymm3, %ymm1, %ymm1
	vaddps	%ymm1, %ymm4, %ymm1
	vmulps	%ymm3, %ymm1, %ymm1
	vaddps	%ymm1, %ymm4, %ymm1
	vmulps	%ymm3, %ymm1, %ymm1
	vaddps	%ymm1, %ymm4, %ymm1
	vaddps	%ymm0, %ymm4, %ymm0
	vmulps	%ymm3, %ymm0, %ymm0
	vaddps	%ymm0, %ymm4, %ymm0
	vmulps	%ymm3, %ymm0, %ymm0
	vaddps	%ymm0, %ymm4, %ymm0
	vmulps	%ymm3, %ymm0, %ymm0
	vaddps	%ymm0, %ymm4, %ymm0
	vmulps	%ymm3, %ymm1, %ymm1
	vaddps	%ymm1, %ymm4, %ymm1
	vmulps	%ymm3, %ymm1, %ymm1
	vaddps	%ymm1, %ymm4, %ymm1
	vmulps	%ymm3, %ymm1, %ymm1
	vaddps	%ymm1, %ymm4, %ymm1
	vmulps	%ymm3, %ymm1, %ymm1
	vmulps	%ymm3, %ymm0, %ymm0
	vaddps	%ymm0, %ymm4, %ymm0
	vmulps	%ymm3, %ymm0, %ymm0
	vaddps	%ymm0, %ymm4, %ymm0
	vmulps	%ymm3, %ymm0, %ymm0
	vaddps	%ymm0, %ymm4, %ymm0
	vmulps	%ymm3, %ymm0, %ymm0
	vaddps	%ymm1, %ymm4, %ymm1
	vmulps	%ymm3, %ymm1, %ymm1
	vaddps	%ymm1, %ymm4, %ymm1
	vmulps	%ymm3, %ymm1, %ymm1
	vaddps	%ymm1, %ymm4, %ymm1
	vmulps	%ymm3, %ymm1, %ymm1
	vaddps	%ymm1, %ymm4, %ymm1
	vaddps	%ymm0, %ymm4, %ymm0
	vmulps	%ymm3, %ymm0, %ymm0
	vaddps	%ymm0, %ymm4, %ymm0
	vmulps	%ymm3, %ymm0, %ymm0
	vaddps	%ymm0, %ymm4, %ymm0
	vmulps	%ymm3, %ymm0, %ymm0
	vaddps	%ymm0, %ymm4, %ymm0
	vmulps	%ymm3, %ymm1, %ymm1
	vaddps	%ymm1, %ymm4, %ymm1
	vmulps	%ymm3, %ymm1, %ymm1
	vaddps	%ymm1, %ymm4, %ymm1
	vmulps	%ymm3, %ymm1, %ymm1
	vaddps	%ymm1, %ymm4, %ymm1
	vmulps	%ymm3, %ymm1, %ymm1
	vmulps	%ymm3, %ymm0, %ymm0
	vaddps	%ymm0, %ymm4, %ymm0
	vmulps	%ymm3, %ymm0, %ymm0
	vaddps	%ymm0, %ymm4, %ymm0
	vmulps	%ymm3, %ymm0, %ymm0
	vaddps	%ymm0, %ymm4, %ymm0
	vmulps	%ymm3, %ymm0, %ymm0
	vaddps	%ymm1, %ymm4, %ymm1
	vmulps	%ymm3, %ymm1, %ymm1
	vaddps	%ymm1, %ymm4, %ymm1
	vmulps	%ymm3, %ymm1, %ymm1
	vaddps	%ymm1, %ymm4, %ymm1
	vmulps	%ymm3, %ymm1, %ymm1
	vaddps	%ymm1, %ymm4, %ymm1
	vaddps	%ymm0, %ymm4, %ymm0
	vmulps	%ymm3, %ymm0, %ymm0
	vaddps	%ymm0, %ymm4, %ymm0
	vmulps	%ymm3, %ymm0, %ymm0
	vaddps	%ymm0, %ymm4, %ymm0
	vmulps	%ymm3, %ymm0, %ymm0
	vaddps	%ymm0, %ymm4, %ymm0
	vmulps	%ymm3, %ymm1, %ymm1
	vaddps	%ymm1, %ymm4, %ymm1
	vmulps	%ymm3, %ymm1, %ymm1
	vaddps	%ymm1, %ymm4, %ymm1
	vmulps	%ymm3, %ymm1, %ymm1
	vaddps	%ymm1, %ymm4, %ymm1
	vmulps	%ymm3, %ymm1, %ymm1
	vmulps	%ymm3, %ymm0, %ymm0
	vaddps	%ymm0, %ymm4, %ymm0
	vmulps	%ymm3, %ymm0, %ymm0
	vaddps	%ymm0, %ymm4, %ymm0
	vmulps	%ymm3, %ymm0, %ymm0
	vaddps	%ymm0, %ymm4, %ymm0
	vmulps	%ymm3, %ymm0, %ymm0
	vaddps	%ymm1, %ymm4, %ymm1
	vmulps	%ymm3, %ymm1, %ymm1
	vaddps	%ymm1, %ymm4, %ymm1
	vmulps	%ymm3, %ymm1, %ymm1
	vaddps	%ymm1, %ymm4, %ymm1
	vmulps	%ymm3, %ymm1, %ymm1
	vaddps	%ymm1, %ymm4, %ymm1
	vaddps	%ymm0, %ymm4, %ymm0
	vmulps	%ymm3, %ymm0, %ymm0
	vaddps	%ymm0, %ymm4, %ymm0
	vmulps	%ymm3, %ymm0, %ymm0
	vaddps	%ymm0, %ymm4, %ymm0
	vmulps	%ymm3, %ymm0, %ymm0
	vaddps	%ymm0, %ymm4, %ymm0
	vmulps	%ymm3, %ymm1, %ymm1
	vaddps	%ymm1, %ymm4, %ymm1
	vmulps	%ymm3, %ymm1, %ymm1
	vaddps	%ymm1, %ymm4, %ymm1
	vmulps	%ymm3, %ymm1, %ymm1
	vaddps	%ymm1, %ymm4, %ymm1
	vmulps	%ymm3, %ymm1, %ymm1
	vmulps	%ymm3, %ymm0, %ymm0
	vaddps	%ymm0, %ymm4, %ymm0
	vmulps	%ymm3, %ymm0, %ymm0
	vaddps	%ymm0, %ymm4, %ymm0
	vmulps	%ymm3, %ymm0, %ymm0
	vaddps	%ymm0, %ymm4, %ymm0
	vmulps	%ymm3, %ymm0, %ymm0
	vaddps	%ymm1, %ymm4, %ymm1
	vmulps	%ymm3, %ymm1, %ymm1
	vaddps	%ymm1, %ymm4, %ymm1
	vmulps	%ymm3, %ymm1, %ymm1
	vaddps	%ymm1, %ymm4, %ymm1
	vmulps	%ymm3, %ymm1, %ymm1
	vaddps	%ymm1, %ymm4, %ymm1
	vaddps	%ymm0, %ymm4, %ymm0
	vmulps	%ymm3, %ymm0, %ymm0
	vaddps	%ymm0, %ymm4, %ymm0
	vmulps	%ymm3, %ymm0, %ymm0
	vaddps	%ymm0, %ymm4, %ymm0
	vmulps	%ymm3, %ymm0, %ymm0
	vaddps	%ymm0, %ymm4, %ymm0
	vmulps	%ymm3, %ymm1, %ymm1
	vaddps	%ymm1, %ymm4, %ymm1
	vmulps	%ymm3, %ymm1, %ymm1
	vaddps	%ymm1, %ymm4, %ymm1
	vmulps	%ymm3, %ymm1, %ymm1
	vaddps	%ymm1, %ymm4, %ymm1
	vmulps	%ymm3, %ymm1, %ymm1
	vmulps	%ymm3, %ymm0, %ymm0
	vaddps	%ymm0, %ymm4, %ymm0
	vmulps	%ymm3, %ymm0, %ymm0
	vaddps	%ymm0, %ymm4, %ymm0
	vmulps	%ymm3, %ymm0, %ymm0
	vaddps	%ymm0, %ymm4, %ymm0
	vmulps	%ymm3, %ymm0, %ymm0
	vaddps	%ymm1, %ymm4, %ymm1
	vmulps	%ymm3, %ymm1, %ymm1
	vaddps	%ymm1, %ymm4, %ymm1
	vmulps	%ymm3, %ymm1, %ymm1
	vaddps	%ymm1, %ymm4, %ymm1
	vmulps	%ymm3, %ymm1, %ymm1
	vaddps	%ymm1, %ymm4, %ymm1
	vaddps	%ymm0, %ymm4, %ymm0
	vmulps	%ymm3, %ymm0, %ymm0
	vaddps	%ymm0, %ymm4, %ymm0
	vmulps	%ymm3, %ymm0, %ymm0
	vaddps	%ymm0, %ymm4, %ymm0
	vmulps	%ymm3, %ymm0, %ymm0
	vaddps	%ymm0, %ymm4, %ymm0
	vmulps	%ymm3, %ymm1, %ymm1
	vaddps	%ymm1, %ymm4, %ymm1
	vmulps	%ymm3, %ymm1, %ymm1
	vaddps	%ymm1, %ymm4, %ymm1
	vmulps	%ymm3, %ymm1, %ymm1
	vaddps	%ymm1, %ymm4, %ymm1
	vmulps	%ymm3, %ymm1, %ymm1
	vmulps	%ymm3, %ymm0, %ymm0
	vaddps	%ymm0, %ymm4, %ymm0
	vmulps	%ymm3, %ymm0, %ymm0
	vaddps	%ymm0, %ymm4, %ymm0
	vmulps	%ymm3, %ymm0, %ymm0
	vaddps	%ymm0, %ymm4, %ymm0
	vmulps	%ymm3, %ymm0, %ymm0
	vaddps	%ymm1, %ymm4, %ymm1
	vmulps	%ymm3, %ymm1, %ymm1
	vaddps	%ymm1, %ymm4, %ymm1
	vmulps	%ymm3, %ymm1, %ymm1
	vaddps	%ymm1, %ymm4, %ymm1
	vmulps	%ymm3, %ymm1, %ymm1
	vaddps	%ymm1, %ymm4, %ymm1
	vaddps	%ymm0, %ymm4, %ymm0
	vmulps	%ymm3, %ymm0, %ymm0
	vaddps	%ymm0, %ymm4, %ymm0
	vmulps	%ymm3, %ymm0, %ymm0
	vaddps	%ymm0, %ymm4, %ymm0
	vmulps	%ymm3, %ymm0, %ymm0
	vaddps	%ymm0, %ymm4, %ymm0
	vmulps	%ymm3, %ymm1, %ymm1
	vaddps	%ymm1, %ymm4, %ymm1
	vmulps	%ymm3, %ymm1, %ymm1
	vaddps	%ymm1, %ymm4, %ymm1
	vmulps	%ymm3, %ymm1, %ymm1
	vaddps	%ymm1, %ymm4, %ymm1
	vmulps	%ymm3, %ymm1, %ymm1
	vmulps	%ymm3, %ymm0, %ymm0
	vaddps	%ymm0, %ymm4, %ymm0
	vmulps	%ymm3, %ymm0, %ymm0
	vaddps	%ymm0, %ymm4, %ymm0
	vmulps	%ymm3, %ymm0, %ymm0
	vaddps	%ymm0, %ymm4, %ymm0
	vmulps	%ymm3, %ymm0, %ymm0
	vaddps	%ymm1, %ymm4, %ymm1
	vmulps	%ymm3, %ymm1, %ymm1
	vaddps	%ymm1, %ymm4, %ymm1
	vmulps	%ymm3, %ymm1, %ymm1
	vaddps	%ymm1, %ymm4, %ymm1
	vmulps	%ymm3, %ymm1, %ymm1
	vaddps	%ymm1, %ymm4, %ymm1
	vaddps	%ymm0, %ymm4, %ymm0
	vmulps	%ymm3, %ymm0, %ymm0
	vaddps	%ymm0, %ymm4, %ymm0
	vmulps	%ymm3, %ymm0, %ymm0
	vaddps	%ymm0, %ymm4, %ymm0
	vmulps	%ymm3, %ymm0, %ymm0
	vaddps	%ymm0, %ymm4, %ymm0
	vmulps	%ymm3, %ymm1, %ymm1
	vaddps	%ymm1, %ymm4, %ymm1
	vmulps	%ymm3, %ymm1, %ymm1
	vaddps	%ymm1, %ymm4, %ymm1
	vmulps	%ymm3, %ymm1, %ymm1
	vaddps	%ymm1, %ymm4, %ymm1
	vmulps	%ymm3, %ymm1, %ymm1
	vmulps	%ymm3, %ymm0, %ymm0
	vaddps	%ymm0, %ymm4, %ymm0
	vmulps	%ymm3, %ymm0, %ymm0
	vaddps	%ymm0, %ymm4, %ymm0
	vmulps	%ymm3, %ymm0, %ymm0
	vaddps	%ymm0, %ymm4, %ymm0
	vmulps	%ymm3, %ymm0, %ymm0
	vaddps	%ymm1, %ymm4, %ymm1
	vmulps	%ymm3, %ymm1, %ymm1
	vaddps	%ymm1, %ymm4, %ymm1
	vmulps	%ymm3, %ymm1, %ymm1
	vaddps	%ymm1, %ymm4, %ymm1
	vmulps	%ymm3, %ymm1, %ymm1
	vaddps	%ymm1, %ymm4, %ymm1
	vaddps	%ymm0, %ymm4, %ymm0
	vmulps	%ymm3, %ymm0, %ymm0
	vaddps	%ymm0, %ymm4, %ymm0
	vmulps	%ymm3, %ymm0, %ymm0
	vaddps	%ymm0, %ymm4, %ymm0
	vmulps	%ymm3, %ymm0, %ymm0
	vaddps	%ymm0, %ymm4, %ymm0
	vmulps	%ymm3, %ymm1, %ymm1
	vaddps	%ymm1, %ymm4, %ymm1
	vmulps	%ymm3, %ymm1, %ymm1
	vaddps	%ymm1, %ymm4, %ymm1
	vmulps	%ymm3, %ymm1, %ymm1
	vaddps	%ymm1, %ymm4, %ymm1
	vmulps	%ymm3, %ymm1, %ymm1
	vmulps	%ymm3, %ymm0, %ymm0
	vaddps	%ymm0, %ymm4, %ymm0
	vmulps	%ymm3, %ymm0, %ymm0
	vaddps	%ymm0, %ymm4, %ymm0
	vmulps	%ymm3, %ymm0, %ymm0
	vaddps	%ymm0, %ymm4, %ymm0
	vmulps	%ymm3, %ymm0, %ymm0
	vaddps	%ymm1, %ymm4, %ymm1
	vmulps	%ymm3, %ymm1, %ymm1
	vaddps	%ymm1, %ymm4, %ymm1
	vmulps	%ymm3, %ymm1, %ymm1
	vaddps	%ymm1, %ymm4, %ymm1
	vmulps	%ymm3, %ymm1, %ymm1
	vaddps	%ymm1, %ymm4, %ymm1
	vaddps	%ymm0, %ymm4, %ymm0
	vmulps	%ymm3, %ymm0, %ymm0
	vaddps	%ymm0, %ymm4, %ymm0
	vmulps	%ymm3, %ymm0, %ymm0
	vaddps	%ymm0, %ymm4, %ymm0
	vmulps	%ymm3, %ymm0, %ymm0
	vaddps	%ymm0, %ymm4, %ymm0
	vmulps	%ymm3, %ymm1, %ymm1
	vaddps	%ymm1, %ymm4, %ymm1
	vmulps	%ymm3, %ymm1, %ymm1
	vaddps	%ymm1, %ymm4, %ymm1
	vmulps	%ymm3, %ymm1, %ymm1
	vaddps	%ymm1, %ymm4, %ymm1
	vmulps	%ymm3, %ymm1, %ymm1
	vmulps	%ymm3, %ymm0, %ymm0
	vaddps	%ymm0, %ymm4, %ymm0
	vmulps	%ymm3, %ymm0, %ymm0
	vaddps	%ymm0, %ymm4, %ymm0
	vmulps	%ymm3, %ymm0, %ymm0
	vaddps	%ymm0, %ymm4, %ymm0
	vmulps	%ymm3, %ymm0, %ymm0
	vaddps	%ymm1, %ymm4, %ymm1
	vmulps	%ymm3, %ymm1, %ymm1
	vaddps	%ymm1, %ymm4, %ymm1
	vmulps	%ymm3, %ymm1, %ymm1
	vaddps	%ymm1, %ymm4, %ymm1
	vmulps	%ymm3, %ymm1, %ymm1
	vaddps	%ymm1, %ymm4, %ymm1
	vaddps	%ymm0, %ymm4, %ymm0
	vmulps	%ymm3, %ymm0, %ymm0
	vaddps	%ymm0, %ymm4, %ymm0
	vmulps	%ymm3, %ymm0, %ymm0
	vaddps	%ymm0, %ymm4, %ymm0
	vmulps	%ymm3, %ymm0, %ymm0
	vaddps	%ymm0, %ymm4, %ymm0
	vmulps	%ymm3, %ymm1, %ymm1
	vaddps	%ymm1, %ymm4, %ymm1
	vmulps	%ymm3, %ymm1, %ymm1
	vaddps	%ymm1, %ymm4, %ymm1
	vmulps	%ymm3, %ymm1, %ymm1
	vaddps	%ymm1, %ymm4, %ymm1
	vmulps	%ymm3, %ymm1, %ymm1
	vmulps	%ymm3, %ymm0, %ymm0
	vaddps	%ymm0, %ymm4, %ymm0
	vmulps	%ymm3, %ymm0, %ymm0
	vaddps	%ymm0, %ymm4, %ymm0
	vmulps	%ymm3, %ymm0, %ymm0
	vaddps	%ymm0, %ymm4, %ymm0
	vmulps	%ymm3, %ymm0, %ymm0
	vaddps	%ymm1, %ymm4, %ymm1
	vmulps	%ymm3, %ymm1, %ymm1
	vaddps	%ymm1, %ymm4, %ymm1
	vmulps	%ymm3, %ymm1, %ymm1
	vaddps	%ymm1, %ymm4, %ymm1
	vmulps	%ymm3, %ymm1, %ymm1
	vaddps	%ymm1, %ymm4, %ymm1
	vaddps	%ymm0, %ymm4, %ymm0
	vmulps	%ymm3, %ymm0, %ymm0
	vaddps	%ymm0, %ymm4, %ymm0
	vmulps	%ymm3, %ymm0, %ymm0
	vaddps	%ymm0, %ymm4, %ymm0
	vmulps	%ymm3, %ymm0, %ymm0
	vaddps	%ymm0, %ymm4, %ymm0
	vmulps	%ymm3, %ymm1, %ymm1
	vaddps	%ymm1, %ymm4, %ymm1
	vmulps	%ymm3, %ymm1, %ymm1
	vaddps	%ymm1, %ymm4, %ymm1
	vmulps	%ymm3, %ymm1, %ymm1
	vaddps	%ymm1, %ymm4, %ymm1
	vmulps	%ymm3, %ymm1, %ymm1
	vmulps	%ymm3, %ymm0, %ymm0
	vaddps	%ymm0, %ymm4, %ymm0
	vmulps	%ymm3, %ymm0, %ymm0
	vaddps	%ymm0, %ymm4, %ymm0
	vmulps	%ymm3, %ymm0, %ymm0
	vaddps	%ymm0, %ymm4, %ymm0
	vmulps	%ymm3, %ymm0, %ymm0
	vaddps	%ymm1, %ymm4, %ymm1
	vmulps	%ymm3, %ymm1, %ymm1
	vaddps	%ymm1, %ymm4, %ymm1
	vmulps	%ymm3, %ymm1, %ymm1
	vaddps	%ymm1, %ymm4, %ymm1
	vmulps	%ymm3, %ymm1, %ymm1
	vaddps	%ymm1, %ymm4, %ymm1
	vaddps	%ymm0, %ymm4, %ymm0
	vmulps	%ymm3, %ymm0, %ymm0
	vaddps	%ymm0, %ymm4, %ymm0
	vmulps	%ymm3, %ymm0, %ymm0
	vaddps	%ymm0, %ymm4, %ymm0
	vmulps	%ymm3, %ymm0, %ymm0
	vaddps	%ymm0, %ymm4, %ymm0
	vmulps	%ymm3, %ymm1, %ymm1
	vaddps	%ymm1, %ymm4, %ymm1
	vmulps	%ymm3, %ymm1, %ymm1
	vaddps	%ymm1, %ymm4, %ymm1
	vmulps	%ymm3, %ymm1, %ymm1
	vaddps	%ymm1, %ymm4, %ymm1
	vmulps	%ymm3, %ymm1, %ymm1
	vmulps	%ymm3, %ymm0, %ymm0
	vaddps	%ymm0, %ymm4, %ymm0
	vmulps	%ymm3, %ymm0, %ymm0
	vaddps	%ymm0, %ymm4, %ymm0
	vmulps	%ymm3, %ymm0, %ymm0
	vaddps	%ymm0, %ymm4, %ymm0
	vmulps	%ymm3, %ymm0, %ymm0
	vaddps	%ymm1, %ymm4, %ymm1
	vmulps	%ymm3, %ymm1, %ymm1
	vaddps	%ymm1, %ymm4, %ymm1
	vmulps	%ymm3, %ymm1, %ymm1
	vaddps	%ymm1, %ymm4, %ymm1
	vmulps	%ymm3, %ymm1, %ymm1
	vaddps	%ymm1, %ymm4, %ymm1
	vaddps	%ymm0, %ymm4, %ymm0
	vmulps	%ymm3, %ymm0, %ymm0
	vaddps	%ymm0, %ymm4, %ymm0
	vmulps	%ymm3, %ymm0, %ymm0
	vaddps	%ymm0, %ymm4, %ymm0
	vmulps	%ymm3, %ymm0, %ymm0
	vaddps	%ymm0, %ymm4, %ymm0
	vmulps	%ymm3, %ymm1, %ymm1
	vaddps	%ymm1, %ymm4, %ymm1
	vmulps	%ymm3, %ymm1, %ymm1
	vaddps	%ymm1, %ymm4, %ymm1
	vmulps	%ymm3, %ymm1, %ymm1
	vaddps	%ymm1, %ymm4, %ymm1
	vmulps	%ymm3, %ymm1, %ymm1
	vmulps	%ymm3, %ymm0, %ymm0
	vaddps	%ymm0, %ymm4, %ymm0
	vmulps	%ymm3, %ymm0, %ymm0
	vaddps	%ymm0, %ymm4, %ymm0
	vmulps	%ymm3, %ymm0, %ymm0
	vaddps	%ymm0, %ymm4, %ymm0
	vmulps	%ymm3, %ymm0, %ymm0
	vaddps	%ymm1, %ymm4, %ymm1
	vmulps	%ymm3, %ymm1, %ymm1
	vaddps	%ymm1, %ymm4, %ymm1
	vmulps	%ymm3, %ymm1, %ymm1
	vaddps	%ymm1, %ymm4, %ymm1
	vmulps	%ymm3, %ymm1, %ymm1
	vaddps	%ymm1, %ymm4, %ymm1
	vaddps	%ymm0, %ymm4, %ymm0
	vmulps	%ymm3, %ymm0, %ymm0
	vaddps	%ymm0, %ymm4, %ymm0
	vmulps	%ymm3, %ymm0, %ymm0
	vaddps	%ymm0, %ymm4, %ymm0
	vmulps	%ymm3, %ymm0, %ymm0
	vaddps	%ymm0, %ymm4, %ymm0
	vmulps	%ymm3, %ymm1, %ymm1
	vaddps	%ymm1, %ymm4, %ymm1
	vmulps	%ymm3, %ymm1, %ymm1
	vaddps	%ymm1, %ymm4, %ymm1
	vmulps	%ymm3, %ymm1, %ymm1
	vaddps	%ymm1, %ymm4, %ymm1
	vmulps	%ymm3, %ymm1, %ymm1
	vmulps	%ymm3, %ymm0, %ymm0
	vaddps	%ymm0, %ymm4, %ymm0
	vmulps	%ymm3, %ymm0, %ymm0
	vaddps	%ymm0, %ymm4, %ymm0
	vmulps	%ymm3, %ymm0, %ymm0
	vaddps	%ymm0, %ymm4, %ymm0
	vmulps	%ymm3, %ymm0, %ymm0
	vaddps	%ymm1, %ymm4, %ymm1
	vmulps	%ymm3, %ymm1, %ymm1
	vaddps	%ymm1, %ymm4, %ymm1
	vmulps	%ymm3, %ymm1, %ymm1
	vaddps	%ymm1, %ymm4, %ymm1
	vmulps	%ymm3, %ymm1, %ymm1
	vaddps	%ymm1, %ymm4, %ymm1
	vaddps	%ymm0, %ymm4, %ymm0
	vmulps	%ymm3, %ymm0, %ymm0
	vaddps	%ymm0, %ymm4, %ymm0
	vmulps	%ymm3, %ymm0, %ymm0
	vaddps	%ymm0, %ymm4, %ymm0
	vmulps	%ymm3, %ymm0, %ymm0
	vaddps	%ymm0, %ymm4, %ymm0
	vmulps	%ymm3, %ymm1, %ymm1
	vaddps	%ymm1, %ymm4, %ymm1
	vmulps	%ymm3, %ymm1, %ymm1
	vaddps	%ymm1, %ymm4, %ymm1
	vmulps	%ymm3, %ymm1, %ymm1
	vaddps	%ymm1, %ymm4, %ymm1
	vmulps	%ymm3, %ymm1, %ymm1
	vmulps	%ymm3, %ymm0, %ymm0
	vaddps	%ymm0, %ymm4, %ymm0
	vmulps	%ymm3, %ymm0, %ymm0
	vaddps	%ymm0, %ymm4, %ymm0
	vmulps	%ymm3, %ymm0, %ymm0
	vaddps	%ymm0, %ymm4, %ymm0
	vmulps	%ymm3, %ymm0, %ymm0
	vaddps	%ymm1, %ymm4, %ymm1
	vmulps	%ymm3, %ymm1, %ymm1
	vaddps	%ymm1, %ymm4, %ymm1
	vmulps	%ymm3, %ymm1, %ymm1
	vaddps	%ymm1, %ymm4, %ymm1
	vmulps	%ymm3, %ymm1, %ymm1
	vaddps	%ymm1, %ymm4, %ymm1
	vaddps	%ymm0, %ymm4, %ymm0
	vmulps	%ymm3, %ymm0, %ymm0
	vaddps	%ymm0, %ymm4, %ymm0
	vmulps	%ymm3, %ymm0, %ymm0
	vaddps	%ymm0, %ymm4, %ymm0
	vmulps	%ymm3, %ymm0, %ymm0
	vaddps	%ymm0, %ymm4, %ymm0
	vmulps	%ymm3, %ymm1, %ymm1
	vaddps	%ymm1, %ymm4, %ymm1
	vmulps	%ymm3, %ymm1, %ymm1
	vaddps	%ymm1, %ymm4, %ymm1
	vmulps	%ymm3, %ymm1, %ymm1
	vaddps	%ymm1, %ymm4, %ymm1
	vmulps	%ymm3, %ymm1, %ymm1
	vmulps	%ymm3, %ymm0, %ymm0
	vaddps	%ymm0, %ymm4, %ymm0
	vmulps	%ymm3, %ymm0, %ymm0
	vaddps	%ymm0, %ymm4, %ymm0
	vmulps	%ymm3, %ymm0, %ymm0
	vaddps	%ymm0, %ymm4, %ymm0
	vmulps	%ymm3, %ymm0, %ymm0
	vaddps	%ymm1, %ymm4, %ymm1
	vmulps	%ymm3, %ymm1, %ymm1
	vaddps	%ymm1, %ymm4, %ymm1
	vmulps	%ymm3, %ymm1, %ymm1
	vaddps	%ymm1, %ymm4, %ymm1
	vmulps	%ymm3, %ymm1, %ymm1
	vaddps	%ymm1, %ymm4, %ymm1
	vaddps	%ymm0, %ymm4, %ymm0
	vmulps	%ymm3, %ymm0, %ymm0
	vaddps	%ymm0, %ymm4, %ymm0
	vmulps	%ymm3, %ymm0, %ymm0
	vaddps	%ymm0, %ymm4, %ymm0
	vmulps	%ymm3, %ymm0, %ymm0
	vaddps	%ymm0, %ymm4, %ymm0
	vmulps	%ymm3, %ymm1, %ymm1
	vaddps	%ymm1, %ymm4, %ymm1
	vmulps	%ymm3, %ymm1, %ymm1
	vaddps	%ymm1, %ymm4, %ymm1
	vmulps	%ymm3, %ymm1, %ymm1
	vaddps	%ymm1, %ymm4, %ymm1
	vmulps	%ymm3, %ymm1, %ymm1
	vmulps	%ymm3, %ymm0, %ymm0
	vaddps	%ymm0, %ymm4, %ymm0
	vmulps	%ymm3, %ymm0, %ymm0
	vaddps	%ymm0, %ymm4, %ymm0
	vmulps	%ymm3, %ymm0, %ymm0
	vaddps	%ymm0, %ymm4, %ymm0
	vmulps	%ymm3, %ymm0, %ymm0
	vaddps	%ymm1, %ymm4, %ymm1
	vmulps	%ymm3, %ymm1, %ymm1
	vaddps	%ymm1, %ymm4, %ymm1
	vmulps	%ymm3, %ymm1, %ymm1
	vaddps	%ymm1, %ymm4, %ymm1
	vmulps	%ymm3, %ymm1, %ymm1
	vaddps	%ymm1, %ymm4, %ymm1
	vaddps	%ymm0, %ymm4, %ymm0
	vmulps	%ymm3, %ymm0, %ymm0
	vaddps	%ymm0, %ymm4, %ymm0
	vmulps	%ymm3, %ymm0, %ymm0
	vaddps	%ymm0, %ymm4, %ymm0
	vmulps	%ymm3, %ymm0, %ymm0
	vaddps	%ymm0, %ymm4, %ymm0
	vmulps	%ymm3, %ymm1, %ymm1
	vaddps	%ymm1, %ymm4, %ymm1
	vmulps	%ymm3, %ymm1, %ymm1
	vaddps	%ymm1, %ymm4, %ymm1
	vmulps	%ymm3, %ymm1, %ymm1
	vaddps	%ymm1, %ymm4, %ymm1
	vmulps	%ymm3, %ymm1, %ymm1
	vmulps	%ymm3, %ymm0, %ymm0
	vaddps	%ymm0, %ymm4, %ymm0
	vmulps	%ymm3, %ymm0, %ymm0
	vaddps	%ymm0, %ymm4, %ymm0
	vmulps	%ymm3, %ymm0, %ymm0
	vaddps	%ymm0, %ymm4, %ymm0
	vmulps	%ymm3, %ymm0, %ymm0
	vaddps	%ymm1, %ymm4, %ymm1
	vmulps	%ymm3, %ymm1, %ymm1
	vaddps	%ymm1, %ymm4, %ymm1
	vmulps	%ymm3, %ymm1, %ymm1
	vaddps	%ymm1, %ymm4, %ymm1
	vmulps	%ymm3, %ymm1, %ymm1
	vaddps	%ymm1, %ymm4, %ymm1
	vaddps	%ymm0, %ymm4, %ymm0
	vmulps	%ymm3, %ymm0, %ymm0
	vaddps	%ymm0, %ymm4, %ymm0
	vmulps	%ymm3, %ymm0, %ymm0
	vaddps	%ymm0, %ymm4, %ymm0
	vmulps	%ymm3, %ymm0, %ymm0
	vaddps	%ymm0, %ymm4, %ymm0
	vmulps	%ymm3, %ymm1, %ymm1
	vaddps	%ymm1, %ymm4, %ymm1
	vmulps	%ymm3, %ymm1, %ymm1
	vaddps	%ymm1, %ymm4, %ymm1
	vmulps	%ymm3, %ymm1, %ymm1
	vaddps	%ymm1, %ymm4, %ymm1
	vmulps	%ymm3, %ymm1, %ymm1
	vmulps	%ymm3, %ymm0, %ymm0
	vaddps	%ymm0, %ymm4, %ymm0
	vmulps	%ymm3, %ymm0, %ymm0
	vaddps	%ymm0, %ymm4, %ymm0
	vmulps	%ymm3, %ymm0, %ymm0
	vaddps	%ymm0, %ymm4, %ymm0
	vmulps	%ymm3, %ymm0, %ymm0
	vaddps	%ymm1, %ymm4, %ymm1
	vmulps	%ymm3, %ymm1, %ymm1
	vaddps	%ymm1, %ymm4, %ymm1
	vmulps	%ymm3, %ymm1, %ymm1
	vaddps	%ymm1, %ymm4, %ymm1
	vmulps	%ymm3, %ymm1, %ymm1
	vaddps	%ymm1, %ymm4, %ymm1
	vaddps	%ymm0, %ymm4, %ymm0
	vmulps	%ymm3, %ymm0, %ymm0
	vaddps	%ymm0, %ymm4, %ymm0
	vmulps	%ymm3, %ymm0, %ymm0
	vaddps	%ymm0, %ymm4, %ymm0
	vmulps	%ymm3, %ymm0, %ymm0
	vaddps	%ymm0, %ymm4, %ymm0
	vmulps	%ymm3, %ymm1, %ymm1
	vaddps	%ymm1, %ymm4, %ymm1
	vmulps	%ymm3, %ymm1, %ymm1
	vaddps	%ymm1, %ymm4, %ymm1
	vmulps	%ymm3, %ymm1, %ymm1
	vaddps	%ymm1, %ymm4, %ymm1
	vmulps	%ymm3, %ymm1, %ymm1
	vmulps	%ymm3, %ymm0, %ymm0
	vaddps	%ymm0, %ymm4, %ymm0
	vmulps	%ymm3, %ymm0, %ymm0
	vaddps	%ymm0, %ymm4, %ymm0
	vmulps	%ymm3, %ymm0, %ymm0
	vaddps	%ymm0, %ymm4, %ymm0
	vmulps	%ymm3, %ymm0, %ymm0
	vaddps	%ymm1, %ymm4, %ymm1
	vmulps	%ymm3, %ymm1, %ymm1
	vaddps	%ymm1, %ymm4, %ymm1
	vmulps	%ymm3, %ymm1, %ymm1
	vaddps	%ymm1, %ymm4, %ymm1
	vmulps	%ymm3, %ymm1, %ymm1
	vaddps	%ymm1, %ymm4, %ymm1
	vaddps	%ymm0, %ymm4, %ymm0
	vmulps	%ymm3, %ymm0, %ymm0
	vaddps	%ymm0, %ymm4, %ymm0
	vmulps	%ymm3, %ymm0, %ymm0
	vaddps	%ymm0, %ymm4, %ymm0
	vmulps	%ymm3, %ymm0, %ymm0
	vaddps	%ymm0, %ymm4, %ymm0
	vmulps	%ymm3, %ymm1, %ymm1
	vaddps	%ymm1, %ymm4, %ymm1
	vmulps	%ymm3, %ymm1, %ymm1
	vaddps	%ymm1, %ymm4, %ymm1
	vmulps	%ymm3, %ymm1, %ymm1
	vaddps	%ymm1, %ymm4, %ymm1
	vmulps	%ymm3, %ymm1, %ymm1
	vmulps	%ymm3, %ymm0, %ymm0
	vaddps	%ymm0, %ymm4, %ymm0
	vmulps	%ymm3, %ymm0, %ymm0
	vaddps	%ymm0, %ymm4, %ymm0
	vmulps	%ymm3, %ymm0, %ymm0
	vaddps	%ymm0, %ymm4, %ymm0
	vmulps	%ymm3, %ymm0, %ymm0
	vaddps	%ymm1, %ymm4, %ymm1
	vmulps	%ymm3, %ymm1, %ymm1
	vaddps	%ymm1, %ymm4, %ymm1
	vmulps	%ymm3, %ymm1, %ymm1
	vaddps	%ymm1, %ymm4, %ymm1
	vmulps	%ymm3, %ymm1, %ymm1
	vaddps	%ymm1, %ymm4, %ymm1
	vaddps	%ymm0, %ymm4, %ymm0
	vmulps	%ymm3, %ymm0, %ymm0
	vaddps	%ymm0, %ymm4, %ymm0
	vmulps	%ymm3, %ymm0, %ymm0
	vaddps	%ymm0, %ymm4, %ymm0
	vmulps	%ymm3, %ymm0, %ymm0
	vaddps	%ymm0, %ymm4, %ymm0
	vmulps	%ymm3, %ymm1, %ymm1
	vaddps	%ymm1, %ymm4, %ymm1
	vmulps	%ymm3, %ymm1, %ymm1
	vaddps	%ymm1, %ymm4, %ymm1
	vmulps	%ymm3, %ymm1, %ymm1
	vaddps	%ymm1, %ymm4, %ymm1
	vmulps	%ymm3, %ymm1, %ymm1
	vmulps	%ymm3, %ymm0, %ymm0
	vaddps	%ymm0, %ymm4, %ymm0
	vmulps	%ymm3, %ymm0, %ymm0
	vaddps	%ymm0, %ymm4, %ymm0
	vmulps	%ymm3, %ymm0, %ymm0
	vaddps	%ymm0, %ymm4, %ymm0
	vmulps	%ymm3, %ymm0, %ymm0
	vaddps	%ymm1, %ymm4, %ymm1
	vmulps	%ymm3, %ymm1, %ymm1
	vaddps	%ymm1, %ymm4, %ymm1
	vmulps	%ymm3, %ymm1, %ymm1
	vaddps	%ymm1, %ymm4, %ymm1
	vmulps	%ymm3, %ymm1, %ymm1
	vaddps	%ymm1, %ymm4, %ymm1
	vaddps	%ymm0, %ymm4, %ymm0
	vmulps	%ymm3, %ymm0, %ymm0
	vaddps	%ymm0, %ymm4, %ymm0
	vmulps	%ymm3, %ymm0, %ymm0
	vaddps	%ymm0, %ymm4, %ymm0
	vmulps	%ymm3, %ymm0, %ymm0
	vaddps	%ymm0, %ymm4, %ymm0
	vmulps	%ymm3, %ymm1, %ymm1
	vaddps	%ymm1, %ymm4, %ymm1
	vmulps	%ymm3, %ymm1, %ymm1
	vaddps	%ymm1, %ymm4, %ymm1
	vmulps	%ymm3, %ymm1, %ymm1
	vaddps	%ymm1, %ymm4, %ymm1
	vmulps	%ymm3, %ymm1, %ymm1
	vmulps	%ymm3, %ymm0, %ymm0
	vaddps	%ymm0, %ymm4, %ymm0
	vmulps	%ymm3, %ymm0, %ymm0
	vaddps	%ymm0, %ymm4, %ymm0
	vmulps	%ymm3, %ymm0, %ymm0
	vaddps	%ymm0, %ymm4, %ymm0
	vmulps	%ymm3, %ymm0, %ymm0
	vaddps	%ymm1, %ymm4, %ymm1
	vmulps	%ymm3, %ymm1, %ymm1
	vaddps	%ymm1, %ymm4, %ymm1
	vmulps	%ymm3, %ymm1, %ymm1
	vaddps	%ymm1, %ymm4, %ymm1
	vmulps	%ymm3, %ymm1, %ymm1
	vaddps	%ymm1, %ymm4, %ymm1
	vaddps	%ymm0, %ymm4, %ymm0
	vmulps	%ymm3, %ymm0, %ymm0
	vaddps	%ymm0, %ymm4, %ymm0
	vmulps	%ymm3, %ymm0, %ymm0
	vaddps	%ymm0, %ymm4, %ymm0
	vmulps	%ymm3, %ymm0, %ymm0
	vaddps	%ymm0, %ymm4, %ymm0
	vmulps	%ymm3, %ymm1, %ymm1
	vaddps	%ymm1, %ymm4, %ymm1
	vmulps	%ymm3, %ymm1, %ymm1
	vaddps	%ymm1, %ymm4, %ymm1
	vmulps	%ymm3, %ymm1, %ymm1
	vaddps	%ymm1, %ymm4, %ymm1
	vmulps	%ymm3, %ymm1, %ymm1
	vmulps	%ymm3, %ymm0, %ymm0
	vaddps	%ymm0, %ymm4, %ymm0
	vmulps	%ymm3, %ymm0, %ymm0
	vaddps	%ymm0, %ymm4, %ymm0
	vmulps	%ymm3, %ymm0, %ymm0
	vaddps	%ymm0, %ymm4, %ymm0
	vmulps	%ymm3, %ymm0, %ymm0
	vaddps	%ymm1, %ymm4, %ymm1
	vmulps	%ymm3, %ymm1, %ymm1
	vaddps	%ymm1, %ymm4, %ymm1
	vmulps	%ymm3, %ymm1, %ymm1
	vaddps	%ymm1, %ymm4, %ymm1
	vmulps	%ymm3, %ymm1, %ymm1
	vaddps	%ymm1, %ymm4, %ymm1
	vaddps	%ymm0, %ymm4, %ymm0
	vmulps	%ymm3, %ymm0, %ymm0
	vaddps	%ymm0, %ymm4, %ymm0
	vmulps	%ymm3, %ymm0, %ymm0
	vaddps	%ymm0, %ymm4, %ymm0
	vmulps	%ymm3, %ymm0, %ymm0
	vaddps	%ymm0, %ymm4, %ymm0
	vmulps	%ymm3, %ymm1, %ymm1
	vaddps	%ymm1, %ymm4, %ymm1
	vmulps	%ymm3, %ymm1, %ymm1
	vaddps	%ymm1, %ymm4, %ymm1
	vmulps	%ymm3, %ymm1, %ymm1
	vaddps	%ymm1, %ymm4, %ymm1
	vmulps	%ymm3, %ymm1, %ymm1
	vmulps	%ymm3, %ymm0, %ymm0
	vaddps	%ymm0, %ymm4, %ymm0
	vmulps	%ymm3, %ymm0, %ymm0
	vaddps	%ymm0, %ymm4, %ymm0
	vmulps	%ymm3, %ymm0, %ymm0
	vaddps	%ymm0, %ymm4, %ymm0
	vmulps	%ymm3, %ymm0, %ymm0
	vaddps	%ymm1, %ymm4, %ymm1
	vmulps	%ymm3, %ymm1, %ymm1
	vaddps	%ymm1, %ymm4, %ymm1
	vmulps	%ymm3, %ymm1, %ymm1
	vaddps	%ymm1, %ymm4, %ymm1
	vmulps	%ymm3, %ymm1, %ymm1
	vaddps	%ymm1, %ymm4, %ymm1
	vaddps	%ymm0, %ymm4, %ymm0
	vmulps	%ymm3, %ymm0, %ymm0
	vaddps	%ymm0, %ymm4, %ymm0
	vmulps	%ymm3, %ymm0, %ymm0
	vaddps	%ymm0, %ymm4, %ymm0
	vmulps	%ymm3, %ymm0, %ymm0
	vaddps	%ymm0, %ymm4, %ymm0
	vmulps	%ymm3, %ymm1, %ymm1
	vaddps	%ymm1, %ymm4, %ymm1
	vmulps	%ymm3, %ymm1, %ymm1
	vaddps	%ymm1, %ymm4, %ymm1
	vmulps	%ymm3, %ymm1, %ymm1
	vaddps	%ymm1, %ymm4, %ymm1
	vmulps	%ymm3, %ymm1, %ymm1
	vmulps	%ymm3, %ymm0, %ymm0
	vaddps	%ymm0, %ymm4, %ymm0
	vmulps	%ymm3, %ymm0, %ymm0
	vaddps	%ymm0, %ymm4, %ymm0
	vmulps	%ymm3, %ymm0, %ymm0
	vaddps	%ymm0, %ymm4, %ymm0
	vmulps	%ymm3, %ymm0, %ymm0
	vaddps	%ymm1, %ymm4, %ymm1
	vmulps	%ymm3, %ymm1, %ymm1
	vaddps	%ymm1, %ymm4, %ymm1
	vmulps	%ymm3, %ymm1, %ymm1
	vaddps	%ymm1, %ymm4, %ymm1
	vmulps	%ymm3, %ymm1, %ymm1
	vaddps	%ymm1, %ymm4, %ymm1
	vaddps	%ymm0, %ymm4, %ymm0
	vmulps	%ymm3, %ymm0, %ymm0
	vaddps	%ymm0, %ymm4, %ymm0
	vmulps	%ymm3, %ymm0, %ymm0
	vaddps	%ymm0, %ymm4, %ymm0
	vmulps	%ymm3, %ymm0, %ymm0
	vaddps	%ymm0, %ymm4, %ymm0
	vmulps	%ymm3, %ymm1, %ymm1
	vaddps	%ymm1, %ymm4, %ymm1
	vmulps	%ymm3, %ymm1, %ymm1
	vaddps	%ymm1, %ymm4, %ymm1
	vmulps	%ymm3, %ymm1, %ymm1
	vaddps	%ymm1, %ymm4, %ymm1
	vmulps	%ymm3, %ymm1, %ymm1
	vmulps	%ymm3, %ymm0, %ymm0
	vaddps	%ymm0, %ymm4, %ymm0
	vmulps	%ymm3, %ymm0, %ymm0
	vaddps	%ymm0, %ymm4, %ymm0
	vmulps	%ymm3, %ymm0, %ymm0
	vaddps	%ymm0, %ymm4, %ymm0
	vmulps	%ymm3, %ymm0, %ymm0
	vaddps	%ymm1, %ymm4, %ymm1
	vmulps	%ymm3, %ymm1, %ymm1
	vaddps	%ymm1, %ymm4, %ymm1
	vmulps	%ymm3, %ymm1, %ymm1
	vaddps	%ymm1, %ymm4, %ymm1
	vmulps	%ymm3, %ymm1, %ymm1
	vaddps	%ymm1, %ymm4, %ymm1
	vaddps	%ymm0, %ymm4, %ymm0
	vmulps	%ymm3, %ymm0, %ymm0
	vaddps	%ymm0, %ymm4, %ymm0
	vmulps	%ymm3, %ymm0, %ymm0
	vaddps	%ymm0, %ymm4, %ymm0
	vmulps	%ymm3, %ymm0, %ymm0
	vaddps	%ymm0, %ymm4, %ymm0
	vmulps	%ymm3, %ymm1, %ymm1
	vaddps	%ymm1, %ymm4, %ymm1
	vmulps	%ymm3, %ymm1, %ymm1
	vaddps	%ymm1, %ymm4, %ymm1
	vmulps	%ymm3, %ymm1, %ymm1
	vaddps	%ymm1, %ymm4, %ymm1
	vmulps	%ymm3, %ymm1, %ymm1
	vmulps	%ymm3, %ymm0, %ymm0
	vaddps	%ymm0, %ymm4, %ymm0
	vmulps	%ymm3, %ymm0, %ymm0
	vaddps	%ymm0, %ymm4, %ymm0
	vmulps	%ymm3, %ymm0, %ymm0
	vaddps	%ymm0, %ymm4, %ymm0
	vmulps	%ymm3, %ymm0, %ymm0
	vaddps	%ymm1, %ymm4, %ymm1
	vmulps	%ymm3, %ymm1, %ymm1
	vaddps	%ymm1, %ymm4, %ymm1
	vmulps	%ymm3, %ymm1, %ymm1
	vaddps	%ymm1, %ymm4, %ymm1
	vmulps	%ymm3, %ymm1, %ymm1
	vaddps	%ymm1, %ymm4, %ymm1
	vaddps	%ymm0, %ymm4, %ymm0
	vmulps	%ymm3, %ymm0, %ymm0
	vaddps	%ymm0, %ymm4, %ymm0
	vmulps	%ymm3, %ymm0, %ymm0
	vaddps	%ymm0, %ymm4, %ymm0
	vmulps	%ymm3, %ymm0, %ymm0
	vaddps	%ymm0, %ymm4, %ymm0
	vmulps	%ymm3, %ymm1, %ymm1
	vaddps	%ymm1, %ymm4, %ymm1
	vmulps	%ymm3, %ymm1, %ymm1
	vaddps	%ymm1, %ymm4, %ymm1
	vmulps	%ymm3, %ymm1, %ymm1
	vaddps	%ymm1, %ymm4, %ymm1
	vmulps	%ymm3, %ymm1, %ymm1
	vmulps	%ymm3, %ymm0, %ymm0
	vaddps	%ymm0, %ymm4, %ymm0
	vmulps	%ymm3, %ymm0, %ymm0
	vaddps	%ymm0, %ymm4, %ymm0
	vmulps	%ymm3, %ymm0, %ymm0
	vaddps	%ymm0, %ymm4, %ymm0
	vmulps	%ymm3, %ymm0, %ymm0
	vaddps	%ymm1, %ymm4, %ymm1
	vmulps	%ymm3, %ymm1, %ymm1
	vaddps	%ymm1, %ymm4, %ymm1
	vmulps	%ymm3, %ymm1, %ymm1
	vaddps	%ymm1, %ymm4, %ymm1
	vmulps	%ymm3, %ymm1, %ymm1
	vaddps	%ymm1, %ymm4, %ymm1
	vaddps	%ymm0, %ymm4, %ymm0
	vmulps	%ymm3, %ymm0, %ymm0
	vaddps	%ymm0, %ymm4, %ymm0
	vmulps	%ymm3, %ymm0, %ymm0
	vaddps	%ymm0, %ymm4, %ymm0
	vmulps	%ymm3, %ymm0, %ymm0
	vaddps	%ymm0, %ymm4, %ymm0
	vmulps	%ymm3, %ymm1, %ymm1
	vaddps	%ymm1, %ymm4, %ymm1
	vmulps	%ymm3, %ymm1, %ymm1
	vaddps	%ymm1, %ymm4, %ymm1
	vmulps	%ymm3, %ymm1, %ymm1
	vaddps	%ymm1, %ymm4, %ymm1
	vmulps	%ymm3, %ymm1, %ymm1
	vmulps	%ymm3, %ymm0, %ymm0
	vaddps	%ymm0, %ymm4, %ymm0
	vmulps	%ymm3, %ymm0, %ymm0
	vaddps	%ymm0, %ymm4, %ymm0
	vmulps	%ymm3, %ymm0, %ymm0
	vaddps	%ymm0, %ymm4, %ymm0
	vmulps	%ymm3, %ymm0, %ymm0
	vaddps	%ymm1, %ymm4, %ymm1
	vmulps	%ymm3, %ymm1, %ymm1
	vaddps	%ymm1, %ymm4, %ymm1
	vmulps	%ymm3, %ymm1, %ymm1
	vaddps	%ymm1, %ymm4, %ymm1
	vmulps	%ymm3, %ymm1, %ymm1
	vaddps	%ymm1, %ymm4, %ymm1
	vaddps	%ymm0, %ymm4, %ymm0
	vmulps	%ymm3, %ymm0, %ymm0
	vaddps	%ymm0, %ymm4, %ymm0
	vmulps	%ymm3, %ymm0, %ymm0
	vaddps	%ymm0, %ymm4, %ymm0
	vmulps	%ymm3, %ymm0, %ymm0
	vaddps	%ymm0, %ymm4, %ymm0
	vmulps	%ymm3, %ymm1, %ymm1
	vaddps	%ymm1, %ymm4, %ymm1
	vmulps	%ymm3, %ymm1, %ymm1
	vaddps	%ymm1, %ymm4, %ymm1
	vmulps	%ymm3, %ymm1, %ymm1
	vaddps	%ymm1, %ymm4, %ymm1
	vmulps	%ymm3, %ymm1, %ymm1
	vmulps	%ymm3, %ymm0, %ymm0
	vaddps	%ymm0, %ymm4, %ymm0
	vmulps	%ymm3, %ymm0, %ymm0
	vaddps	%ymm0, %ymm4, %ymm0
	vmulps	%ymm3, %ymm0, %ymm0
	vaddps	%ymm0, %ymm4, %ymm0
	vmulps	%ymm3, %ymm0, %ymm0
	vaddps	%ymm1, %ymm4, %ymm1
	vmulps	%ymm3, %ymm1, %ymm1
	vaddps	%ymm1, %ymm4, %ymm1
	vmulps	%ymm3, %ymm1, %ymm1
	vaddps	%ymm1, %ymm4, %ymm1
	vmulps	%ymm3, %ymm1, %ymm1
	vaddps	%ymm1, %ymm4, %ymm1
	vaddps	%ymm0, %ymm4, %ymm0
	vmulps	%ymm3, %ymm0, %ymm0
	vaddps	%ymm0, %ymm4, %ymm0
	vmulps	%ymm3, %ymm0, %ymm0
	vaddps	%ymm0, %ymm4, %ymm0
	vmulps	%ymm3, %ymm0, %ymm0
	vaddps	%ymm0, %ymm4, %ymm0
	vmulps	%ymm3, %ymm1, %ymm1
	vaddps	%ymm1, %ymm4, %ymm1
	vmulps	%ymm3, %ymm1, %ymm1
	vaddps	%ymm1, %ymm4, %ymm1
	vmulps	%ymm3, %ymm1, %ymm1
	vaddps	%ymm1, %ymm4, %ymm1
	vmulps	%ymm3, %ymm1, %ymm1
	vmulps	%ymm3, %ymm0, %ymm0
	vaddps	%ymm0, %ymm4, %ymm0
	vmulps	%ymm3, %ymm0, %ymm0
	vaddps	%ymm0, %ymm4, %ymm0
	vmulps	%ymm3, %ymm0, %ymm0
	vaddps	%ymm0, %ymm4, %ymm0
	vmulps	%ymm3, %ymm0, %ymm0
	vaddps	%ymm1, %ymm4, %ymm1
	vmulps	%ymm3, %ymm1, %ymm1
	vaddps	%ymm1, %ymm4, %ymm1
	vmulps	%ymm3, %ymm1, %ymm1
	vaddps	%ymm1, %ymm4, %ymm1
	vmulps	%ymm3, %ymm1, %ymm1
	vaddps	%ymm1, %ymm4, %ymm1
	vaddps	%ymm0, %ymm4, %ymm0
	vmulps	%ymm3, %ymm0, %ymm0
	vaddps	%ymm0, %ymm4, %ymm0
	vmulps	%ymm3, %ymm0, %ymm0
	vaddps	%ymm0, %ymm4, %ymm0
	vmulps	%ymm3, %ymm0, %ymm0
	vaddps	%ymm0, %ymm4, %ymm0
	vmulps	%ymm3, %ymm1, %ymm1
	vaddps	%ymm1, %ymm4, %ymm1
	vmulps	%ymm3, %ymm1, %ymm1
	vaddps	%ymm1, %ymm4, %ymm1
	vmulps	%ymm3, %ymm1, %ymm1
	vaddps	%ymm1, %ymm4, %ymm1
	vmulps	%ymm3, %ymm1, %ymm1
	vmulps	%ymm3, %ymm0, %ymm0
	vaddps	%ymm0, %ymm4, %ymm0
	vmulps	%ymm3, %ymm0, %ymm0
	vaddps	%ymm0, %ymm4, %ymm0
	vmulps	%ymm3, %ymm0, %ymm0
	vaddps	%ymm0, %ymm4, %ymm0
	vmulps	%ymm3, %ymm0, %ymm0
	vaddps	%ymm1, %ymm4, %ymm1
	vmulps	%ymm3, %ymm1, %ymm1
	vaddps	%ymm1, %ymm4, %ymm1
	vmulps	%ymm3, %ymm1, %ymm1
	vaddps	%ymm1, %ymm4, %ymm1
	vmulps	%ymm3, %ymm1, %ymm1
	vaddps	%ymm1, %ymm4, %ymm1
	vaddps	%ymm0, %ymm4, %ymm0
	vmulps	%ymm3, %ymm0, %ymm0
	vaddps	%ymm0, %ymm4, %ymm0
	vmulps	%ymm3, %ymm0, %ymm0
	vaddps	%ymm0, %ymm4, %ymm0
	vmulps	%ymm3, %ymm0, %ymm0
	vaddps	%ymm0, %ymm4, %ymm0
	vmulps	%ymm3, %ymm1, %ymm1
	vaddps	%ymm1, %ymm4, %ymm1
	vmulps	%ymm3, %ymm1, %ymm1
	vaddps	%ymm1, %ymm4, %ymm1
	vmulps	%ymm3, %ymm1, %ymm1
	vaddps	%ymm1, %ymm4, %ymm1
	vmulps	%ymm3, %ymm1, %ymm1
	vmulps	%ymm3, %ymm0, %ymm0
	vaddps	%ymm0, %ymm4, %ymm0
	vmulps	%ymm3, %ymm0, %ymm0
	vaddps	%ymm0, %ymm4, %ymm0
	vmulps	%ymm3, %ymm0, %ymm0
	vaddps	%ymm0, %ymm4, %ymm0
	vmulps	%ymm3, %ymm0, %ymm0
	vaddps	%ymm1, %ymm4, %ymm1
	vmulps	%ymm3, %ymm1, %ymm1
	vaddps	%ymm1, %ymm4, %ymm1
	vmulps	%ymm3, %ymm1, %ymm1
	vaddps	%ymm1, %ymm4, %ymm1
	vmulps	%ymm3, %ymm1, %ymm1
	vaddps	%ymm1, %ymm4, %ymm1
	vaddps	%ymm0, %ymm4, %ymm0
	vmulps	%ymm3, %ymm0, %ymm0
	vaddps	%ymm0, %ymm4, %ymm0
	vmulps	%ymm3, %ymm0, %ymm0
	vaddps	%ymm0, %ymm4, %ymm0
	vmulps	%ymm3, %ymm0, %ymm0
	vaddps	%ymm0, %ymm4, %ymm0
	vmulps	%ymm3, %ymm1, %ymm1
	vaddps	%ymm1, %ymm4, %ymm1
	vmulps	%ymm3, %ymm1, %ymm1
	vaddps	%ymm1, %ymm4, %ymm1
	vmulps	%ymm3, %ymm1, %ymm1
	vaddps	%ymm1, %ymm4, %ymm1
	vmulps	%ymm3, %ymm1, %ymm1
	vmulps	%ymm3, %ymm0, %ymm0
	vaddps	%ymm0, %ymm4, %ymm0
	vmulps	%ymm3, %ymm0, %ymm0
	vaddps	%ymm0, %ymm4, %ymm0
	vmulps	%ymm3, %ymm0, %ymm0
	vaddps	%ymm0, %ymm4, %ymm0
	vmulps	%ymm3, %ymm0, %ymm0
	vaddps	%ymm1, %ymm4, %ymm1
	vmulps	%ymm3, %ymm1, %ymm1
	vaddps	%ymm1, %ymm4, %ymm1
	vmulps	%ymm3, %ymm1, %ymm1
	vaddps	%ymm1, %ymm4, %ymm1
	vmulps	%ymm3, %ymm1, %ymm1
	vaddps	%ymm1, %ymm4, %ymm1
	vaddps	%ymm0, %ymm4, %ymm0
	vmulps	%ymm3, %ymm0, %ymm0
	vaddps	%ymm0, %ymm4, %ymm0
	vmulps	%ymm3, %ymm0, %ymm0
	vaddps	%ymm0, %ymm4, %ymm0
	vmulps	%ymm3, %ymm0, %ymm0
	vaddps	%ymm0, %ymm4, %ymm0
	vmulps	%ymm3, %ymm1, %ymm1
	vaddps	%ymm1, %ymm4, %ymm1
	vmulps	%ymm3, %ymm1, %ymm1
	vaddps	%ymm1, %ymm4, %ymm1
	vmulps	%ymm3, %ymm1, %ymm1
	vaddps	%ymm1, %ymm4, %ymm1
	vmulps	%ymm3, %ymm1, %ymm1
	vmulps	%ymm3, %ymm0, %ymm0
	vaddps	%ymm0, %ymm4, %ymm0
	vmulps	%ymm3, %ymm0, %ymm0
	vaddps	%ymm0, %ymm4, %ymm0
	vmulps	%ymm3, %ymm0, %ymm0
	vaddps	%ymm0, %ymm4, %ymm0
	vmulps	%ymm3, %ymm0, %ymm0
	vaddps	%ymm1, %ymm4, %ymm1
	vmulps	%ymm3, %ymm1, %ymm1
	vaddps	%ymm1, %ymm4, %ymm1
	vmulps	%ymm3, %ymm1, %ymm1
	vaddps	%ymm1, %ymm4, %ymm1
	vmulps	%ymm3, %ymm1, %ymm1
	vaddps	%ymm1, %ymm4, %ymm1
	vaddps	%ymm0, %ymm4, %ymm0
	vmulps	%ymm3, %ymm0, %ymm0
	vaddps	%ymm0, %ymm4, %ymm0
	vmulps	%ymm3, %ymm0, %ymm0
	vaddps	%ymm0, %ymm4, %ymm0
	vmulps	%ymm3, %ymm0, %ymm0
	vaddps	%ymm0, %ymm4, %ymm0
	vmulps	%ymm3, %ymm1, %ymm1
	vaddps	%ymm1, %ymm4, %ymm1
	vmulps	%ymm3, %ymm1, %ymm1
	vaddps	%ymm1, %ymm4, %ymm1
	vmulps	%ymm3, %ymm1, %ymm1
	vaddps	%ymm1, %ymm4, %ymm1
	vmulps	%ymm3, %ymm1, %ymm1
	vmulps	%ymm3, %ymm0, %ymm0
	vaddps	%ymm0, %ymm4, %ymm0
	vmulps	%ymm3, %ymm0, %ymm0
	vaddps	%ymm0, %ymm4, %ymm0
	vmulps	%ymm3, %ymm0, %ymm0
	vaddps	%ymm0, %ymm4, %ymm0
	vmulps	%ymm3, %ymm0, %ymm0
	vaddps	%ymm1, %ymm4, %ymm1
	vmulps	%ymm3, %ymm1, %ymm1
	vaddps	%ymm1, %ymm4, %ymm1
	vmulps	%ymm3, %ymm1, %ymm1
	vaddps	%ymm1, %ymm4, %ymm1
	vmulps	%ymm3, %ymm1, %ymm1
	vaddps	%ymm1, %ymm4, %ymm1
	vaddps	%ymm0, %ymm4, %ymm0
	vmulps	%ymm3, %ymm0, %ymm0
	vaddps	%ymm0, %ymm4, %ymm0
	vmulps	%ymm3, %ymm0, %ymm0
	vaddps	%ymm0, %ymm4, %ymm0
	vmulps	%ymm3, %ymm0, %ymm0
	vaddps	%ymm0, %ymm4, %ymm0
	vmulps	%ymm3, %ymm1, %ymm1
	vaddps	%ymm1, %ymm4, %ymm1
	vmulps	%ymm3, %ymm1, %ymm1
	vaddps	%ymm1, %ymm4, %ymm1
	vmulps	%ymm3, %ymm1, %ymm1
	vaddps	%ymm1, %ymm4, %ymm1
	vmulps	%ymm3, %ymm1, %ymm1
	vmulps	%ymm3, %ymm0, %ymm0
	vaddps	%ymm0, %ymm4, %ymm0
	vmulps	%ymm3, %ymm0, %ymm0
	vaddps	%ymm0, %ymm4, %ymm0
	vmulps	%ymm3, %ymm0, %ymm0
	vaddps	%ymm0, %ymm4, %ymm0
	vmulps	%ymm3, %ymm0, %ymm0
	vaddps	%ymm1, %ymm4, %ymm1
	vmulps	%ymm3, %ymm1, %ymm1
	vaddps	%ymm1, %ymm4, %ymm1
	vmulps	%ymm3, %ymm1, %ymm1
	vaddps	%ymm1, %ymm4, %ymm1
	vmulps	%ymm3, %ymm1, %ymm1
	vaddps	%ymm1, %ymm4, %ymm1
	vaddps	%ymm0, %ymm4, %ymm0
	vmulps	%ymm3, %ymm0, %ymm0
	vaddps	%ymm0, %ymm4, %ymm0
	vmulps	%ymm3, %ymm0, %ymm0
	vaddps	%ymm0, %ymm4, %ymm0
	vmulps	%ymm3, %ymm0, %ymm0
	vaddps	%ymm0, %ymm4, %ymm0
	vmulps	%ymm3, %ymm1, %ymm1
	vaddps	%ymm1, %ymm4, %ymm1
	vmulps	%ymm3, %ymm1, %ymm1
	vaddps	%ymm1, %ymm4, %ymm1
	vmulps	%ymm3, %ymm1, %ymm1
	vaddps	%ymm1, %ymm4, %ymm1
	vmulps	%ymm3, %ymm1, %ymm1
	vmulps	%ymm3, %ymm0, %ymm0
	vaddps	%ymm0, %ymm4, %ymm0
	vmulps	%ymm3, %ymm0, %ymm0
	vaddps	%ymm0, %ymm4, %ymm0
	vmulps	%ymm3, %ymm0, %ymm0
	vaddps	%ymm0, %ymm4, %ymm0
	vmulps	%ymm3, %ymm0, %ymm0
	vaddps	%ymm1, %ymm4, %ymm1
	vmulps	%ymm3, %ymm1, %ymm1
	vaddps	%ymm1, %ymm4, %ymm1
	vmulps	%ymm3, %ymm1, %ymm1
	vaddps	%ymm1, %ymm4, %ymm1
	vmulps	%ymm3, %ymm1, %ymm1
	vaddps	%ymm1, %ymm4, %ymm1
	vaddps	%ymm0, %ymm4, %ymm0
	vmulps	%ymm3, %ymm0, %ymm0
	vaddps	%ymm0, %ymm4, %ymm0
	vmulps	%ymm3, %ymm0, %ymm0
	vaddps	%ymm0, %ymm4, %ymm0
	vmulps	%ymm3, %ymm0, %ymm0
	vaddps	%ymm0, %ymm4, %ymm0
	vmulps	%ymm3, %ymm1, %ymm1
	vaddps	%ymm1, %ymm4, %ymm1
	vmulps	%ymm3, %ymm1, %ymm1
	vaddps	%ymm1, %ymm4, %ymm1
	vmulps	%ymm3, %ymm1, %ymm1
	vaddps	%ymm1, %ymm4, %ymm1
	vmulps	%ymm3, %ymm1, %ymm1
	vmulps	%ymm3, %ymm0, %ymm0
	vaddps	%ymm0, %ymm4, %ymm0
	vmulps	%ymm3, %ymm0, %ymm0
	vaddps	%ymm0, %ymm4, %ymm0
	vmulps	%ymm3, %ymm0, %ymm0
	vaddps	%ymm0, %ymm4, %ymm0
	vmulps	%ymm3, %ymm0, %ymm0
	vaddps	%ymm1, %ymm4, %ymm1
	vmulps	%ymm3, %ymm1, %ymm1
	vaddps	%ymm1, %ymm4, %ymm1
	vmulps	%ymm3, %ymm1, %ymm1
	vaddps	%ymm1, %ymm4, %ymm1
	vmulps	%ymm3, %ymm1, %ymm1
	vaddps	%ymm1, %ymm4, %ymm1
	vaddps	%ymm0, %ymm4, %ymm0
	vmulps	%ymm3, %ymm0, %ymm0
	vaddps	%ymm0, %ymm4, %ymm0
	vmulps	%ymm3, %ymm0, %ymm0
	vaddps	%ymm0, %ymm4, %ymm0
	vmulps	%ymm3, %ymm0, %ymm0
	vaddps	%ymm0, %ymm4, %ymm0
	vmulps	%ymm3, %ymm1, %ymm1
	vaddps	%ymm1, %ymm4, %ymm1
	vmulps	%ymm3, %ymm1, %ymm1
	vaddps	%ymm1, %ymm4, %ymm1
	vmulps	%ymm3, %ymm1, %ymm1
	vaddps	%ymm1, %ymm4, %ymm1
	vmulps	%ymm3, %ymm1, %ymm1
	vmulps	%ymm3, %ymm0, %ymm0
	vaddps	%ymm0, %ymm4, %ymm0
	vmulps	%ymm3, %ymm0, %ymm0
	vaddps	%ymm0, %ymm4, %ymm0
	vmulps	%ymm3, %ymm0, %ymm0
	vaddps	%ymm0, %ymm4, %ymm0
	vmulps	%ymm3, %ymm0, %ymm0
	vaddps	%ymm1, %ymm4, %ymm1
	vmulps	%ymm3, %ymm1, %ymm1
	vaddps	%ymm1, %ymm4, %ymm1
	vmulps	%ymm3, %ymm1, %ymm1
	vaddps	%ymm1, %ymm4, %ymm1
	vmulps	%ymm3, %ymm1, %ymm1
	vaddps	%ymm1, %ymm4, %ymm1
	vaddps	%ymm0, %ymm4, %ymm0
	vmulps	%ymm3, %ymm0, %ymm0
	vaddps	%ymm0, %ymm4, %ymm0
	vmulps	%ymm3, %ymm0, %ymm0
	vaddps	%ymm0, %ymm4, %ymm0
	vmulps	%ymm3, %ymm0, %ymm0
	vaddps	%ymm0, %ymm4, %ymm0
	vmulps	%ymm3, %ymm1, %ymm1
	vaddps	%ymm1, %ymm4, %ymm1
	vmulps	%ymm3, %ymm1, %ymm1
	vaddps	%ymm1, %ymm4, %ymm1
	vmulps	%ymm3, %ymm1, %ymm1
	vaddps	%ymm1, %ymm4, %ymm1
	vmulps	%ymm3, %ymm1, %ymm1
	vmulps	%ymm3, %ymm0, %ymm0
	vaddps	%ymm0, %ymm4, %ymm0
	vmulps	%ymm3, %ymm0, %ymm0
	vaddps	%ymm0, %ymm4, %ymm0
	vmulps	%ymm3, %ymm0, %ymm0
	vaddps	%ymm0, %ymm4, %ymm0
	vmulps	%ymm3, %ymm0, %ymm0
	vaddps	%ymm1, %ymm4, %ymm1
	vmulps	%ymm3, %ymm1, %ymm1
	vaddps	%ymm1, %ymm4, %ymm1
	vmulps	%ymm3, %ymm1, %ymm1
	vaddps	%ymm1, %ymm4, %ymm1
	vmulps	%ymm3, %ymm1, %ymm1
	vaddps	%ymm1, %ymm4, %ymm1
	vaddps	%ymm0, %ymm4, %ymm0
	vmulps	%ymm3, %ymm0, %ymm0
	vaddps	%ymm0, %ymm4, %ymm0
	vmulps	%ymm3, %ymm0, %ymm0
	vaddps	%ymm0, %ymm4, %ymm0
	vmulps	%ymm3, %ymm0, %ymm0
	vaddps	%ymm0, %ymm4, %ymm0
	vmulps	%ymm3, %ymm1, %ymm1
	vaddps	%ymm1, %ymm4, %ymm1
	vmulps	%ymm3, %ymm1, %ymm1
	vaddps	%ymm1, %ymm4, %ymm1
	vmulps	%ymm3, %ymm1, %ymm1
	vaddps	%ymm1, %ymm4, %ymm1
	vmulps	%ymm3, %ymm1, %ymm1
	vmulps	%ymm3, %ymm0, %ymm0
	vaddps	%ymm0, %ymm4, %ymm0
	vmulps	%ymm3, %ymm0, %ymm0
	vaddps	%ymm0, %ymm4, %ymm0
	vmulps	%ymm3, %ymm0, %ymm0
	vaddps	%ymm0, %ymm4, %ymm0
	vmulps	%ymm3, %ymm0, %ymm0
	vaddps	%ymm1, %ymm4, %ymm1
	vmulps	%ymm3, %ymm1, %ymm1
	vaddps	%ymm1, %ymm4, %ymm1
	vmulps	%ymm3, %ymm1, %ymm1
	vaddps	%ymm1, %ymm4, %ymm1
	vmulps	%ymm3, %ymm1, %ymm1
	vaddps	%ymm1, %ymm4, %ymm1
	vaddps	%ymm0, %ymm4, %ymm0
	vmulps	%ymm3, %ymm0, %ymm0
	vaddps	%ymm0, %ymm4, %ymm0
	vmulps	%ymm3, %ymm0, %ymm0
	vaddps	%ymm0, %ymm4, %ymm0
	vmulps	%ymm3, %ymm0, %ymm0
	vaddps	%ymm0, %ymm4, %ymm0
	vmulps	%ymm3, %ymm1, %ymm1
	vaddps	%ymm1, %ymm4, %ymm1
	vmulps	%ymm3, %ymm1, %ymm1
	vaddps	%ymm1, %ymm4, %ymm1
	vmulps	%ymm3, %ymm1, %ymm1
	vaddps	%ymm1, %ymm4, %ymm1
	vmulps	%ymm3, %ymm1, %ymm1
	vmulps	%ymm3, %ymm0, %ymm0
	vaddps	%ymm0, %ymm4, %ymm0
	vmulps	%ymm3, %ymm0, %ymm0
	vaddps	%ymm0, %ymm4, %ymm0
	vmulps	%ymm3, %ymm0, %ymm0
	vaddps	%ymm0, %ymm4, %ymm0
	vmulps	%ymm3, %ymm0, %ymm0
	vaddps	%ymm1, %ymm4, %ymm1
	vmulps	%ymm3, %ymm1, %ymm1
	vaddps	%ymm1, %ymm4, %ymm1
	vmulps	%ymm3, %ymm1, %ymm1
	vaddps	%ymm1, %ymm4, %ymm1
	vmulps	%ymm3, %ymm1, %ymm1
	vaddps	%ymm1, %ymm4, %ymm1
	vaddps	%ymm0, %ymm4, %ymm0
	vmulps	%ymm3, %ymm0, %ymm0
	vaddps	%ymm0, %ymm4, %ymm0
	vmulps	%ymm3, %ymm0, %ymm0
	vaddps	%ymm0, %ymm4, %ymm0
	vmulps	%ymm3, %ymm0, %ymm0
	vaddps	%ymm0, %ymm4, %ymm0
	vmulps	%ymm3, %ymm1, %ymm1
	vaddps	%ymm1, %ymm4, %ymm1
	vmulps	%ymm3, %ymm1, %ymm1
	vaddps	%ymm1, %ymm4, %ymm1
	vmulps	%ymm3, %ymm1, %ymm1
	vaddps	%ymm1, %ymm4, %ymm1
	vmulps	%ymm3, %ymm1, %ymm1
	vmulps	%ymm3, %ymm0, %ymm0
	vaddps	%ymm0, %ymm4, %ymm0
	vmulps	%ymm3, %ymm0, %ymm0
	vaddps	%ymm0, %ymm4, %ymm0
	vmulps	%ymm3, %ymm0, %ymm0
	vaddps	%ymm0, %ymm4, %ymm0
	vmulps	%ymm3, %ymm0, %ymm0
	vaddps	%ymm1, %ymm4, %ymm1
	vmulps	%ymm3, %ymm1, %ymm1
	vaddps	%ymm1, %ymm4, %ymm1
	vmulps	%ymm3, %ymm1, %ymm1
	vaddps	%ymm1, %ymm4, %ymm1
	vmulps	%ymm3, %ymm1, %ymm1
	vaddps	%ymm1, %ymm4, %ymm1
	vaddps	%ymm0, %ymm4, %ymm0
	vmulps	%ymm3, %ymm0, %ymm0
	vaddps	%ymm0, %ymm4, %ymm0
	vmulps	%ymm3, %ymm0, %ymm0
	vaddps	%ymm0, %ymm4, %ymm0
	vmulps	%ymm3, %ymm0, %ymm0
	vaddps	%ymm0, %ymm4, %ymm0
	vmulps	%ymm3, %ymm1, %ymm1
	vaddps	%ymm1, %ymm4, %ymm1
	vmulps	%ymm3, %ymm1, %ymm1
	vaddps	%ymm1, %ymm4, %ymm1
	vmulps	%ymm3, %ymm1, %ymm1
	vaddps	%ymm1, %ymm4, %ymm1
	vmulps	%ymm3, %ymm1, %ymm1
	vmulps	%ymm3, %ymm0, %ymm0
	vaddps	%ymm0, %ymm4, %ymm0
	vmulps	%ymm3, %ymm0, %ymm0
	vaddps	%ymm0, %ymm4, %ymm0
	vmulps	%ymm3, %ymm0, %ymm0
	vaddps	%ymm0, %ymm4, %ymm0
	vmulps	%ymm3, %ymm0, %ymm0
	vaddps	%ymm1, %ymm4, %ymm1
	vmulps	%ymm3, %ymm1, %ymm1
	vaddps	%ymm1, %ymm4, %ymm1
	vmulps	%ymm3, %ymm1, %ymm1
	vaddps	%ymm1, %ymm4, %ymm1
	vmulps	%ymm3, %ymm1, %ymm1
	vaddps	%ymm1, %ymm4, %ymm1
	vaddps	%ymm0, %ymm4, %ymm0
	vmulps	%ymm3, %ymm0, %ymm0
	vaddps	%ymm0, %ymm4, %ymm0
	vmulps	%ymm3, %ymm0, %ymm0
	vaddps	%ymm0, %ymm4, %ymm0
	vmulps	%ymm3, %ymm0, %ymm0
	vaddps	%ymm0, %ymm4, %ymm0
	vmulps	%ymm3, %ymm1, %ymm1
	vaddps	%ymm1, %ymm4, %ymm1
	vmulps	%ymm3, %ymm1, %ymm1
	vaddps	%ymm1, %ymm4, %ymm1
	vmulps	%ymm3, %ymm1, %ymm1
	vaddps	%ymm1, %ymm4, %ymm1
	vmulps	%ymm3, %ymm1, %ymm1
	vmulps	%ymm3, %ymm0, %ymm0
	vaddps	%ymm0, %ymm4, %ymm0
	vmulps	%ymm3, %ymm0, %ymm0
	vaddps	%ymm0, %ymm4, %ymm0
	vmulps	%ymm3, %ymm0, %ymm0
	vaddps	%ymm0, %ymm4, %ymm0
	vmulps	%ymm3, %ymm0, %ymm0
	vaddps	%ymm1, %ymm4, %ymm1
	vmulps	%ymm3, %ymm1, %ymm1
	vaddps	%ymm1, %ymm4, %ymm1
	vmulps	%ymm3, %ymm1, %ymm1
	vaddps	%ymm1, %ymm4, %ymm1
	vmulps	%ymm3, %ymm1, %ymm1
	vaddps	%ymm1, %ymm4, %ymm1
	vaddps	%ymm0, %ymm4, %ymm0
	vmulps	%ymm3, %ymm0, %ymm0
	vaddps	%ymm0, %ymm4, %ymm0
	vmulps	%ymm3, %ymm0, %ymm0
	vaddps	%ymm0, %ymm4, %ymm0
	vmulps	%ymm3, %ymm0, %ymm0
	vaddps	%ymm0, %ymm4, %ymm0
	vmulps	%ymm3, %ymm1, %ymm1
	vaddps	%ymm1, %ymm4, %ymm1
	vmulps	%ymm3, %ymm1, %ymm1
	vaddps	%ymm1, %ymm4, %ymm1
	vmulps	%ymm3, %ymm1, %ymm1
	vaddps	%ymm1, %ymm4, %ymm1
	vmulps	%ymm3, %ymm1, %ymm1
	vmulps	%ymm3, %ymm0, %ymm0
	vaddps	%ymm0, %ymm4, %ymm0
	vmulps	%ymm3, %ymm0, %ymm0
	vaddps	%ymm0, %ymm4, %ymm0
	vmulps	%ymm3, %ymm0, %ymm0
	vaddps	%ymm0, %ymm4, %ymm0
	vmulps	%ymm3, %ymm0, %ymm0
	vaddps	%ymm1, %ymm4, %ymm1
	vmulps	%ymm3, %ymm1, %ymm1
	vaddps	%ymm1, %ymm4, %ymm1
	vmulps	%ymm3, %ymm1, %ymm1
	vaddps	%ymm1, %ymm4, %ymm1
	vmulps	%ymm3, %ymm1, %ymm1
	vaddps	%ymm1, %ymm4, %ymm1
	vaddps	%ymm0, %ymm4, %ymm0
	vmulps	%ymm3, %ymm0, %ymm0
	vaddps	%ymm0, %ymm4, %ymm0
	vmulps	%ymm3, %ymm0, %ymm0
	vaddps	%ymm0, %ymm4, %ymm0
	vmulps	%ymm3, %ymm0, %ymm0
	vaddps	%ymm0, %ymm4, %ymm0
	vmulps	%ymm3, %ymm1, %ymm1
	vaddps	%ymm1, %ymm4, %ymm1
	vmulps	%ymm3, %ymm1, %ymm1
	vaddps	%ymm1, %ymm4, %ymm1
	vmulps	%ymm3, %ymm1, %ymm1
	vaddps	%ymm1, %ymm4, %ymm1
	vmulps	%ymm3, %ymm1, %ymm1
	vmulps	%ymm3, %ymm0, %ymm0
	vaddps	%ymm0, %ymm4, %ymm0
	vmulps	%ymm3, %ymm0, %ymm0
	vaddps	%ymm0, %ymm4, %ymm0
	vmulps	%ymm3, %ymm0, %ymm0
	vaddps	%ymm0, %ymm4, %ymm0
	vmulps	%ymm3, %ymm0, %ymm0
	vaddps	%ymm1, %ymm4, %ymm1
	vmulps	%ymm3, %ymm1, %ymm1
	vaddps	%ymm1, %ymm4, %ymm1
	vmulps	%ymm3, %ymm1, %ymm1
	vaddps	%ymm1, %ymm4, %ymm1
	vmulps	%ymm3, %ymm1, %ymm1
	vaddps	%ymm1, %ymm4, %ymm1
	vaddps	%ymm0, %ymm4, %ymm0
	vmulps	%ymm3, %ymm0, %ymm0
	vaddps	%ymm0, %ymm4, %ymm0
	vmulps	%ymm3, %ymm0, %ymm0
	vaddps	%ymm0, %ymm4, %ymm0
	vmulps	%ymm3, %ymm0, %ymm0
	vaddps	%ymm0, %ymm4, %ymm0
	vmulps	%ymm3, %ymm1, %ymm1
	vaddps	%ymm1, %ymm4, %ymm1
	vmulps	%ymm3, %ymm1, %ymm1
	vaddps	%ymm1, %ymm4, %ymm1
	vmulps	%ymm3, %ymm1, %ymm1
	vaddps	%ymm1, %ymm4, %ymm1
	vmulps	%ymm3, %ymm1, %ymm1
	vmulps	%ymm3, %ymm0, %ymm0
	vaddps	%ymm0, %ymm4, %ymm0
	vmulps	%ymm3, %ymm0, %ymm0
	vaddps	%ymm0, %ymm4, %ymm0
	vmulps	%ymm3, %ymm0, %ymm0
	vaddps	%ymm0, %ymm4, %ymm0
	vmulps	%ymm3, %ymm0, %ymm0
	vaddps	%ymm1, %ymm4, %ymm1
	vmulps	%ymm3, %ymm1, %ymm1
	vaddps	%ymm1, %ymm4, %ymm1
	vmulps	%ymm3, %ymm1, %ymm1
	vaddps	%ymm1, %ymm4, %ymm1
	vmulps	%ymm3, %ymm1, %ymm1
	vaddps	%ymm1, %ymm4, %ymm1
	vaddps	%ymm0, %ymm4, %ymm0
	vmulps	%ymm3, %ymm0, %ymm0
	vaddps	%ymm0, %ymm4, %ymm0
	vmulps	%ymm3, %ymm0, %ymm0
	vaddps	%ymm0, %ymm4, %ymm0
	vmulps	%ymm3, %ymm0, %ymm0
	vaddps	%ymm0, %ymm4, %ymm0
	vmulps	%ymm3, %ymm1, %ymm1
	vaddps	%ymm1, %ymm4, %ymm1
	vmulps	%ymm3, %ymm1, %ymm1
	vaddps	%ymm1, %ymm4, %ymm1
	vmulps	%ymm3, %ymm1, %ymm1
	vaddps	%ymm1, %ymm4, %ymm1
	vmulps	%ymm3, %ymm1, %ymm1
	vmulps	%ymm3, %ymm0, %ymm0
	vaddps	%ymm0, %ymm4, %ymm0
	vmulps	%ymm3, %ymm0, %ymm0
	vaddps	%ymm0, %ymm4, %ymm0
	vmulps	%ymm3, %ymm0, %ymm0
	vaddps	%ymm0, %ymm4, %ymm0
	vmulps	%ymm3, %ymm0, %ymm0
	vaddps	%ymm1, %ymm4, %ymm1
	vmulps	%ymm3, %ymm1, %ymm1
	vaddps	%ymm1, %ymm4, %ymm1
	vmulps	%ymm3, %ymm1, %ymm1
	vaddps	%ymm1, %ymm4, %ymm1
	vmulps	%ymm3, %ymm1, %ymm1
	vaddps	%ymm1, %ymm4, %ymm1
	vaddps	%ymm0, %ymm4, %ymm0
	vmulps	%ymm3, %ymm0, %ymm0
	vaddps	%ymm0, %ymm4, %ymm0
	vmulps	%ymm3, %ymm0, %ymm0
	vaddps	%ymm0, %ymm4, %ymm0
	vmulps	%ymm3, %ymm0, %ymm0
	vaddps	%ymm0, %ymm4, %ymm0
	vmulps	%ymm3, %ymm1, %ymm1
	vaddps	%ymm1, %ymm4, %ymm1
	vmulps	%ymm3, %ymm1, %ymm1
	vaddps	%ymm1, %ymm4, %ymm1
	vmulps	%ymm3, %ymm1, %ymm1
	vaddps	%ymm1, %ymm4, %ymm1
	vmulps	%ymm3, %ymm1, %ymm1
	vmulps	%ymm3, %ymm0, %ymm0
	vaddps	%ymm0, %ymm4, %ymm0
	vmulps	%ymm3, %ymm0, %ymm0
	vaddps	%ymm0, %ymm4, %ymm0
	vmulps	%ymm3, %ymm0, %ymm0
	vaddps	%ymm0, %ymm4, %ymm0
	vmulps	%ymm3, %ymm0, %ymm0
	vaddps	%ymm1, %ymm4, %ymm1
	vmulps	%ymm3, %ymm1, %ymm1
	vaddps	%ymm1, %ymm4, %ymm1
	vmulps	%ymm3, %ymm1, %ymm1
	vaddps	%ymm1, %ymm4, %ymm1
	vmulps	%ymm3, %ymm1, %ymm1
	vaddps	%ymm1, %ymm4, %ymm1
	vaddps	%ymm0, %ymm4, %ymm0
	vmulps	%ymm3, %ymm0, %ymm0
	vaddps	%ymm0, %ymm4, %ymm0
	vmulps	%ymm3, %ymm0, %ymm0
	vaddps	%ymm0, %ymm4, %ymm0
	vmulps	%ymm3, %ymm0, %ymm0
	vaddps	%ymm0, %ymm4, %ymm0
	vmulps	%ymm3, %ymm1, %ymm1
	vaddps	%ymm1, %ymm4, %ymm1
	vmulps	%ymm3, %ymm1, %ymm1
	vaddps	%ymm1, %ymm4, %ymm1
	vmulps	%ymm3, %ymm1, %ymm1
	vaddps	%ymm1, %ymm4, %ymm1
	vmulps	%ymm3, %ymm1, %ymm1
	vmulps	%ymm3, %ymm0, %ymm0
	vaddps	%ymm0, %ymm4, %ymm0
	vmulps	%ymm3, %ymm0, %ymm0
	vaddps	%ymm0, %ymm4, %ymm0
	vmulps	%ymm3, %ymm0, %ymm0
	vaddps	%ymm0, %ymm4, %ymm0
	vmulps	%ymm3, %ymm0, %ymm0
	vaddps	%ymm1, %ymm4, %ymm1
	vmulps	%ymm3, %ymm1, %ymm1
	vaddps	%ymm1, %ymm4, %ymm1
	vmulps	%ymm3, %ymm1, %ymm1
	vaddps	%ymm1, %ymm4, %ymm1
	vmulps	%ymm3, %ymm1, %ymm1
	vaddps	%ymm1, %ymm4, %ymm1
	vaddps	%ymm0, %ymm4, %ymm0
	vmulps	%ymm3, %ymm0, %ymm0
	vaddps	%ymm0, %ymm4, %ymm0
	vmulps	%ymm3, %ymm0, %ymm0
	vaddps	%ymm0, %ymm4, %ymm0
	vmulps	%ymm3, %ymm0, %ymm0
	vaddps	%ymm0, %ymm4, %ymm0
	vmulps	%ymm3, %ymm1, %ymm1
	vaddps	%ymm1, %ymm4, %ymm1
	vmulps	%ymm3, %ymm1, %ymm1
	vaddps	%ymm1, %ymm4, %ymm1
	vmulps	%ymm3, %ymm1, %ymm1
	vaddps	%ymm1, %ymm4, %ymm1
	vmulps	%ymm3, %ymm1, %ymm1
	vmulps	%ymm3, %ymm0, %ymm0
	vaddps	%ymm0, %ymm4, %ymm0
	vmulps	%ymm3, %ymm0, %ymm0
	vaddps	%ymm0, %ymm4, %ymm0
	vmulps	%ymm3, %ymm0, %ymm0
	vaddps	%ymm0, %ymm4, %ymm0
	vmulps	%ymm3, %ymm0, %ymm0
	vaddps	%ymm1, %ymm4, %ymm1
	vmulps	%ymm3, %ymm1, %ymm1
	vaddps	%ymm1, %ymm4, %ymm1
	vmulps	%ymm3, %ymm1, %ymm1
	vaddps	%ymm1, %ymm4, %ymm1
	vmulps	%ymm3, %ymm1, %ymm1
	vaddps	%ymm1, %ymm4, %ymm1
	vaddps	%ymm0, %ymm4, %ymm0
	vmulps	%ymm3, %ymm0, %ymm0
	vaddps	%ymm0, %ymm4, %ymm0
	vmulps	%ymm3, %ymm0, %ymm0
	vaddps	%ymm0, %ymm4, %ymm0
	vmulps	%ymm3, %ymm0, %ymm0
	vaddps	%ymm0, %ymm4, %ymm0
	vmulps	%ymm3, %ymm1, %ymm1
	vaddps	%ymm1, %ymm4, %ymm1
	vmulps	%ymm3, %ymm1, %ymm1
	vaddps	%ymm1, %ymm4, %ymm1
	vmulps	%ymm3, %ymm1, %ymm1
	vaddps	%ymm1, %ymm4, %ymm1
	vmulps	%ymm3, %ymm1, %ymm1
	vmulps	%ymm3, %ymm0, %ymm0
	vaddps	%ymm0, %ymm4, %ymm0
	vmulps	%ymm3, %ymm0, %ymm0
	vaddps	%ymm0, %ymm4, %ymm0
	vmulps	%ymm3, %ymm0, %ymm0
	vaddps	%ymm0, %ymm4, %ymm0
	vmulps	%ymm3, %ymm0, %ymm0
	vaddps	%ymm1, %ymm4, %ymm1
	vmulps	%ymm3, %ymm1, %ymm1
	vaddps	%ymm1, %ymm4, %ymm1
	vmulps	%ymm3, %ymm1, %ymm1
	vaddps	%ymm1, %ymm4, %ymm1
	vmulps	%ymm3, %ymm1, %ymm1
	vaddps	%ymm1, %ymm4, %ymm1
	vaddps	%ymm0, %ymm4, %ymm0
	vmulps	%ymm3, %ymm0, %ymm0
	vaddps	%ymm0, %ymm4, %ymm0
	vmulps	%ymm3, %ymm0, %ymm0
	vaddps	%ymm0, %ymm4, %ymm0
	vmulps	%ymm3, %ymm0, %ymm0
	vaddps	%ymm0, %ymm4, %ymm0
	vmulps	%ymm3, %ymm1, %ymm1
	vaddps	%ymm1, %ymm4, %ymm1
	vmulps	%ymm3, %ymm1, %ymm1
	vaddps	%ymm1, %ymm4, %ymm1
	vmulps	%ymm3, %ymm1, %ymm1
	vaddps	%ymm1, %ymm4, %ymm1
	vmulps	%ymm3, %ymm1, %ymm1
	vmulps	%ymm3, %ymm0, %ymm0
	vaddps	%ymm0, %ymm4, %ymm0
	vmulps	%ymm3, %ymm0, %ymm0
	vaddps	%ymm0, %ymm4, %ymm0
	vmulps	%ymm3, %ymm0, %ymm0
	vaddps	%ymm0, %ymm4, %ymm0
	vmulps	%ymm3, %ymm0, %ymm0
	vaddps	%ymm1, %ymm4, %ymm1
	vmulps	%ymm3, %ymm1, %ymm1
	vaddps	%ymm1, %ymm4, %ymm1
	vmulps	%ymm3, %ymm1, %ymm1
	vaddps	%ymm1, %ymm4, %ymm1
	vmulps	%ymm3, %ymm1, %ymm1
	vaddps	%ymm1, %ymm4, %ymm1
	vaddps	%ymm0, %ymm4, %ymm0
	vmulps	%ymm3, %ymm0, %ymm0
	vaddps	%ymm0, %ymm4, %ymm0
	vmulps	%ymm3, %ymm0, %ymm0
	vaddps	%ymm0, %ymm4, %ymm0
	vmulps	%ymm3, %ymm0, %ymm0
	vaddps	%ymm0, %ymm4, %ymm0
	vmulps	%ymm3, %ymm1, %ymm1
	vaddps	%ymm1, %ymm4, %ymm1
	vmulps	%ymm3, %ymm1, %ymm1
	vaddps	%ymm1, %ymm4, %ymm1
	vmulps	%ymm3, %ymm1, %ymm1
	vaddps	%ymm1, %ymm4, %ymm1
	vmulps	%ymm3, %ymm1, %ymm1
	vmulps	%ymm3, %ymm0, %ymm0
	vaddps	%ymm0, %ymm4, %ymm0
	vmulps	%ymm3, %ymm0, %ymm0
	vaddps	%ymm0, %ymm4, %ymm0
	vmulps	%ymm3, %ymm0, %ymm0
	vaddps	%ymm0, %ymm4, %ymm0
	vmulps	%ymm3, %ymm0, %ymm0
	vaddps	%ymm1, %ymm4, %ymm1
	vmulps	%ymm3, %ymm1, %ymm1
	vaddps	%ymm1, %ymm4, %ymm1
	vmulps	%ymm3, %ymm1, %ymm1
	vaddps	%ymm1, %ymm4, %ymm1
	vmulps	%ymm3, %ymm1, %ymm1
	vaddps	%ymm1, %ymm4, %ymm1
	vaddps	%ymm0, %ymm4, %ymm0
	vmulps	%ymm3, %ymm0, %ymm0
	vaddps	%ymm0, %ymm4, %ymm0
	vmulps	%ymm3, %ymm0, %ymm0
	vaddps	%ymm0, %ymm4, %ymm0
	vmulps	%ymm3, %ymm0, %ymm0
	vaddps	%ymm0, %ymm4, %ymm0
	vmulps	%ymm3, %ymm1, %ymm1
	vaddps	%ymm1, %ymm4, %ymm1
	vmulps	%ymm3, %ymm1, %ymm1
	vaddps	%ymm1, %ymm4, %ymm1
	vmulps	%ymm3, %ymm1, %ymm1
	vaddps	%ymm1, %ymm4, %ymm1
	vmulps	%ymm3, %ymm1, %ymm1
	vmulps	%ymm3, %ymm0, %ymm0
	vaddps	%ymm0, %ymm4, %ymm0
	vmulps	%ymm3, %ymm0, %ymm0
	vaddps	%ymm0, %ymm4, %ymm0
	vmulps	%ymm3, %ymm0, %ymm0
	vaddps	%ymm0, %ymm4, %ymm0
	vmulps	%ymm3, %ymm0, %ymm0
	vaddps	%ymm1, %ymm4, %ymm1
	vmulps	%ymm3, %ymm1, %ymm1
	vaddps	%ymm1, %ymm4, %ymm1
	vmulps	%ymm3, %ymm1, %ymm1
	vaddps	%ymm1, %ymm4, %ymm1
	vmulps	%ymm3, %ymm1, %ymm1
	vaddps	%ymm1, %ymm4, %ymm1
	vaddps	%ymm0, %ymm4, %ymm0
	vmulps	%ymm3, %ymm0, %ymm0
	vaddps	%ymm0, %ymm4, %ymm0
	vmulps	%ymm3, %ymm0, %ymm0
	vaddps	%ymm0, %ymm4, %ymm0
	vmulps	%ymm3, %ymm0, %ymm0
	vaddps	%ymm0, %ymm4, %ymm0
	vmulps	%ymm3, %ymm1, %ymm1
	vaddps	%ymm1, %ymm4, %ymm1
	vmulps	%ymm3, %ymm1, %ymm1
	vaddps	%ymm1, %ymm4, %ymm1
	vmulps	%ymm3, %ymm1, %ymm1
	vaddps	%ymm1, %ymm4, %ymm1
	vmulps	%ymm3, %ymm1, %ymm1
	vmulps	%ymm3, %ymm0, %ymm0
	vaddps	%ymm0, %ymm4, %ymm0
	vmulps	%ymm3, %ymm0, %ymm0
	vaddps	%ymm0, %ymm4, %ymm0
	vmulps	%ymm3, %ymm0, %ymm0
	vaddps	%ymm0, %ymm4, %ymm0
	vmulps	%ymm3, %ymm0, %ymm0
	vaddps	%ymm1, %ymm4, %ymm1
	vmulps	%ymm3, %ymm1, %ymm1
	vaddps	%ymm1, %ymm4, %ymm1
	vmulps	%ymm3, %ymm1, %ymm1
	vaddps	%ymm1, %ymm4, %ymm1
	vmulps	%ymm3, %ymm1, %ymm1
	vaddps	%ymm1, %ymm4, %ymm1
	vaddps	%ymm0, %ymm4, %ymm0
	vmulps	%ymm3, %ymm0, %ymm0
	vaddps	%ymm0, %ymm4, %ymm0
	vmulps	%ymm3, %ymm0, %ymm0
	vaddps	%ymm0, %ymm4, %ymm0
	vmulps	%ymm3, %ymm0, %ymm0
	vaddps	%ymm0, %ymm4, %ymm0
	vmulps	%ymm3, %ymm1, %ymm1
	vaddps	%ymm1, %ymm4, %ymm1
	vmulps	%ymm3, %ymm1, %ymm1
	vaddps	%ymm1, %ymm4, %ymm1
	vmulps	%ymm3, %ymm1, %ymm1
	vaddps	%ymm1, %ymm4, %ymm1
	vmulps	%ymm3, %ymm1, %ymm1
	vmulps	%ymm3, %ymm0, %ymm0
	vaddps	%ymm0, %ymm4, %ymm0
	vmulps	%ymm3, %ymm0, %ymm0
	vaddps	%ymm0, %ymm4, %ymm0
	vmulps	%ymm3, %ymm0, %ymm0
	vaddps	%ymm0, %ymm4, %ymm0
	vmulps	%ymm3, %ymm0, %ymm0
	vaddps	%ymm1, %ymm4, %ymm1
	vmulps	%ymm3, %ymm1, %ymm1
	vaddps	%ymm1, %ymm4, %ymm1
	vmulps	%ymm3, %ymm1, %ymm1
	vaddps	%ymm1, %ymm4, %ymm1
	vmulps	%ymm3, %ymm1, %ymm1
	vaddps	%ymm1, %ymm4, %ymm1
	vaddps	%ymm0, %ymm4, %ymm0
	vmulps	%ymm3, %ymm0, %ymm0
	vaddps	%ymm0, %ymm4, %ymm0
	vmulps	%ymm3, %ymm0, %ymm0
	vaddps	%ymm0, %ymm4, %ymm0
	vmulps	%ymm3, %ymm0, %ymm0
	vaddps	%ymm0, %ymm4, %ymm0
	vmulps	%ymm3, %ymm1, %ymm1
	vaddps	%ymm1, %ymm4, %ymm1
	vmulps	%ymm3, %ymm1, %ymm1
	vaddps	%ymm1, %ymm4, %ymm1
	vmulps	%ymm3, %ymm1, %ymm1
	vaddps	%ymm1, %ymm4, %ymm1
	vmulps	%ymm3, %ymm1, %ymm1
	vmulps	%ymm3, %ymm0, %ymm0
	vaddps	%ymm0, %ymm4, %ymm0
	vmulps	%ymm3, %ymm0, %ymm0
	vaddps	%ymm0, %ymm4, %ymm0
	vmulps	%ymm3, %ymm0, %ymm0
	vaddps	%ymm0, %ymm4, %ymm0
	vmulps	%ymm3, %ymm0, %ymm0
	vaddps	%ymm1, %ymm4, %ymm1
	vmulps	%ymm3, %ymm1, %ymm1
	vaddps	%ymm1, %ymm4, %ymm1
	vmulps	%ymm3, %ymm1, %ymm1
	vaddps	%ymm1, %ymm4, %ymm1
	vmulps	%ymm3, %ymm1, %ymm1
	vaddps	%ymm1, %ymm4, %ymm1
	vaddps	%ymm0, %ymm4, %ymm0
	vmulps	%ymm3, %ymm0, %ymm0
	vaddps	%ymm0, %ymm4, %ymm0
	vmulps	%ymm3, %ymm0, %ymm0
	vaddps	%ymm0, %ymm4, %ymm0
	vmulps	%ymm3, %ymm0, %ymm0
	vaddps	%ymm0, %ymm4, %ymm0
	vmulps	%ymm3, %ymm1, %ymm1
	vaddps	%ymm1, %ymm4, %ymm1
	vmulps	%ymm3, %ymm1, %ymm1
	vaddps	%ymm1, %ymm4, %ymm1
	vmulps	%ymm3, %ymm1, %ymm1
	vaddps	%ymm1, %ymm4, %ymm1
	vmulps	%ymm3, %ymm1, %ymm1
	vmulps	%ymm3, %ymm0, %ymm0
	vaddps	%ymm0, %ymm4, %ymm0
	vmulps	%ymm3, %ymm0, %ymm0
	vaddps	%ymm0, %ymm4, %ymm0
	vmulps	%ymm3, %ymm0, %ymm0
	vaddps	%ymm0, %ymm4, %ymm0
	vmulps	%ymm3, %ymm0, %ymm0
	vaddps	%ymm1, %ymm4, %ymm1
	vmulps	%ymm3, %ymm1, %ymm1
	vaddps	%ymm1, %ymm4, %ymm1
	vmulps	%ymm3, %ymm1, %ymm1
	vaddps	%ymm1, %ymm4, %ymm1
	vmulps	%ymm3, %ymm1, %ymm1
	vaddps	%ymm1, %ymm4, %ymm1
	vaddps	%ymm0, %ymm4, %ymm0
	vmulps	%ymm3, %ymm0, %ymm0
	vaddps	%ymm0, %ymm4, %ymm0
	vmulps	%ymm3, %ymm0, %ymm0
	vaddps	%ymm0, %ymm4, %ymm0
	vmulps	%ymm3, %ymm0, %ymm0
	vaddps	%ymm0, %ymm4, %ymm0
	vmulps	%ymm3, %ymm1, %ymm1
	vaddps	%ymm1, %ymm4, %ymm1
	vmulps	%ymm3, %ymm1, %ymm1
	vaddps	%ymm1, %ymm4, %ymm1
	vmulps	%ymm3, %ymm1, %ymm1
	vaddps	%ymm1, %ymm4, %ymm1
	vmulps	%ymm3, %ymm1, %ymm1
	vmulps	%ymm3, %ymm0, %ymm0
	vaddps	%ymm0, %ymm4, %ymm0
	vmulps	%ymm3, %ymm0, %ymm0
	vaddps	%ymm0, %ymm4, %ymm0
	vmulps	%ymm3, %ymm0, %ymm0
	vaddps	%ymm0, %ymm4, %ymm0
	vmulps	%ymm3, %ymm0, %ymm0
	vaddps	%ymm1, %ymm4, %ymm1
	vmulps	%ymm3, %ymm1, %ymm1
	vaddps	%ymm1, %ymm4, %ymm1
	vmulps	%ymm3, %ymm1, %ymm1
	vaddps	%ymm1, %ymm4, %ymm1
	vmulps	%ymm3, %ymm1, %ymm1
	vaddps	%ymm1, %ymm4, %ymm1
	vaddps	%ymm0, %ymm4, %ymm0
	vmulps	%ymm3, %ymm0, %ymm0
	vaddps	%ymm0, %ymm4, %ymm0
	vmulps	%ymm3, %ymm0, %ymm0
	vaddps	%ymm0, %ymm4, %ymm0
	vmulps	%ymm3, %ymm0, %ymm0
	vaddps	%ymm0, %ymm4, %ymm0
	vmulps	%ymm3, %ymm1, %ymm1
	vaddps	%ymm1, %ymm4, %ymm1
	vmulps	%ymm3, %ymm1, %ymm1
	vaddps	%ymm1, %ymm4, %ymm1
	vmulps	%ymm3, %ymm1, %ymm1
	vaddps	%ymm1, %ymm4, %ymm1
	vmulps	%ymm3, %ymm1, %ymm1
	vmulps	%ymm3, %ymm0, %ymm0
	vaddps	%ymm0, %ymm4, %ymm0
	vmulps	%ymm3, %ymm0, %ymm0
	vaddps	%ymm0, %ymm4, %ymm0
	vmulps	%ymm3, %ymm0, %ymm0
	vaddps	%ymm0, %ymm4, %ymm0
	vmulps	%ymm3, %ymm0, %ymm0
	vaddps	%ymm1, %ymm4, %ymm1
	vmulps	%ymm3, %ymm1, %ymm1
	vaddps	%ymm1, %ymm4, %ymm1
	vmulps	%ymm3, %ymm1, %ymm1
	vaddps	%ymm1, %ymm4, %ymm1
	vmulps	%ymm3, %ymm1, %ymm1
	vaddps	%ymm1, %ymm4, %ymm1
	vaddps	%ymm0, %ymm4, %ymm0
	vmulps	%ymm3, %ymm0, %ymm0
	vaddps	%ymm0, %ymm4, %ymm0
	vmulps	%ymm3, %ymm0, %ymm0
	vaddps	%ymm0, %ymm4, %ymm0
	vmulps	%ymm3, %ymm0, %ymm0
	vaddps	%ymm0, %ymm4, %ymm0
	vmulps	%ymm3, %ymm1, %ymm1
	vaddps	%ymm1, %ymm4, %ymm1
	vmulps	%ymm3, %ymm1, %ymm1
	vaddps	%ymm1, %ymm4, %ymm1
	vmulps	%ymm3, %ymm1, %ymm1
	vaddps	%ymm1, %ymm4, %ymm1
	vmulps	%ymm3, %ymm1, %ymm1
	vmulps	%ymm3, %ymm0, %ymm0
	vaddps	%ymm0, %ymm4, %ymm0
	vmulps	%ymm3, %ymm0, %ymm0
	vaddps	%ymm0, %ymm4, %ymm0
	vmulps	%ymm3, %ymm0, %ymm0
	vaddps	%ymm0, %ymm4, %ymm0
	vmulps	%ymm3, %ymm0, %ymm0
	vaddps	%ymm1, %ymm4, %ymm1
	vmulps	%ymm3, %ymm1, %ymm1
	vaddps	%ymm1, %ymm4, %ymm1
	vmulps	%ymm3, %ymm1, %ymm1
	vaddps	%ymm1, %ymm4, %ymm1
	vmulps	%ymm3, %ymm1, %ymm1
	vaddps	%ymm1, %ymm4, %ymm1
	vaddps	%ymm0, %ymm4, %ymm0
	vmulps	%ymm3, %ymm0, %ymm0
	vaddps	%ymm0, %ymm4, %ymm0
	vmulps	%ymm3, %ymm0, %ymm0
	vaddps	%ymm0, %ymm4, %ymm0
	vmulps	%ymm3, %ymm0, %ymm0
	vaddps	%ymm0, %ymm4, %ymm0
	vmulps	%ymm3, %ymm1, %ymm1
	vaddps	%ymm1, %ymm4, %ymm1
	vmulps	%ymm3, %ymm1, %ymm1
	vaddps	%ymm1, %ymm4, %ymm1
	vmulps	%ymm3, %ymm1, %ymm1
	vaddps	%ymm1, %ymm4, %ymm1
	vmulps	%ymm3, %ymm1, %ymm1
	vmulps	%ymm3, %ymm0, %ymm0
	vaddps	%ymm0, %ymm4, %ymm0
	vmulps	%ymm3, %ymm0, %ymm0
	vaddps	%ymm0, %ymm4, %ymm0
	vmulps	%ymm3, %ymm0, %ymm0
	vaddps	%ymm0, %ymm4, %ymm0
	vmulps	%ymm3, %ymm0, %ymm0
	vaddps	%ymm1, %ymm4, %ymm1
	vmulps	%ymm3, %ymm1, %ymm1
	vaddps	%ymm1, %ymm4, %ymm1
	vmulps	%ymm3, %ymm1, %ymm1
	vaddps	%ymm1, %ymm4, %ymm1
	vmulps	%ymm3, %ymm1, %ymm1
	vaddps	%ymm1, %ymm4, %ymm1
	vaddps	%ymm0, %ymm4, %ymm0
	vmulps	%ymm3, %ymm0, %ymm0
	vaddps	%ymm0, %ymm4, %ymm0
	vmulps	%ymm3, %ymm0, %ymm0
	vaddps	%ymm0, %ymm4, %ymm0
	vmulps	%ymm3, %ymm0, %ymm0
	vaddps	%ymm0, %ymm4, %ymm0
	vmulps	%ymm3, %ymm1, %ymm1
	vaddps	%ymm1, %ymm4, %ymm1
	vmulps	%ymm3, %ymm1, %ymm1
	vaddps	%ymm1, %ymm4, %ymm1
	vmulps	%ymm3, %ymm1, %ymm1
	vaddps	%ymm1, %ymm4, %ymm1
	vmulps	%ymm3, %ymm1, %ymm1
	vmulps	%ymm3, %ymm0, %ymm0
	vaddps	%ymm0, %ymm4, %ymm0
	vmulps	%ymm3, %ymm0, %ymm0
	vaddps	%ymm0, %ymm4, %ymm0
	vmulps	%ymm3, %ymm0, %ymm0
	vaddps	%ymm0, %ymm4, %ymm0
	vmulps	%ymm3, %ymm0, %ymm0
	vaddps	%ymm1, %ymm4, %ymm1
	vmulps	%ymm3, %ymm1, %ymm1
	vaddps	%ymm1, %ymm4, %ymm1
	vmulps	%ymm3, %ymm1, %ymm1
	vaddps	%ymm1, %ymm4, %ymm1
	vmulps	%ymm3, %ymm1, %ymm1
	vaddps	%ymm1, %ymm4, %ymm1
	vaddps	%ymm0, %ymm4, %ymm0
	vmulps	%ymm3, %ymm0, %ymm0
	vaddps	%ymm0, %ymm4, %ymm0
	vmulps	%ymm3, %ymm0, %ymm0
	vaddps	%ymm0, %ymm4, %ymm0
	vmulps	%ymm3, %ymm0, %ymm0
	vaddps	%ymm0, %ymm4, %ymm0
	vmulps	%ymm3, %ymm1, %ymm1
	vaddps	%ymm1, %ymm4, %ymm1
	vmulps	%ymm3, %ymm1, %ymm1
	vaddps	%ymm1, %ymm4, %ymm1
	vmulps	%ymm3, %ymm1, %ymm1
	vaddps	%ymm1, %ymm4, %ymm1
	vmulps	%ymm3, %ymm1, %ymm1
	vmulps	%ymm3, %ymm0, %ymm0
	vaddps	%ymm0, %ymm4, %ymm0
	vmulps	%ymm3, %ymm0, %ymm0
	vaddps	%ymm0, %ymm4, %ymm0
	vmulps	%ymm3, %ymm0, %ymm0
	vaddps	%ymm0, %ymm4, %ymm0
	vmulps	%ymm3, %ymm0, %ymm0
	vaddps	%ymm1, %ymm4, %ymm1
	vmulps	%ymm3, %ymm1, %ymm1
	vaddps	%ymm1, %ymm4, %ymm1
	vmulps	%ymm3, %ymm1, %ymm1
	vaddps	%ymm1, %ymm4, %ymm1
	vmulps	%ymm3, %ymm1, %ymm1
	vaddps	%ymm1, %ymm4, %ymm1
	vaddps	%ymm0, %ymm4, %ymm0
	vmulps	%ymm3, %ymm0, %ymm0
	vaddps	%ymm0, %ymm4, %ymm0
	vmulps	%ymm3, %ymm0, %ymm0
	vaddps	%ymm0, %ymm4, %ymm0
	vmulps	%ymm3, %ymm0, %ymm0
	vaddps	%ymm0, %ymm4, %ymm0
	vmulps	%ymm3, %ymm1, %ymm1
	vaddps	%ymm1, %ymm4, %ymm1
	vmulps	%ymm3, %ymm1, %ymm1
	vaddps	%ymm1, %ymm4, %ymm1
	vmulps	%ymm3, %ymm1, %ymm1
	vaddps	%ymm1, %ymm4, %ymm1
	vmulps	%ymm3, %ymm1, %ymm1
	vmulps	%ymm3, %ymm0, %ymm0
	vaddps	%ymm0, %ymm4, %ymm0
	vmulps	%ymm3, %ymm0, %ymm0
	vaddps	%ymm0, %ymm4, %ymm0
	vmulps	%ymm3, %ymm0, %ymm0
	vaddps	%ymm0, %ymm4, %ymm0
	vmulps	%ymm3, %ymm0, %ymm0
	vaddps	%ymm1, %ymm4, %ymm1
	vmulps	%ymm3, %ymm1, %ymm1
	vaddps	%ymm1, %ymm4, %ymm1
	vmulps	%ymm3, %ymm1, %ymm1
	vaddps	%ymm1, %ymm4, %ymm1
	vmulps	%ymm3, %ymm1, %ymm1
	vaddps	%ymm1, %ymm4, %ymm1
	vaddps	%ymm0, %ymm4, %ymm0
	vmulps	%ymm3, %ymm0, %ymm0
	vaddps	%ymm0, %ymm4, %ymm0
	vmulps	%ymm3, %ymm0, %ymm0
	vaddps	%ymm0, %ymm4, %ymm0
	vmulps	%ymm3, %ymm0, %ymm0
	vaddps	%ymm0, %ymm4, %ymm0
	vmulps	%ymm3, %ymm1, %ymm1
	vaddps	%ymm1, %ymm4, %ymm1
	vmulps	%ymm3, %ymm1, %ymm1
	vaddps	%ymm1, %ymm4, %ymm1
	vmulps	%ymm3, %ymm1, %ymm1
	vaddps	%ymm1, %ymm4, %ymm1
	vmulps	%ymm3, %ymm1, %ymm1
	vmulps	%ymm3, %ymm0, %ymm0
	vaddps	%ymm0, %ymm4, %ymm0
	vmulps	%ymm3, %ymm0, %ymm0
	vaddps	%ymm0, %ymm4, %ymm0
	vmulps	%ymm3, %ymm0, %ymm0
	vaddps	%ymm0, %ymm4, %ymm0
	vmulps	%ymm3, %ymm0, %ymm0
	vaddps	%ymm1, %ymm4, %ymm1
	vmulps	%ymm3, %ymm1, %ymm1
	vaddps	%ymm1, %ymm4, %ymm1
	vmulps	%ymm3, %ymm1, %ymm1
	vaddps	%ymm1, %ymm4, %ymm1
	vmulps	%ymm3, %ymm1, %ymm1
	vaddps	%ymm1, %ymm4, %ymm1
	vaddps	%ymm0, %ymm4, %ymm0
	vmulps	%ymm3, %ymm0, %ymm0
	vaddps	%ymm0, %ymm4, %ymm0
	vmulps	%ymm3, %ymm0, %ymm0
	vaddps	%ymm0, %ymm4, %ymm0
	vmulps	%ymm3, %ymm0, %ymm0
	vaddps	%ymm0, %ymm4, %ymm0
	vmulps	%ymm3, %ymm1, %ymm1
	vaddps	%ymm1, %ymm4, %ymm1
	vmulps	%ymm3, %ymm1, %ymm1
	vaddps	%ymm1, %ymm4, %ymm1
	vmulps	%ymm3, %ymm1, %ymm1
	vaddps	%ymm1, %ymm4, %ymm1
	vmulps	%ymm3, %ymm1, %ymm1
	vmulps	%ymm3, %ymm0, %ymm0
	vaddps	%ymm0, %ymm4, %ymm0
	vmulps	%ymm3, %ymm0, %ymm0
	vaddps	%ymm0, %ymm4, %ymm0
	vmulps	%ymm3, %ymm0, %ymm0
	vaddps	%ymm0, %ymm4, %ymm0
	vmulps	%ymm3, %ymm0, %ymm0
	vaddps	%ymm1, %ymm4, %ymm1
	vmulps	%ymm3, %ymm1, %ymm1
	vaddps	%ymm1, %ymm4, %ymm1
	vmulps	%ymm3, %ymm1, %ymm1
	vaddps	%ymm1, %ymm4, %ymm1
	vmulps	%ymm3, %ymm1, %ymm1
	vaddps	%ymm1, %ymm4, %ymm1
	vaddps	%ymm0, %ymm4, %ymm0
	vmulps	%ymm3, %ymm0, %ymm0
	vaddps	%ymm0, %ymm4, %ymm0
	vmulps	%ymm3, %ymm0, %ymm0
	vaddps	%ymm0, %ymm4, %ymm0
	vmulps	%ymm3, %ymm0, %ymm0
	vaddps	%ymm0, %ymm4, %ymm0
	vmulps	%ymm3, %ymm1, %ymm1
	vaddps	%ymm1, %ymm4, %ymm1
	vmulps	%ymm3, %ymm1, %ymm1
	vaddps	%ymm1, %ymm4, %ymm1
	vmulps	%ymm3, %ymm1, %ymm1
	vaddps	%ymm1, %ymm4, %ymm1
	vmulps	%ymm3, %ymm1, %ymm1
	vmulps	%ymm3, %ymm0, %ymm0
	vaddps	%ymm0, %ymm4, %ymm0
	vmulps	%ymm3, %ymm0, %ymm0
	vaddps	%ymm0, %ymm4, %ymm0
	vmulps	%ymm3, %ymm0, %ymm0
	vaddps	%ymm0, %ymm4, %ymm0
	vmulps	%ymm3, %ymm0, %ymm0
	vaddps	%ymm1, %ymm4, %ymm1
	vmulps	%ymm3, %ymm1, %ymm1
	vaddps	%ymm1, %ymm4, %ymm1
	vmulps	%ymm3, %ymm1, %ymm1
	vaddps	%ymm1, %ymm4, %ymm1
	vmulps	%ymm3, %ymm1, %ymm1
	vaddps	%ymm1, %ymm4, %ymm1
	vaddps	%ymm0, %ymm4, %ymm0
	vmulps	%ymm3, %ymm0, %ymm0
	vaddps	%ymm0, %ymm4, %ymm0
	vmulps	%ymm3, %ymm0, %ymm0
	vaddps	%ymm0, %ymm4, %ymm0
	vmulps	%ymm3, %ymm0, %ymm0
	vaddps	%ymm0, %ymm4, %ymm0
	vmulps	%ymm3, %ymm1, %ymm1
	vaddps	%ymm1, %ymm4, %ymm1
	vmulps	%ymm3, %ymm1, %ymm1
	vaddps	%ymm1, %ymm4, %ymm1
	vmulps	%ymm3, %ymm1, %ymm1
	vaddps	%ymm1, %ymm4, %ymm1
	vmulps	%ymm3, %ymm1, %ymm1
	vmulps	%ymm3, %ymm0, %ymm0
	vaddps	%ymm0, %ymm4, %ymm0
	vmulps	%ymm3, %ymm0, %ymm0
	vaddps	%ymm0, %ymm4, %ymm0
	vmulps	%ymm3, %ymm0, %ymm0
	vaddps	%ymm0, %ymm4, %ymm0
	vmulps	%ymm3, %ymm0, %ymm0
	vaddps	%ymm1, %ymm4, %ymm1
	vmulps	%ymm3, %ymm1, %ymm1
	vaddps	%ymm1, %ymm4, %ymm1
	vmulps	%ymm3, %ymm1, %ymm1
	vaddps	%ymm1, %ymm4, %ymm1
	vmulps	%ymm3, %ymm1, %ymm1
	vaddps	%ymm1, %ymm4, %ymm1
	vaddps	%ymm0, %ymm4, %ymm0
	vmulps	%ymm3, %ymm0, %ymm0
	vaddps	%ymm0, %ymm4, %ymm0
	vmulps	%ymm3, %ymm0, %ymm0
	vaddps	%ymm0, %ymm4, %ymm0
	vmulps	%ymm3, %ymm0, %ymm0
	vaddps	%ymm0, %ymm4, %ymm0
	vmulps	%ymm3, %ymm1, %ymm1
	vaddps	%ymm1, %ymm4, %ymm1
	vmulps	%ymm3, %ymm1, %ymm1
	vaddps	%ymm1, %ymm4, %ymm1
	vmulps	%ymm3, %ymm1, %ymm1
	vaddps	%ymm1, %ymm4, %ymm1
	vmulps	%ymm3, %ymm1, %ymm1
	vmulps	%ymm3, %ymm0, %ymm0
	vaddps	%ymm0, %ymm4, %ymm0
	vmulps	%ymm3, %ymm0, %ymm0
	vaddps	%ymm0, %ymm4, %ymm0
	vmulps	%ymm3, %ymm0, %ymm0
	vaddps	%ymm0, %ymm4, %ymm0
	vmulps	%ymm3, %ymm0, %ymm0
	vaddps	%ymm1, %ymm4, %ymm1
	vmulps	%ymm3, %ymm1, %ymm1
	vaddps	%ymm1, %ymm4, %ymm1
	vmulps	%ymm3, %ymm1, %ymm1
	vaddps	%ymm1, %ymm4, %ymm1
	vmulps	%ymm3, %ymm1, %ymm1
	vaddps	%ymm1, %ymm4, %ymm11
	vaddps	%ymm0, %ymm4, %ymm0
	vmulps	%ymm3, %ymm0, %ymm0
	vaddps	%ymm0, %ymm4, %ymm0
	vmulps	%ymm3, %ymm0, %ymm0
	vaddps	%ymm0, %ymm4, %ymm0
	vmulps	%ymm3, %ymm0, %ymm0
	vaddps	%ymm0, %ymm4, %ymm10
	jne	.LBB0_4
.LBB0_5:                                # %._crit_edgevector_func.i
                                        #   in Loop: Header=BB0_3 Depth=2
	vmovsldup	%ymm11, %ymm0
	vblendps	$170, %ymm0, %ymm10, %ymm0
	vmovshdup	%ymm10, %ymm1
	movlps	%xmm0, (%rsi,%r15,4)
	vblendps	$170, %ymm11, %ymm1, %ymm1
	vmovhlps	%xmm10, %xmm10, %xmm2 # xmm2 = xmm10[1,1]
	vpermilps	$3, %xmm10, %xmm0 # xmm0 = xmm10[3,0,0,0]
	vmovhlps	%xmm11, %xmm11, %xmm5 # xmm5 = xmm11[1,1]
	movlps	%xmm1, (%rsi,%r14,4)
	vinsertps	$16, %xmm5, %xmm2, %xmm2 # xmm2 = xmm2[0],xmm5[0],xmm2[2,3]
	vpermilps	$3, %xmm11, %xmm1 # xmm1 = xmm11[3,0,0,0]
	vextractf128	$1, %ymm10, %xmm6
	movlps	%xmm2, (%rsi,%r10,4)
	vmovdqa	192(%rsp), %ymm12       # 32-byte Reload
	vpaddq	%xmm12, %xmm9, %xmm2
	vinsertps	$16, %xmm1, %xmm0, %xmm1 # xmm1 = xmm0[0],xmm1[0],xmm0[2,3]
	vextractf128	$1, %ymm11, %xmm5
	vextractf128	$1, %ymm12, %xmm0
	movlps	%xmm1, (%rsi,%r11,4)
	vpermilps	$3, %xmm6, %xmm10 # xmm10 = xmm6[3,0,0,0]
	vmovdqa	224(%rsp), %xmm1        # 16-byte Reload
	vpaddq	%xmm0, %xmm1, %xmm0
	vinsertps	$16, %xmm5, %xmm6, %xmm1 # xmm1 = xmm6[0],xmm5[0],xmm6[2,3]
	vpaddq	%xmm12, %xmm8, %xmm8
	vmovhlps	%xmm6, %xmm6, %xmm11 # xmm11 = xmm6[1,1]
	vpermilps	$1, %xmm6, %xmm6 # xmm6 = xmm6[1,0,0,0]
	movlps	%xmm1, (%rsi,%r9,4)
	vpermilps	$1, %xmm5, %xmm1 # xmm1 = xmm5[1,0,0,0]
	vinsertf128	$1, %xmm0, %ymm2, %ymm9
	vmovhlps	%xmm5, %xmm5, %xmm7 # xmm7 = xmm5[1,1]
	vpermilps	$3, %xmm5, %xmm2 # xmm2 = xmm5[3,0,0,0]
	vextractf128	$1, %ymm12, %xmm0
	vmovdqa	240(%rsp), %xmm5        # 16-byte Reload
	vpaddq	%xmm0, %xmm5, %xmm0
	vinsertps	$16, %xmm2, %xmm10, %xmm2 # xmm2 = xmm10[0],xmm2[0],xmm10[2,3]
	vinsertps	$16, %xmm7, %xmm11, %xmm5 # xmm5 = xmm11[0],xmm7[0],xmm11[2,3]
	vinsertps	$16, %xmm1, %xmm6, %xmm1 # xmm1 = xmm6[0],xmm1[0],xmm6[2,3]
	incq	%rbx
	cmpq	%r13, %rbx
	movlps	%xmm1, (%rsi,%rcx,4)
	movlps	%xmm5, (%rsi,%rdi,4)
	movlps	%xmm2, (%rsi,%r8,4)
	vinsertf128	$1, %xmm0, %ymm8, %ymm8
	jne	.LBB0_3
# BB#6:                                 # %dim_0_vector_exit.i
                                        #   in Loop: Header=BB0_2 Depth=1
	movq	160(%rsp), %rcx         # 8-byte Reload
	incq	%rcx
	movq	168(%rsp), %rax         # 8-byte Reload
	incq	%rax
	cmpq	176(%rsp), %rax         # 8-byte Folded Reload
	jne	.LBB0_2
.LBB0_7:                                # %scalarIf.i
	movq	24(%rsp), %r14          # 8-byte Reload
	movq	%r14, %rax
	andq	$-8, %rax
	cmpq	%rax, %r14
	movq	120(%rsp), %r10         # 8-byte Reload
	movq	112(%rsp), %r11         # 8-byte Reload
	je	.LBB0_14
# BB#8:                                 # %dim_1_pre_head.i
	subq	%rax, %r14
	addq	%rax, %r10
	vmovaps	32(%rsp), %ymm0         # 32-byte Reload
                                        # kill: XMM0<def> XMM0<kill> XMM0<def> YMM0<kill>
	vpermilps	$0, %xmm0, %xmm0 # xmm0 = xmm0[0,0,0,0]
	vmovaps	64(%rsp), %ymm1         # 32-byte Reload
                                        # kill: XMM1<def> XMM1<kill> XMM1<def> YMM1<kill>
	vpermilps	$0, %xmm1, %xmm1 # xmm1 = xmm1[0,0,0,0]
	xorl	%r8d, %r8d
	.align	16, 0x90
.LBB0_9:                                # %dim_0_pre_head.i
                                        # =>This Loop Header: Depth=1
                                        #     Child Loop BB0_10 Depth 2
                                        #       Child Loop BB0_11 Depth 3
	movl	%r11d, %r9d
	imull	188(%rsp), %r9d         # 4-byte Folded Reload
	xorl	%edi, %edi
	movq	%r10, %rbx
	.align	16, 0x90
.LBB0_10:                               # %scalar_kernel_entry.i
                                        #   Parent Loop BB0_9 Depth=1
                                        # =>  This Loop Header: Depth=2
                                        #       Child Loop BB0_11 Depth 3
	leaq	(%rbx,%rbx), %rax
	addl	%r9d, %eax
	movslq	%eax, %rax
	vmovq	(%rdx,%rax,4), %xmm2
	testl	%r12d, %r12d
	movl	%r12d, %ecx
	jle	.LBB0_12
	.align	16, 0x90
.LBB0_11:                               # %.lr.ph.i
                                        #   Parent Loop BB0_9 Depth=1
                                        #     Parent Loop BB0_10 Depth=2
                                        # =>    This Inner Loop Header: Depth=3
	vmulps	%xmm0, %xmm2, %xmm2
	vaddps	%xmm2, %xmm1, %xmm2
	vmulps	%xmm0, %xmm2, %xmm2
	vaddps	%xmm2, %xmm1, %xmm2
	vmulps	%xmm0, %xmm2, %xmm2
	vaddps	%xmm2, %xmm1, %xmm2
	vmulps	%xmm0, %xmm2, %xmm2
	decl	%ecx
	vaddps	%xmm2, %xmm1, %xmm2
	vmulps	%xmm0, %xmm2, %xmm2
	vaddps	%xmm2, %xmm1, %xmm2
	vmulps	%xmm0, %xmm2, %xmm2
	vaddps	%xmm2, %xmm1, %xmm2
	vmulps	%xmm0, %xmm2, %xmm2
	vaddps	%xmm2, %xmm1, %xmm2
	vmulps	%xmm0, %xmm2, %xmm2
	vaddps	%xmm2, %xmm1, %xmm2
	vmulps	%xmm0, %xmm2, %xmm2
	vaddps	%xmm2, %xmm1, %xmm2
	vmulps	%xmm0, %xmm2, %xmm2
	vaddps	%xmm2, %xmm1, %xmm2
	vmulps	%xmm0, %xmm2, %xmm2
	vaddps	%xmm2, %xmm1, %xmm2
	vmulps	%xmm0, %xmm2, %xmm2
	vaddps	%xmm2, %xmm1, %xmm2
	vmulps	%xmm0, %xmm2, %xmm2
	vaddps	%xmm2, %xmm1, %xmm2
	vmulps	%xmm0, %xmm2, %xmm2
	vaddps	%xmm2, %xmm1, %xmm2
	vmulps	%xmm0, %xmm2, %xmm2
	vaddps	%xmm2, %xmm1, %xmm2
	vmulps	%xmm0, %xmm2, %xmm2
	vaddps	%xmm2, %xmm1, %xmm2
	vmulps	%xmm0, %xmm2, %xmm2
	vaddps	%xmm2, %xmm1, %xmm2
	vmulps	%xmm0, %xmm2, %xmm2
	vaddps	%xmm2, %xmm1, %xmm2
	vmulps	%xmm0, %xmm2, %xmm2
	vaddps	%xmm2, %xmm1, %xmm2
	vmulps	%xmm0, %xmm2, %xmm2
	vaddps	%xmm2, %xmm1, %xmm2
	vmulps	%xmm0, %xmm2, %xmm2
	vaddps	%xmm2, %xmm1, %xmm2
	vmulps	%xmm0, %xmm2, %xmm2
	vaddps	%xmm2, %xmm1, %xmm2
	vmulps	%xmm0, %xmm2, %xmm2
	vaddps	%xmm2, %xmm1, %xmm2
	vmulps	%xmm0, %xmm2, %xmm2
	vaddps	%xmm2, %xmm1, %xmm2
	vmulps	%xmm0, %xmm2, %xmm2
	vaddps	%xmm2, %xmm1, %xmm2
	vmulps	%xmm0, %xmm2, %xmm2
	vaddps	%xmm2, %xmm1, %xmm2
	vmulps	%xmm0, %xmm2, %xmm2
	vaddps	%xmm2, %xmm1, %xmm2
	vmulps	%xmm0, %xmm2, %xmm2
	vaddps	%xmm2, %xmm1, %xmm2
	vmulps	%xmm0, %xmm2, %xmm2
	vaddps	%xmm2, %xmm1, %xmm2
	vmulps	%xmm0, %xmm2, %xmm2
	vaddps	%xmm2, %xmm1, %xmm2
	vmulps	%xmm0, %xmm2, %xmm2
	vaddps	%xmm2, %xmm1, %xmm2
	vmulps	%xmm0, %xmm2, %xmm2
	vaddps	%xmm2, %xmm1, %xmm2
	vmulps	%xmm0, %xmm2, %xmm2
	vaddps	%xmm2, %xmm1, %xmm2
	vmulps	%xmm0, %xmm2, %xmm2
	vaddps	%xmm2, %xmm1, %xmm2
	vmulps	%xmm0, %xmm2, %xmm2
	vaddps	%xmm2, %xmm1, %xmm2
	vmulps	%xmm0, %xmm2, %xmm2
	vaddps	%xmm2, %xmm1, %xmm2
	vmulps	%xmm0, %xmm2, %xmm2
	vaddps	%xmm2, %xmm1, %xmm2
	vmulps	%xmm0, %xmm2, %xmm2
	vaddps	%xmm2, %xmm1, %xmm2
	vmulps	%xmm0, %xmm2, %xmm2
	vaddps	%xmm2, %xmm1, %xmm2
	vmulps	%xmm0, %xmm2, %xmm2
	vaddps	%xmm2, %xmm1, %xmm2
	vmulps	%xmm0, %xmm2, %xmm2
	vaddps	%xmm2, %xmm1, %xmm2
	vmulps	%xmm0, %xmm2, %xmm2
	vaddps	%xmm2, %xmm1, %xmm2
	vmulps	%xmm0, %xmm2, %xmm2
	vaddps	%xmm2, %xmm1, %xmm2
	vmulps	%xmm0, %xmm2, %xmm2
	vaddps	%xmm2, %xmm1, %xmm2
	vmulps	%xmm0, %xmm2, %xmm2
	vaddps	%xmm2, %xmm1, %xmm2
	vmulps	%xmm0, %xmm2, %xmm2
	vaddps	%xmm2, %xmm1, %xmm2
	vmulps	%xmm0, %xmm2, %xmm2
	vaddps	%xmm2, %xmm1, %xmm2
	vmulps	%xmm0, %xmm2, %xmm2
	vaddps	%xmm2, %xmm1, %xmm2
	vmulps	%xmm0, %xmm2, %xmm2
	vaddps	%xmm2, %xmm1, %xmm2
	vmulps	%xmm0, %xmm2, %xmm2
	vaddps	%xmm2, %xmm1, %xmm2
	vmulps	%xmm0, %xmm2, %xmm2
	vaddps	%xmm2, %xmm1, %xmm2
	vmulps	%xmm0, %xmm2, %xmm2
	vaddps	%xmm2, %xmm1, %xmm2
	vmulps	%xmm0, %xmm2, %xmm2
	vaddps	%xmm2, %xmm1, %xmm2
	vmulps	%xmm0, %xmm2, %xmm2
	vaddps	%xmm2, %xmm1, %xmm2
	vmulps	%xmm0, %xmm2, %xmm2
	vaddps	%xmm2, %xmm1, %xmm2
	vmulps	%xmm0, %xmm2, %xmm2
	vaddps	%xmm2, %xmm1, %xmm2
	vmulps	%xmm0, %xmm2, %xmm2
	vaddps	%xmm2, %xmm1, %xmm2
	vmulps	%xmm0, %xmm2, %xmm2
	vaddps	%xmm2, %xmm1, %xmm2
	vmulps	%xmm0, %xmm2, %xmm2
	vaddps	%xmm2, %xmm1, %xmm2
	vmulps	%xmm0, %xmm2, %xmm2
	vaddps	%xmm2, %xmm1, %xmm2
	vmulps	%xmm0, %xmm2, %xmm2
	vaddps	%xmm2, %xmm1, %xmm2
	vmulps	%xmm0, %xmm2, %xmm2
	vaddps	%xmm2, %xmm1, %xmm2
	vmulps	%xmm0, %xmm2, %xmm2
	vaddps	%xmm2, %xmm1, %xmm2
	vmulps	%xmm0, %xmm2, %xmm2
	vaddps	%xmm2, %xmm1, %xmm2
	vmulps	%xmm0, %xmm2, %xmm2
	vaddps	%xmm2, %xmm1, %xmm2
	vmulps	%xmm0, %xmm2, %xmm2
	vaddps	%xmm2, %xmm1, %xmm2
	vmulps	%xmm0, %xmm2, %xmm2
	vaddps	%xmm2, %xmm1, %xmm2
	vmulps	%xmm0, %xmm2, %xmm2
	vaddps	%xmm2, %xmm1, %xmm2
	vmulps	%xmm0, %xmm2, %xmm2
	vaddps	%xmm2, %xmm1, %xmm2
	vmulps	%xmm0, %xmm2, %xmm2
	vaddps	%xmm2, %xmm1, %xmm2
	vmulps	%xmm0, %xmm2, %xmm2
	vaddps	%xmm2, %xmm1, %xmm2
	vmulps	%xmm0, %xmm2, %xmm2
	vaddps	%xmm2, %xmm1, %xmm2
	vmulps	%xmm0, %xmm2, %xmm2
	vaddps	%xmm2, %xmm1, %xmm2
	vmulps	%xmm0, %xmm2, %xmm2
	vaddps	%xmm2, %xmm1, %xmm2
	vmulps	%xmm0, %xmm2, %xmm2
	vaddps	%xmm2, %xmm1, %xmm2
	vmulps	%xmm0, %xmm2, %xmm2
	vaddps	%xmm2, %xmm1, %xmm2
	vmulps	%xmm0, %xmm2, %xmm2
	vaddps	%xmm2, %xmm1, %xmm2
	vmulps	%xmm0, %xmm2, %xmm2
	vaddps	%xmm2, %xmm1, %xmm2
	vmulps	%xmm0, %xmm2, %xmm2
	vaddps	%xmm2, %xmm1, %xmm2
	vmulps	%xmm0, %xmm2, %xmm2
	vaddps	%xmm2, %xmm1, %xmm2
	vmulps	%xmm0, %xmm2, %xmm2
	vaddps	%xmm2, %xmm1, %xmm2
	vmulps	%xmm0, %xmm2, %xmm2
	vaddps	%xmm2, %xmm1, %xmm2
	vmulps	%xmm0, %xmm2, %xmm2
	vaddps	%xmm2, %xmm1, %xmm2
	vmulps	%xmm0, %xmm2, %xmm2
	vaddps	%xmm2, %xmm1, %xmm2
	vmulps	%xmm0, %xmm2, %xmm2
	vaddps	%xmm2, %xmm1, %xmm2
	vmulps	%xmm0, %xmm2, %xmm2
	vaddps	%xmm2, %xmm1, %xmm2
	vmulps	%xmm0, %xmm2, %xmm2
	vaddps	%xmm2, %xmm1, %xmm2
	vmulps	%xmm0, %xmm2, %xmm2
	vaddps	%xmm2, %xmm1, %xmm2
	vmulps	%xmm0, %xmm2, %xmm2
	vaddps	%xmm2, %xmm1, %xmm2
	vmulps	%xmm0, %xmm2, %xmm2
	vaddps	%xmm2, %xmm1, %xmm2
	vmulps	%xmm0, %xmm2, %xmm2
	vaddps	%xmm2, %xmm1, %xmm2
	vmulps	%xmm0, %xmm2, %xmm2
	vaddps	%xmm2, %xmm1, %xmm2
	vmulps	%xmm0, %xmm2, %xmm2
	vaddps	%xmm2, %xmm1, %xmm2
	vmulps	%xmm0, %xmm2, %xmm2
	vaddps	%xmm2, %xmm1, %xmm2
	vmulps	%xmm0, %xmm2, %xmm2
	vaddps	%xmm2, %xmm1, %xmm2
	vmulps	%xmm0, %xmm2, %xmm2
	vaddps	%xmm2, %xmm1, %xmm2
	vmulps	%xmm0, %xmm2, %xmm2
	vaddps	%xmm2, %xmm1, %xmm2
	vmulps	%xmm0, %xmm2, %xmm2
	vaddps	%xmm2, %xmm1, %xmm2
	vmulps	%xmm0, %xmm2, %xmm2
	vaddps	%xmm2, %xmm1, %xmm2
	vmulps	%xmm0, %xmm2, %xmm2
	vaddps	%xmm2, %xmm1, %xmm2
	vmulps	%xmm0, %xmm2, %xmm2
	vaddps	%xmm2, %xmm1, %xmm2
	vmulps	%xmm0, %xmm2, %xmm2
	vaddps	%xmm2, %xmm1, %xmm2
	vmulps	%xmm0, %xmm2, %xmm2
	vaddps	%xmm2, %xmm1, %xmm2
	vmulps	%xmm0, %xmm2, %xmm2
	vaddps	%xmm2, %xmm1, %xmm2
	vmulps	%xmm0, %xmm2, %xmm2
	vaddps	%xmm2, %xmm1, %xmm2
	vmulps	%xmm0, %xmm2, %xmm2
	vaddps	%xmm2, %xmm1, %xmm2
	vmulps	%xmm0, %xmm2, %xmm2
	vaddps	%xmm2, %xmm1, %xmm2
	vmulps	%xmm0, %xmm2, %xmm2
	vaddps	%xmm2, %xmm1, %xmm2
	vmulps	%xmm0, %xmm2, %xmm2
	vaddps	%xmm2, %xmm1, %xmm2
	vmulps	%xmm0, %xmm2, %xmm2
	vaddps	%xmm2, %xmm1, %xmm2
	vmulps	%xmm0, %xmm2, %xmm2
	vaddps	%xmm2, %xmm1, %xmm2
	vmulps	%xmm0, %xmm2, %xmm2
	vaddps	%xmm2, %xmm1, %xmm2
	vmulps	%xmm0, %xmm2, %xmm2
	vaddps	%xmm2, %xmm1, %xmm2
	vmulps	%xmm0, %xmm2, %xmm2
	vaddps	%xmm2, %xmm1, %xmm2
	vmulps	%xmm0, %xmm2, %xmm2
	vaddps	%xmm2, %xmm1, %xmm2
	vmulps	%xmm0, %xmm2, %xmm2
	vaddps	%xmm2, %xmm1, %xmm2
	vmulps	%xmm0, %xmm2, %xmm2
	vaddps	%xmm2, %xmm1, %xmm2
	vmulps	%xmm0, %xmm2, %xmm2
	vaddps	%xmm2, %xmm1, %xmm2
	vmulps	%xmm0, %xmm2, %xmm2
	vaddps	%xmm2, %xmm1, %xmm2
	vmulps	%xmm0, %xmm2, %xmm2
	vaddps	%xmm2, %xmm1, %xmm2
	vmulps	%xmm0, %xmm2, %xmm2
	vaddps	%xmm2, %xmm1, %xmm2
	vmulps	%xmm0, %xmm2, %xmm2
	vaddps	%xmm2, %xmm1, %xmm2
	vmulps	%xmm0, %xmm2, %xmm2
	vaddps	%xmm2, %xmm1, %xmm2
	vmulps	%xmm0, %xmm2, %xmm2
	vaddps	%xmm2, %xmm1, %xmm2
	vmulps	%xmm0, %xmm2, %xmm2
	vaddps	%xmm2, %xmm1, %xmm2
	vmulps	%xmm0, %xmm2, %xmm2
	vaddps	%xmm2, %xmm1, %xmm2
	vmulps	%xmm0, %xmm2, %xmm2
	vaddps	%xmm2, %xmm1, %xmm2
	vmulps	%xmm0, %xmm2, %xmm2
	vaddps	%xmm2, %xmm1, %xmm2
	vmulps	%xmm0, %xmm2, %xmm2
	vaddps	%xmm2, %xmm1, %xmm2
	vmulps	%xmm0, %xmm2, %xmm2
	vaddps	%xmm2, %xmm1, %xmm2
	vmulps	%xmm0, %xmm2, %xmm2
	vaddps	%xmm2, %xmm1, %xmm2
	vmulps	%xmm0, %xmm2, %xmm2
	vaddps	%xmm2, %xmm1, %xmm2
	vmulps	%xmm0, %xmm2, %xmm2
	vaddps	%xmm2, %xmm1, %xmm2
	vmulps	%xmm0, %xmm2, %xmm2
	vaddps	%xmm2, %xmm1, %xmm2
	vmulps	%xmm0, %xmm2, %xmm2
	vaddps	%xmm2, %xmm1, %xmm2
	vmulps	%xmm0, %xmm2, %xmm2
	vaddps	%xmm2, %xmm1, %xmm2
	vmulps	%xmm0, %xmm2, %xmm2
	vaddps	%xmm2, %xmm1, %xmm2
	vmulps	%xmm0, %xmm2, %xmm2
	vaddps	%xmm2, %xmm1, %xmm2
	vmulps	%xmm0, %xmm2, %xmm2
	vaddps	%xmm2, %xmm1, %xmm2
	vmulps	%xmm0, %xmm2, %xmm2
	vaddps	%xmm2, %xmm1, %xmm2
	vmulps	%xmm0, %xmm2, %xmm2
	vaddps	%xmm2, %xmm1, %xmm2
	vmulps	%xmm0, %xmm2, %xmm2
	vaddps	%xmm2, %xmm1, %xmm2
	vmulps	%xmm0, %xmm2, %xmm2
	vaddps	%xmm2, %xmm1, %xmm2
	vmulps	%xmm0, %xmm2, %xmm2
	vaddps	%xmm2, %xmm1, %xmm2
	vmulps	%xmm0, %xmm2, %xmm2
	vaddps	%xmm2, %xmm1, %xmm2
	vmulps	%xmm0, %xmm2, %xmm2
	vaddps	%xmm2, %xmm1, %xmm2
	vmulps	%xmm0, %xmm2, %xmm2
	vaddps	%xmm2, %xmm1, %xmm2
	vmulps	%xmm0, %xmm2, %xmm2
	vaddps	%xmm2, %xmm1, %xmm2
	vmulps	%xmm0, %xmm2, %xmm2
	vaddps	%xmm2, %xmm1, %xmm2
	vmulps	%xmm0, %xmm2, %xmm2
	vaddps	%xmm2, %xmm1, %xmm2
	vmulps	%xmm0, %xmm2, %xmm2
	vaddps	%xmm2, %xmm1, %xmm2
	vmulps	%xmm0, %xmm2, %xmm2
	vaddps	%xmm2, %xmm1, %xmm2
	vmulps	%xmm0, %xmm2, %xmm2
	vaddps	%xmm2, %xmm1, %xmm2
	vmulps	%xmm0, %xmm2, %xmm2
	vaddps	%xmm2, %xmm1, %xmm2
	vmulps	%xmm0, %xmm2, %xmm2
	vaddps	%xmm2, %xmm1, %xmm2
	vmulps	%xmm0, %xmm2, %xmm2
	vaddps	%xmm2, %xmm1, %xmm2
	vmulps	%xmm0, %xmm2, %xmm2
	vaddps	%xmm2, %xmm1, %xmm2
	vmulps	%xmm0, %xmm2, %xmm2
	vaddps	%xmm2, %xmm1, %xmm2
	vmulps	%xmm0, %xmm2, %xmm2
	vaddps	%xmm2, %xmm1, %xmm2
	vmulps	%xmm0, %xmm2, %xmm2
	vaddps	%xmm2, %xmm1, %xmm2
	vmulps	%xmm0, %xmm2, %xmm2
	vaddps	%xmm2, %xmm1, %xmm2
	vmulps	%xmm0, %xmm2, %xmm2
	vaddps	%xmm2, %xmm1, %xmm2
	vmulps	%xmm0, %xmm2, %xmm2
	vaddps	%xmm2, %xmm1, %xmm2
	vmulps	%xmm0, %xmm2, %xmm2
	vaddps	%xmm2, %xmm1, %xmm2
	vmulps	%xmm0, %xmm2, %xmm2
	vaddps	%xmm2, %xmm1, %xmm2
	vmulps	%xmm0, %xmm2, %xmm2
	vaddps	%xmm2, %xmm1, %xmm2
	vmulps	%xmm0, %xmm2, %xmm2
	vaddps	%xmm2, %xmm1, %xmm2
	vmulps	%xmm0, %xmm2, %xmm2
	vaddps	%xmm2, %xmm1, %xmm2
	vmulps	%xmm0, %xmm2, %xmm2
	vaddps	%xmm2, %xmm1, %xmm2
	vmulps	%xmm0, %xmm2, %xmm2
	vaddps	%xmm2, %xmm1, %xmm2
	vmulps	%xmm0, %xmm2, %xmm2
	vaddps	%xmm2, %xmm1, %xmm2
	vmulps	%xmm0, %xmm2, %xmm2
	vaddps	%xmm2, %xmm1, %xmm2
	vmulps	%xmm0, %xmm2, %xmm2
	vaddps	%xmm2, %xmm1, %xmm2
	vmulps	%xmm0, %xmm2, %xmm2
	vaddps	%xmm2, %xmm1, %xmm2
	vmulps	%xmm0, %xmm2, %xmm2
	vaddps	%xmm2, %xmm1, %xmm2
	vmulps	%xmm0, %xmm2, %xmm2
	vaddps	%xmm2, %xmm1, %xmm2
	vmulps	%xmm0, %xmm2, %xmm2
	vaddps	%xmm2, %xmm1, %xmm2
	vmulps	%xmm0, %xmm2, %xmm2
	vaddps	%xmm2, %xmm1, %xmm2
	vmulps	%xmm0, %xmm2, %xmm2
	vaddps	%xmm2, %xmm1, %xmm2
	vmulps	%xmm0, %xmm2, %xmm2
	vaddps	%xmm2, %xmm1, %xmm2
	vmulps	%xmm0, %xmm2, %xmm2
	vaddps	%xmm2, %xmm1, %xmm2
	vmulps	%xmm0, %xmm2, %xmm2
	vaddps	%xmm2, %xmm1, %xmm2
	vmulps	%xmm0, %xmm2, %xmm2
	vaddps	%xmm2, %xmm1, %xmm2
	vmulps	%xmm0, %xmm2, %xmm2
	vaddps	%xmm2, %xmm1, %xmm2
	vmulps	%xmm0, %xmm2, %xmm2
	vaddps	%xmm2, %xmm1, %xmm2
	vmulps	%xmm0, %xmm2, %xmm2
	vaddps	%xmm2, %xmm1, %xmm2
	vmulps	%xmm0, %xmm2, %xmm2
	vaddps	%xmm2, %xmm1, %xmm2
	vmulps	%xmm0, %xmm2, %xmm2
	vaddps	%xmm2, %xmm1, %xmm2
	vmulps	%xmm0, %xmm2, %xmm2
	vaddps	%xmm2, %xmm1, %xmm2
	vmulps	%xmm0, %xmm2, %xmm2
	vaddps	%xmm2, %xmm1, %xmm2
	vmulps	%xmm0, %xmm2, %xmm2
	vaddps	%xmm2, %xmm1, %xmm2
	vmulps	%xmm0, %xmm2, %xmm2
	vaddps	%xmm2, %xmm1, %xmm2
	vmulps	%xmm0, %xmm2, %xmm2
	vaddps	%xmm2, %xmm1, %xmm2
	vmulps	%xmm0, %xmm2, %xmm2
	vaddps	%xmm2, %xmm1, %xmm2
	vmulps	%xmm0, %xmm2, %xmm2
	vaddps	%xmm2, %xmm1, %xmm2
	vmulps	%xmm0, %xmm2, %xmm2
	vaddps	%xmm2, %xmm1, %xmm2
	vmulps	%xmm0, %xmm2, %xmm2
	vaddps	%xmm2, %xmm1, %xmm2
	vmulps	%xmm0, %xmm2, %xmm2
	vaddps	%xmm2, %xmm1, %xmm2
	vmulps	%xmm0, %xmm2, %xmm2
	vaddps	%xmm2, %xmm1, %xmm2
	vmulps	%xmm0, %xmm2, %xmm2
	vaddps	%xmm2, %xmm1, %xmm2
	vmulps	%xmm0, %xmm2, %xmm2
	vaddps	%xmm2, %xmm1, %xmm2
	vmulps	%xmm0, %xmm2, %xmm2
	vaddps	%xmm2, %xmm1, %xmm2
	vmulps	%xmm0, %xmm2, %xmm2
	vaddps	%xmm2, %xmm1, %xmm2
	vmulps	%xmm0, %xmm2, %xmm2
	vaddps	%xmm2, %xmm1, %xmm2
	vmulps	%xmm0, %xmm2, %xmm2
	vaddps	%xmm2, %xmm1, %xmm2
	vmulps	%xmm0, %xmm2, %xmm2
	vaddps	%xmm2, %xmm1, %xmm2
	vmulps	%xmm0, %xmm2, %xmm2
	vaddps	%xmm2, %xmm1, %xmm2
	vmulps	%xmm0, %xmm2, %xmm2
	vaddps	%xmm2, %xmm1, %xmm2
	vmulps	%xmm0, %xmm2, %xmm2
	vaddps	%xmm2, %xmm1, %xmm2
	vmulps	%xmm0, %xmm2, %xmm2
	vaddps	%xmm2, %xmm1, %xmm2
	vmulps	%xmm0, %xmm2, %xmm2
	vaddps	%xmm2, %xmm1, %xmm2
	vmulps	%xmm0, %xmm2, %xmm2
	vaddps	%xmm2, %xmm1, %xmm2
	vmulps	%xmm0, %xmm2, %xmm2
	vaddps	%xmm2, %xmm1, %xmm2
	vmulps	%xmm0, %xmm2, %xmm2
	vaddps	%xmm2, %xmm1, %xmm2
	vmulps	%xmm0, %xmm2, %xmm2
	vaddps	%xmm2, %xmm1, %xmm2
	vmulps	%xmm0, %xmm2, %xmm2
	vaddps	%xmm2, %xmm1, %xmm2
	vmulps	%xmm0, %xmm2, %xmm2
	vaddps	%xmm2, %xmm1, %xmm2
	vmulps	%xmm0, %xmm2, %xmm2
	vaddps	%xmm2, %xmm1, %xmm2
	vmulps	%xmm0, %xmm2, %xmm2
	vaddps	%xmm2, %xmm1, %xmm2
	vmulps	%xmm0, %xmm2, %xmm2
	vaddps	%xmm2, %xmm1, %xmm2
	vmulps	%xmm0, %xmm2, %xmm2
	vaddps	%xmm2, %xmm1, %xmm2
	vmulps	%xmm0, %xmm2, %xmm2
	vaddps	%xmm2, %xmm1, %xmm2
	vmulps	%xmm0, %xmm2, %xmm2
	vaddps	%xmm2, %xmm1, %xmm2
	vmulps	%xmm0, %xmm2, %xmm2
	vaddps	%xmm2, %xmm1, %xmm2
	vmulps	%xmm0, %xmm2, %xmm2
	vaddps	%xmm2, %xmm1, %xmm2
	vmulps	%xmm0, %xmm2, %xmm2
	vaddps	%xmm2, %xmm1, %xmm2
	vmulps	%xmm0, %xmm2, %xmm2
	vaddps	%xmm2, %xmm1, %xmm2
	vmulps	%xmm0, %xmm2, %xmm2
	vaddps	%xmm2, %xmm1, %xmm2
	vmulps	%xmm0, %xmm2, %xmm2
	vaddps	%xmm2, %xmm1, %xmm2
	vmulps	%xmm0, %xmm2, %xmm2
	vaddps	%xmm2, %xmm1, %xmm2
	vmulps	%xmm0, %xmm2, %xmm2
	vaddps	%xmm2, %xmm1, %xmm2
	vmulps	%xmm0, %xmm2, %xmm2
	vaddps	%xmm2, %xmm1, %xmm2
	vmulps	%xmm0, %xmm2, %xmm2
	vaddps	%xmm2, %xmm1, %xmm2
	vmulps	%xmm0, %xmm2, %xmm2
	vaddps	%xmm2, %xmm1, %xmm2
	vmulps	%xmm0, %xmm2, %xmm2
	vaddps	%xmm2, %xmm1, %xmm2
	vmulps	%xmm0, %xmm2, %xmm2
	vaddps	%xmm2, %xmm1, %xmm2
	vmulps	%xmm0, %xmm2, %xmm2
	vaddps	%xmm2, %xmm1, %xmm2
	vmulps	%xmm0, %xmm2, %xmm2
	vaddps	%xmm2, %xmm1, %xmm2
	vmulps	%xmm0, %xmm2, %xmm2
	vaddps	%xmm2, %xmm1, %xmm2
	vmulps	%xmm0, %xmm2, %xmm2
	vaddps	%xmm2, %xmm1, %xmm2
	vmulps	%xmm0, %xmm2, %xmm2
	vaddps	%xmm2, %xmm1, %xmm2
	vmulps	%xmm0, %xmm2, %xmm2
	vaddps	%xmm2, %xmm1, %xmm2
	vmulps	%xmm0, %xmm2, %xmm2
	vaddps	%xmm2, %xmm1, %xmm2
	vmulps	%xmm0, %xmm2, %xmm2
	vaddps	%xmm2, %xmm1, %xmm2
	vmulps	%xmm0, %xmm2, %xmm2
	vaddps	%xmm2, %xmm1, %xmm2
	vmulps	%xmm0, %xmm2, %xmm2
	vaddps	%xmm2, %xmm1, %xmm2
	vmulps	%xmm0, %xmm2, %xmm2
	vaddps	%xmm2, %xmm1, %xmm2
	vmulps	%xmm0, %xmm2, %xmm2
	vaddps	%xmm2, %xmm1, %xmm2
	vmulps	%xmm0, %xmm2, %xmm2
	vaddps	%xmm2, %xmm1, %xmm2
	vmulps	%xmm0, %xmm2, %xmm2
	vaddps	%xmm2, %xmm1, %xmm2
	vmulps	%xmm0, %xmm2, %xmm2
	vaddps	%xmm2, %xmm1, %xmm2
	vmulps	%xmm0, %xmm2, %xmm2
	vaddps	%xmm2, %xmm1, %xmm2
	vmulps	%xmm0, %xmm2, %xmm2
	vaddps	%xmm2, %xmm1, %xmm2
	vmulps	%xmm0, %xmm2, %xmm2
	vaddps	%xmm2, %xmm1, %xmm2
	vmulps	%xmm0, %xmm2, %xmm2
	vaddps	%xmm2, %xmm1, %xmm2
	vmulps	%xmm0, %xmm2, %xmm2
	vaddps	%xmm2, %xmm1, %xmm2
	vmulps	%xmm0, %xmm2, %xmm2
	vaddps	%xmm2, %xmm1, %xmm2
	vmulps	%xmm0, %xmm2, %xmm2
	vaddps	%xmm2, %xmm1, %xmm2
	vmulps	%xmm0, %xmm2, %xmm2
	vaddps	%xmm2, %xmm1, %xmm2
	vmulps	%xmm0, %xmm2, %xmm2
	vaddps	%xmm2, %xmm1, %xmm2
	vmulps	%xmm0, %xmm2, %xmm2
	vaddps	%xmm2, %xmm1, %xmm2
	vmulps	%xmm0, %xmm2, %xmm2
	vaddps	%xmm2, %xmm1, %xmm2
	vmulps	%xmm0, %xmm2, %xmm2
	vaddps	%xmm2, %xmm1, %xmm2
	vmulps	%xmm0, %xmm2, %xmm2
	vaddps	%xmm2, %xmm1, %xmm2
	vmulps	%xmm0, %xmm2, %xmm2
	vaddps	%xmm2, %xmm1, %xmm2
	vmulps	%xmm0, %xmm2, %xmm2
	vaddps	%xmm2, %xmm1, %xmm2
	vmulps	%xmm0, %xmm2, %xmm2
	vaddps	%xmm2, %xmm1, %xmm2
	vmulps	%xmm0, %xmm2, %xmm2
	vaddps	%xmm2, %xmm1, %xmm2
	vmulps	%xmm0, %xmm2, %xmm2
	vaddps	%xmm2, %xmm1, %xmm2
	vmulps	%xmm0, %xmm2, %xmm2
	vaddps	%xmm2, %xmm1, %xmm2
	vmulps	%xmm0, %xmm2, %xmm2
	vaddps	%xmm2, %xmm1, %xmm2
	vmulps	%xmm0, %xmm2, %xmm2
	vaddps	%xmm2, %xmm1, %xmm2
	vmulps	%xmm0, %xmm2, %xmm2
	vaddps	%xmm2, %xmm1, %xmm2
	vmulps	%xmm0, %xmm2, %xmm2
	vaddps	%xmm2, %xmm1, %xmm2
	vmulps	%xmm0, %xmm2, %xmm2
	vaddps	%xmm2, %xmm1, %xmm2
	vmulps	%xmm0, %xmm2, %xmm2
	vaddps	%xmm2, %xmm1, %xmm2
	vmulps	%xmm0, %xmm2, %xmm2
	vaddps	%xmm2, %xmm1, %xmm2
	vmulps	%xmm0, %xmm2, %xmm2
	vaddps	%xmm2, %xmm1, %xmm2
	vmulps	%xmm0, %xmm2, %xmm2
	vaddps	%xmm2, %xmm1, %xmm2
	vmulps	%xmm0, %xmm2, %xmm2
	vaddps	%xmm2, %xmm1, %xmm2
	vmulps	%xmm0, %xmm2, %xmm2
	vaddps	%xmm2, %xmm1, %xmm2
	vmulps	%xmm0, %xmm2, %xmm2
	vaddps	%xmm2, %xmm1, %xmm2
	vmulps	%xmm0, %xmm2, %xmm2
	vaddps	%xmm2, %xmm1, %xmm2
	vmulps	%xmm0, %xmm2, %xmm2
	vaddps	%xmm2, %xmm1, %xmm2
	vmulps	%xmm0, %xmm2, %xmm2
	vaddps	%xmm2, %xmm1, %xmm2
	vmulps	%xmm0, %xmm2, %xmm2
	vaddps	%xmm2, %xmm1, %xmm2
	vmulps	%xmm0, %xmm2, %xmm2
	vaddps	%xmm2, %xmm1, %xmm2
	vmulps	%xmm0, %xmm2, %xmm2
	vaddps	%xmm2, %xmm1, %xmm2
	vmulps	%xmm0, %xmm2, %xmm2
	vaddps	%xmm2, %xmm1, %xmm2
	vmulps	%xmm0, %xmm2, %xmm2
	vaddps	%xmm2, %xmm1, %xmm2
	vmulps	%xmm0, %xmm2, %xmm2
	vaddps	%xmm2, %xmm1, %xmm2
	vmulps	%xmm0, %xmm2, %xmm2
	vaddps	%xmm2, %xmm1, %xmm2
	vmulps	%xmm0, %xmm2, %xmm2
	vaddps	%xmm2, %xmm1, %xmm2
	vmulps	%xmm0, %xmm2, %xmm2
	vaddps	%xmm2, %xmm1, %xmm2
	vmulps	%xmm0, %xmm2, %xmm2
	vaddps	%xmm2, %xmm1, %xmm2
	vmulps	%xmm0, %xmm2, %xmm2
	vaddps	%xmm2, %xmm1, %xmm2
	vmulps	%xmm0, %xmm2, %xmm2
	vaddps	%xmm2, %xmm1, %xmm2
	vmulps	%xmm0, %xmm2, %xmm2
	vaddps	%xmm2, %xmm1, %xmm2
	vmulps	%xmm0, %xmm2, %xmm2
	vaddps	%xmm2, %xmm1, %xmm2
	vmulps	%xmm0, %xmm2, %xmm2
	vaddps	%xmm2, %xmm1, %xmm2
	vmulps	%xmm0, %xmm2, %xmm2
	vaddps	%xmm2, %xmm1, %xmm2
	vmulps	%xmm0, %xmm2, %xmm2
	vaddps	%xmm2, %xmm1, %xmm2
	vmulps	%xmm0, %xmm2, %xmm2
	vaddps	%xmm2, %xmm1, %xmm2
	vmulps	%xmm0, %xmm2, %xmm2
	vaddps	%xmm2, %xmm1, %xmm2
	vmulps	%xmm0, %xmm2, %xmm2
	vaddps	%xmm2, %xmm1, %xmm2
	vmulps	%xmm0, %xmm2, %xmm2
	vaddps	%xmm2, %xmm1, %xmm2
	vmulps	%xmm0, %xmm2, %xmm2
	vaddps	%xmm2, %xmm1, %xmm2
	vmulps	%xmm0, %xmm2, %xmm2
	vaddps	%xmm2, %xmm1, %xmm2
	vmulps	%xmm0, %xmm2, %xmm2
	vaddps	%xmm2, %xmm1, %xmm2
	vmulps	%xmm0, %xmm2, %xmm2
	vaddps	%xmm2, %xmm1, %xmm2
	vmulps	%xmm0, %xmm2, %xmm2
	vaddps	%xmm2, %xmm1, %xmm2
	vmulps	%xmm0, %xmm2, %xmm2
	vaddps	%xmm2, %xmm1, %xmm2
	vmulps	%xmm0, %xmm2, %xmm2
	vaddps	%xmm2, %xmm1, %xmm2
	vmulps	%xmm0, %xmm2, %xmm2
	vaddps	%xmm2, %xmm1, %xmm2
	vmulps	%xmm0, %xmm2, %xmm2
	vaddps	%xmm2, %xmm1, %xmm2
	vmulps	%xmm0, %xmm2, %xmm2
	vaddps	%xmm2, %xmm1, %xmm2
	vmulps	%xmm0, %xmm2, %xmm2
	vaddps	%xmm2, %xmm1, %xmm2
	vmulps	%xmm0, %xmm2, %xmm2
	vaddps	%xmm2, %xmm1, %xmm2
	vmulps	%xmm0, %xmm2, %xmm2
	vaddps	%xmm2, %xmm1, %xmm2
	vmulps	%xmm0, %xmm2, %xmm2
	vaddps	%xmm2, %xmm1, %xmm2
	vmulps	%xmm0, %xmm2, %xmm2
	vaddps	%xmm2, %xmm1, %xmm2
	vmulps	%xmm0, %xmm2, %xmm2
	vaddps	%xmm2, %xmm1, %xmm2
	vmulps	%xmm0, %xmm2, %xmm2
	vaddps	%xmm2, %xmm1, %xmm2
	vmulps	%xmm0, %xmm2, %xmm2
	vaddps	%xmm2, %xmm1, %xmm2
	vmulps	%xmm0, %xmm2, %xmm2
	vaddps	%xmm2, %xmm1, %xmm2
	vmulps	%xmm0, %xmm2, %xmm2
	vaddps	%xmm2, %xmm1, %xmm2
	vmulps	%xmm0, %xmm2, %xmm2
	vaddps	%xmm2, %xmm1, %xmm2
	vmulps	%xmm0, %xmm2, %xmm2
	vaddps	%xmm2, %xmm1, %xmm2
	vmulps	%xmm0, %xmm2, %xmm2
	vaddps	%xmm2, %xmm1, %xmm2
	vmulps	%xmm0, %xmm2, %xmm2
	vaddps	%xmm2, %xmm1, %xmm2
	vmulps	%xmm0, %xmm2, %xmm2
	vaddps	%xmm2, %xmm1, %xmm2
	vmulps	%xmm0, %xmm2, %xmm2
	vaddps	%xmm2, %xmm1, %xmm2
	vmulps	%xmm0, %xmm2, %xmm2
	vaddps	%xmm2, %xmm1, %xmm2
	vmulps	%xmm0, %xmm2, %xmm2
	vaddps	%xmm2, %xmm1, %xmm2
	vmulps	%xmm0, %xmm2, %xmm2
	vaddps	%xmm2, %xmm1, %xmm2
	vmulps	%xmm0, %xmm2, %xmm2
	vaddps	%xmm2, %xmm1, %xmm2
	vmulps	%xmm0, %xmm2, %xmm2
	vaddps	%xmm2, %xmm1, %xmm2
	vmulps	%xmm0, %xmm2, %xmm2
	vaddps	%xmm2, %xmm1, %xmm2
	vmulps	%xmm0, %xmm2, %xmm2
	vaddps	%xmm2, %xmm1, %xmm2
	vmulps	%xmm0, %xmm2, %xmm2
	vaddps	%xmm2, %xmm1, %xmm2
	vmulps	%xmm0, %xmm2, %xmm2
	vaddps	%xmm2, %xmm1, %xmm2
	vmulps	%xmm0, %xmm2, %xmm2
	vaddps	%xmm2, %xmm1, %xmm2
	vmulps	%xmm0, %xmm2, %xmm2
	vaddps	%xmm2, %xmm1, %xmm2
	vmulps	%xmm0, %xmm2, %xmm2
	vaddps	%xmm2, %xmm1, %xmm2
	vmulps	%xmm0, %xmm2, %xmm2
	vaddps	%xmm2, %xmm1, %xmm2
	vmulps	%xmm0, %xmm2, %xmm2
	vaddps	%xmm2, %xmm1, %xmm2
	vmulps	%xmm0, %xmm2, %xmm2
	vaddps	%xmm2, %xmm1, %xmm2
	vmulps	%xmm0, %xmm2, %xmm2
	vaddps	%xmm2, %xmm1, %xmm2
	vmulps	%xmm0, %xmm2, %xmm2
	vaddps	%xmm2, %xmm1, %xmm2
	vmulps	%xmm0, %xmm2, %xmm2
	vaddps	%xmm2, %xmm1, %xmm2
	vmulps	%xmm0, %xmm2, %xmm2
	vaddps	%xmm2, %xmm1, %xmm2
	vmulps	%xmm0, %xmm2, %xmm2
	vaddps	%xmm2, %xmm1, %xmm2
	vmulps	%xmm0, %xmm2, %xmm2
	vaddps	%xmm2, %xmm1, %xmm2
	vmulps	%xmm0, %xmm2, %xmm2
	vaddps	%xmm2, %xmm1, %xmm2
	vmulps	%xmm0, %xmm2, %xmm2
	vaddps	%xmm2, %xmm1, %xmm2
	vmulps	%xmm0, %xmm2, %xmm2
	vaddps	%xmm2, %xmm1, %xmm2
	vmulps	%xmm0, %xmm2, %xmm2
	vaddps	%xmm2, %xmm1, %xmm2
	vmulps	%xmm0, %xmm2, %xmm2
	vaddps	%xmm2, %xmm1, %xmm2
	vmulps	%xmm0, %xmm2, %xmm2
	vaddps	%xmm2, %xmm1, %xmm2
	vmulps	%xmm0, %xmm2, %xmm2
	vaddps	%xmm2, %xmm1, %xmm2
	vmulps	%xmm0, %xmm2, %xmm2
	vaddps	%xmm2, %xmm1, %xmm2
	vmulps	%xmm0, %xmm2, %xmm2
	vaddps	%xmm2, %xmm1, %xmm2
	vmulps	%xmm0, %xmm2, %xmm2
	vaddps	%xmm2, %xmm1, %xmm2
	vmulps	%xmm0, %xmm2, %xmm2
	vaddps	%xmm2, %xmm1, %xmm2
	vmulps	%xmm0, %xmm2, %xmm2
	vaddps	%xmm2, %xmm1, %xmm2
	vmulps	%xmm0, %xmm2, %xmm2
	vaddps	%xmm2, %xmm1, %xmm2
	vmulps	%xmm0, %xmm2, %xmm2
	vaddps	%xmm2, %xmm1, %xmm2
	vmulps	%xmm0, %xmm2, %xmm2
	vaddps	%xmm2, %xmm1, %xmm2
	vmulps	%xmm0, %xmm2, %xmm2
	vaddps	%xmm2, %xmm1, %xmm2
	vmulps	%xmm0, %xmm2, %xmm2
	vaddps	%xmm2, %xmm1, %xmm2
	vmulps	%xmm0, %xmm2, %xmm2
	vaddps	%xmm2, %xmm1, %xmm2
	vmulps	%xmm0, %xmm2, %xmm2
	vaddps	%xmm2, %xmm1, %xmm2
	vmulps	%xmm0, %xmm2, %xmm2
	vaddps	%xmm2, %xmm1, %xmm2
	vmulps	%xmm0, %xmm2, %xmm2
	vaddps	%xmm2, %xmm1, %xmm2
	vmulps	%xmm0, %xmm2, %xmm2
	vaddps	%xmm2, %xmm1, %xmm2
	vmulps	%xmm0, %xmm2, %xmm2
	vaddps	%xmm2, %xmm1, %xmm2
	vmulps	%xmm0, %xmm2, %xmm2
	vaddps	%xmm2, %xmm1, %xmm2
	vmulps	%xmm0, %xmm2, %xmm2
	vaddps	%xmm2, %xmm1, %xmm2
	vmulps	%xmm0, %xmm2, %xmm2
	vaddps	%xmm2, %xmm1, %xmm2
	vmulps	%xmm0, %xmm2, %xmm2
	vaddps	%xmm2, %xmm1, %xmm2
	vmulps	%xmm0, %xmm2, %xmm2
	vaddps	%xmm2, %xmm1, %xmm2
	vmulps	%xmm0, %xmm2, %xmm2
	vaddps	%xmm2, %xmm1, %xmm2
	vmulps	%xmm0, %xmm2, %xmm2
	vaddps	%xmm2, %xmm1, %xmm2
	vmulps	%xmm0, %xmm2, %xmm2
	vaddps	%xmm2, %xmm1, %xmm2
	vmulps	%xmm0, %xmm2, %xmm2
	vaddps	%xmm2, %xmm1, %xmm2
	vmulps	%xmm0, %xmm2, %xmm2
	vaddps	%xmm2, %xmm1, %xmm2
	vmulps	%xmm0, %xmm2, %xmm2
	vaddps	%xmm2, %xmm1, %xmm2
	vmulps	%xmm0, %xmm2, %xmm2
	vaddps	%xmm2, %xmm1, %xmm2
	vmulps	%xmm0, %xmm2, %xmm2
	vaddps	%xmm2, %xmm1, %xmm2
	vmulps	%xmm0, %xmm2, %xmm2
	vaddps	%xmm2, %xmm1, %xmm2
	vmulps	%xmm0, %xmm2, %xmm2
	vaddps	%xmm2, %xmm1, %xmm2
	vmulps	%xmm0, %xmm2, %xmm2
	vaddps	%xmm2, %xmm1, %xmm2
	vmulps	%xmm0, %xmm2, %xmm2
	vaddps	%xmm2, %xmm1, %xmm2
	vmulps	%xmm0, %xmm2, %xmm2
	vaddps	%xmm2, %xmm1, %xmm2
	vmulps	%xmm0, %xmm2, %xmm2
	vaddps	%xmm2, %xmm1, %xmm2
	vmulps	%xmm0, %xmm2, %xmm2
	vaddps	%xmm2, %xmm1, %xmm2
	vmulps	%xmm0, %xmm2, %xmm2
	vaddps	%xmm2, %xmm1, %xmm2
	vmulps	%xmm0, %xmm2, %xmm2
	vaddps	%xmm2, %xmm1, %xmm2
	vmulps	%xmm0, %xmm2, %xmm2
	vaddps	%xmm2, %xmm1, %xmm2
	vmulps	%xmm0, %xmm2, %xmm2
	vaddps	%xmm2, %xmm1, %xmm2
	vmulps	%xmm0, %xmm2, %xmm2
	vaddps	%xmm2, %xmm1, %xmm2
	vmulps	%xmm0, %xmm2, %xmm2
	vaddps	%xmm2, %xmm1, %xmm2
	vmulps	%xmm0, %xmm2, %xmm2
	vaddps	%xmm2, %xmm1, %xmm2
	vmulps	%xmm0, %xmm2, %xmm2
	vaddps	%xmm2, %xmm1, %xmm2
	vmulps	%xmm0, %xmm2, %xmm2
	vaddps	%xmm2, %xmm1, %xmm2
	vmulps	%xmm0, %xmm2, %xmm2
	vaddps	%xmm2, %xmm1, %xmm2
	vmulps	%xmm0, %xmm2, %xmm2
	vaddps	%xmm2, %xmm1, %xmm2
	vmulps	%xmm0, %xmm2, %xmm2
	vaddps	%xmm2, %xmm1, %xmm2
	vmulps	%xmm0, %xmm2, %xmm2
	vaddps	%xmm2, %xmm1, %xmm2
	vmulps	%xmm0, %xmm2, %xmm2
	vaddps	%xmm2, %xmm1, %xmm2
	vmulps	%xmm0, %xmm2, %xmm2
	vaddps	%xmm2, %xmm1, %xmm2
	vmulps	%xmm0, %xmm2, %xmm2
	vaddps	%xmm2, %xmm1, %xmm2
	vmulps	%xmm0, %xmm2, %xmm2
	vaddps	%xmm2, %xmm1, %xmm2
	vmulps	%xmm0, %xmm2, %xmm2
	vaddps	%xmm2, %xmm1, %xmm2
	vmulps	%xmm0, %xmm2, %xmm2
	vaddps	%xmm2, %xmm1, %xmm2
	vmulps	%xmm0, %xmm2, %xmm2
	vaddps	%xmm2, %xmm1, %xmm2
	vmulps	%xmm0, %xmm2, %xmm2
	vaddps	%xmm2, %xmm1, %xmm2
	vmulps	%xmm0, %xmm2, %xmm2
	vaddps	%xmm2, %xmm1, %xmm2
	vmulps	%xmm0, %xmm2, %xmm2
	vaddps	%xmm2, %xmm1, %xmm2
	vmulps	%xmm0, %xmm2, %xmm2
	vaddps	%xmm2, %xmm1, %xmm2
	vmulps	%xmm0, %xmm2, %xmm2
	vaddps	%xmm2, %xmm1, %xmm2
	vmulps	%xmm0, %xmm2, %xmm2
	vaddps	%xmm2, %xmm1, %xmm2
	vmulps	%xmm0, %xmm2, %xmm2
	vaddps	%xmm2, %xmm1, %xmm2
	vmulps	%xmm0, %xmm2, %xmm2
	vaddps	%xmm2, %xmm1, %xmm2
	vmulps	%xmm0, %xmm2, %xmm2
	vaddps	%xmm2, %xmm1, %xmm2
	vmulps	%xmm0, %xmm2, %xmm2
	vaddps	%xmm2, %xmm1, %xmm2
	vmulps	%xmm0, %xmm2, %xmm2
	vaddps	%xmm2, %xmm1, %xmm2
	vmulps	%xmm0, %xmm2, %xmm2
	vaddps	%xmm2, %xmm1, %xmm2
	vmulps	%xmm0, %xmm2, %xmm2
	vaddps	%xmm2, %xmm1, %xmm2
	vmulps	%xmm0, %xmm2, %xmm2
	vaddps	%xmm2, %xmm1, %xmm2
	vmulps	%xmm0, %xmm2, %xmm2
	vaddps	%xmm2, %xmm1, %xmm2
	vmulps	%xmm0, %xmm2, %xmm2
	vaddps	%xmm2, %xmm1, %xmm2
	vmulps	%xmm0, %xmm2, %xmm2
	vaddps	%xmm2, %xmm1, %xmm2
	vmulps	%xmm0, %xmm2, %xmm2
	vaddps	%xmm2, %xmm1, %xmm2
	vmulps	%xmm0, %xmm2, %xmm2
	vaddps	%xmm2, %xmm1, %xmm2
	vmulps	%xmm0, %xmm2, %xmm2
	vaddps	%xmm2, %xmm1, %xmm2
	vmulps	%xmm0, %xmm2, %xmm2
	vaddps	%xmm2, %xmm1, %xmm2
	vmulps	%xmm0, %xmm2, %xmm2
	vaddps	%xmm2, %xmm1, %xmm2
	vmulps	%xmm0, %xmm2, %xmm2
	vaddps	%xmm2, %xmm1, %xmm2
	vmulps	%xmm0, %xmm2, %xmm2
	vaddps	%xmm2, %xmm1, %xmm2
	vmulps	%xmm0, %xmm2, %xmm2
	vaddps	%xmm2, %xmm1, %xmm2
	vmulps	%xmm0, %xmm2, %xmm2
	vaddps	%xmm2, %xmm1, %xmm2
	vmulps	%xmm0, %xmm2, %xmm2
	vaddps	%xmm2, %xmm1, %xmm2
	vmulps	%xmm0, %xmm2, %xmm2
	vaddps	%xmm2, %xmm1, %xmm2
	vmulps	%xmm0, %xmm2, %xmm2
	vaddps	%xmm2, %xmm1, %xmm2
	vmulps	%xmm0, %xmm2, %xmm2
	vaddps	%xmm2, %xmm1, %xmm2
	vmulps	%xmm0, %xmm2, %xmm2
	vaddps	%xmm2, %xmm1, %xmm2
	vmulps	%xmm0, %xmm2, %xmm2
	vaddps	%xmm2, %xmm1, %xmm2
	vmulps	%xmm0, %xmm2, %xmm2
	vaddps	%xmm2, %xmm1, %xmm2
	vmulps	%xmm0, %xmm2, %xmm2
	vaddps	%xmm2, %xmm1, %xmm2
	vmulps	%xmm0, %xmm2, %xmm2
	vaddps	%xmm2, %xmm1, %xmm2
	vmulps	%xmm0, %xmm2, %xmm2
	vaddps	%xmm2, %xmm1, %xmm2
	vmulps	%xmm0, %xmm2, %xmm2
	vaddps	%xmm2, %xmm1, %xmm2
	vmulps	%xmm0, %xmm2, %xmm2
	vaddps	%xmm2, %xmm1, %xmm2
	vmulps	%xmm0, %xmm2, %xmm2
	vaddps	%xmm2, %xmm1, %xmm2
	vmulps	%xmm0, %xmm2, %xmm2
	vaddps	%xmm2, %xmm1, %xmm2
	vmulps	%xmm0, %xmm2, %xmm2
	vaddps	%xmm2, %xmm1, %xmm2
	vmulps	%xmm0, %xmm2, %xmm2
	vaddps	%xmm2, %xmm1, %xmm2
	vmulps	%xmm0, %xmm2, %xmm2
	vaddps	%xmm2, %xmm1, %xmm2
	vmulps	%xmm0, %xmm2, %xmm2
	vaddps	%xmm2, %xmm1, %xmm2
	vmulps	%xmm0, %xmm2, %xmm2
	vaddps	%xmm2, %xmm1, %xmm2
	vmulps	%xmm0, %xmm2, %xmm2
	vaddps	%xmm2, %xmm1, %xmm2
	vmulps	%xmm0, %xmm2, %xmm2
	vaddps	%xmm2, %xmm1, %xmm2
	vmulps	%xmm0, %xmm2, %xmm2
	vaddps	%xmm2, %xmm1, %xmm2
	vmulps	%xmm0, %xmm2, %xmm2
	vaddps	%xmm2, %xmm1, %xmm2
	vmulps	%xmm0, %xmm2, %xmm2
	vaddps	%xmm2, %xmm1, %xmm2
	vmulps	%xmm0, %xmm2, %xmm2
	vaddps	%xmm2, %xmm1, %xmm2
	vmulps	%xmm0, %xmm2, %xmm2
	vaddps	%xmm2, %xmm1, %xmm2
	vmulps	%xmm0, %xmm2, %xmm2
	vaddps	%xmm2, %xmm1, %xmm2
	vmulps	%xmm0, %xmm2, %xmm2
	vaddps	%xmm2, %xmm1, %xmm2
	vmulps	%xmm0, %xmm2, %xmm2
	vaddps	%xmm2, %xmm1, %xmm2
	vmulps	%xmm0, %xmm2, %xmm2
	vaddps	%xmm2, %xmm1, %xmm2
	vmulps	%xmm0, %xmm2, %xmm2
	vaddps	%xmm2, %xmm1, %xmm2
	vmulps	%xmm0, %xmm2, %xmm2
	vaddps	%xmm2, %xmm1, %xmm2
	vmulps	%xmm0, %xmm2, %xmm2
	vaddps	%xmm2, %xmm1, %xmm2
	vmulps	%xmm0, %xmm2, %xmm2
	vaddps	%xmm2, %xmm1, %xmm2
	vmulps	%xmm0, %xmm2, %xmm2
	vaddps	%xmm2, %xmm1, %xmm2
	vmulps	%xmm0, %xmm2, %xmm2
	vaddps	%xmm2, %xmm1, %xmm2
	vmulps	%xmm0, %xmm2, %xmm2
	vaddps	%xmm2, %xmm1, %xmm2
	vmulps	%xmm0, %xmm2, %xmm2
	vaddps	%xmm2, %xmm1, %xmm2
	vmulps	%xmm0, %xmm2, %xmm2
	vaddps	%xmm2, %xmm1, %xmm2
	vmulps	%xmm0, %xmm2, %xmm2
	vaddps	%xmm2, %xmm1, %xmm2
	vmulps	%xmm0, %xmm2, %xmm2
	vaddps	%xmm2, %xmm1, %xmm2
	vmulps	%xmm0, %xmm2, %xmm2
	vaddps	%xmm2, %xmm1, %xmm2
	vmulps	%xmm0, %xmm2, %xmm2
	vaddps	%xmm2, %xmm1, %xmm2
	vmulps	%xmm0, %xmm2, %xmm2
	vaddps	%xmm2, %xmm1, %xmm2
	vmulps	%xmm0, %xmm2, %xmm2
	vaddps	%xmm2, %xmm1, %xmm2
	vmulps	%xmm0, %xmm2, %xmm2
	vaddps	%xmm2, %xmm1, %xmm2
	vmulps	%xmm0, %xmm2, %xmm2
	vaddps	%xmm2, %xmm1, %xmm2
	vmulps	%xmm0, %xmm2, %xmm2
	vaddps	%xmm2, %xmm1, %xmm2
	vmulps	%xmm0, %xmm2, %xmm2
	vaddps	%xmm2, %xmm1, %xmm2
	vmulps	%xmm0, %xmm2, %xmm2
	vaddps	%xmm2, %xmm1, %xmm2
	vmulps	%xmm0, %xmm2, %xmm2
	vaddps	%xmm2, %xmm1, %xmm2
	vmulps	%xmm0, %xmm2, %xmm2
	vaddps	%xmm2, %xmm1, %xmm2
	vmulps	%xmm0, %xmm2, %xmm2
	vaddps	%xmm2, %xmm1, %xmm2
	vmulps	%xmm0, %xmm2, %xmm2
	vaddps	%xmm2, %xmm1, %xmm2
	vmulps	%xmm0, %xmm2, %xmm2
	vaddps	%xmm2, %xmm1, %xmm2
	vmulps	%xmm0, %xmm2, %xmm2
	vaddps	%xmm2, %xmm1, %xmm2
	vmulps	%xmm0, %xmm2, %xmm2
	vaddps	%xmm2, %xmm1, %xmm2
	vmulps	%xmm0, %xmm2, %xmm2
	vaddps	%xmm2, %xmm1, %xmm2
	vmulps	%xmm0, %xmm2, %xmm2
	vaddps	%xmm2, %xmm1, %xmm2
	vmulps	%xmm0, %xmm2, %xmm2
	vaddps	%xmm2, %xmm1, %xmm2
	vmulps	%xmm0, %xmm2, %xmm2
	vaddps	%xmm2, %xmm1, %xmm2
	vmulps	%xmm0, %xmm2, %xmm2
	vaddps	%xmm2, %xmm1, %xmm2
	vmulps	%xmm0, %xmm2, %xmm2
	vaddps	%xmm2, %xmm1, %xmm2
	vmulps	%xmm0, %xmm2, %xmm2
	vaddps	%xmm2, %xmm1, %xmm2
	vmulps	%xmm0, %xmm2, %xmm2
	vaddps	%xmm2, %xmm1, %xmm2
	vmulps	%xmm0, %xmm2, %xmm2
	vaddps	%xmm2, %xmm1, %xmm2
	vmulps	%xmm0, %xmm2, %xmm2
	vaddps	%xmm2, %xmm1, %xmm2
	vmulps	%xmm0, %xmm2, %xmm2
	vaddps	%xmm2, %xmm1, %xmm2
	vmulps	%xmm0, %xmm2, %xmm2
	vaddps	%xmm2, %xmm1, %xmm2
	vmulps	%xmm0, %xmm2, %xmm2
	vaddps	%xmm2, %xmm1, %xmm2
	vmulps	%xmm0, %xmm2, %xmm2
	vaddps	%xmm2, %xmm1, %xmm2
	vmulps	%xmm0, %xmm2, %xmm2
	vaddps	%xmm2, %xmm1, %xmm2
	vmulps	%xmm0, %xmm2, %xmm2
	vaddps	%xmm2, %xmm1, %xmm2
	vmulps	%xmm0, %xmm2, %xmm2
	vaddps	%xmm2, %xmm1, %xmm2
	vmulps	%xmm0, %xmm2, %xmm2
	vaddps	%xmm2, %xmm1, %xmm2
	vmulps	%xmm0, %xmm2, %xmm2
	vaddps	%xmm2, %xmm1, %xmm2
	vmulps	%xmm0, %xmm2, %xmm2
	vaddps	%xmm2, %xmm1, %xmm2
	vmulps	%xmm0, %xmm2, %xmm2
	vaddps	%xmm2, %xmm1, %xmm2
	vmulps	%xmm0, %xmm2, %xmm2
	vaddps	%xmm2, %xmm1, %xmm2
	vmulps	%xmm0, %xmm2, %xmm2
	vaddps	%xmm2, %xmm1, %xmm2
	vmulps	%xmm0, %xmm2, %xmm2
	vaddps	%xmm2, %xmm1, %xmm2
	vmulps	%xmm0, %xmm2, %xmm2
	vaddps	%xmm2, %xmm1, %xmm2
	vmulps	%xmm0, %xmm2, %xmm2
	vaddps	%xmm2, %xmm1, %xmm2
	vmulps	%xmm0, %xmm2, %xmm2
	vaddps	%xmm2, %xmm1, %xmm2
	vmulps	%xmm0, %xmm2, %xmm2
	vaddps	%xmm2, %xmm1, %xmm2
	vmulps	%xmm0, %xmm2, %xmm2
	vaddps	%xmm2, %xmm1, %xmm2
	vmulps	%xmm0, %xmm2, %xmm2
	vaddps	%xmm2, %xmm1, %xmm2
	vmulps	%xmm0, %xmm2, %xmm2
	vaddps	%xmm2, %xmm1, %xmm2
	vmulps	%xmm0, %xmm2, %xmm2
	vaddps	%xmm2, %xmm1, %xmm2
	vmulps	%xmm0, %xmm2, %xmm2
	vaddps	%xmm2, %xmm1, %xmm2
	vmulps	%xmm0, %xmm2, %xmm2
	vaddps	%xmm2, %xmm1, %xmm2
	vmulps	%xmm0, %xmm2, %xmm2
	vaddps	%xmm2, %xmm1, %xmm2
	vmulps	%xmm0, %xmm2, %xmm2
	vaddps	%xmm2, %xmm1, %xmm2
	vmulps	%xmm0, %xmm2, %xmm2
	vaddps	%xmm2, %xmm1, %xmm2
	vmulps	%xmm0, %xmm2, %xmm2
	vaddps	%xmm2, %xmm1, %xmm2
	vmulps	%xmm0, %xmm2, %xmm2
	vaddps	%xmm2, %xmm1, %xmm2
	vmulps	%xmm0, %xmm2, %xmm2
	vaddps	%xmm2, %xmm1, %xmm2
	vmulps	%xmm0, %xmm2, %xmm2
	vaddps	%xmm2, %xmm1, %xmm2
	vmulps	%xmm0, %xmm2, %xmm2
	vaddps	%xmm2, %xmm1, %xmm2
	vmulps	%xmm0, %xmm2, %xmm2
	vaddps	%xmm2, %xmm1, %xmm2
	vmulps	%xmm0, %xmm2, %xmm2
	vaddps	%xmm2, %xmm1, %xmm2
	vmulps	%xmm0, %xmm2, %xmm2
	vaddps	%xmm2, %xmm1, %xmm2
	vmulps	%xmm0, %xmm2, %xmm2
	vaddps	%xmm2, %xmm1, %xmm2
	vmulps	%xmm0, %xmm2, %xmm2
	vaddps	%xmm2, %xmm1, %xmm2
	vmulps	%xmm0, %xmm2, %xmm2
	vaddps	%xmm2, %xmm1, %xmm2
	vmulps	%xmm0, %xmm2, %xmm2
	vaddps	%xmm2, %xmm1, %xmm2
	vmulps	%xmm0, %xmm2, %xmm2
	vaddps	%xmm2, %xmm1, %xmm2
	vmulps	%xmm0, %xmm2, %xmm2
	vaddps	%xmm2, %xmm1, %xmm2
	vmulps	%xmm0, %xmm2, %xmm2
	vaddps	%xmm2, %xmm1, %xmm2
	vmulps	%xmm0, %xmm2, %xmm2
	vaddps	%xmm2, %xmm1, %xmm2
	vmulps	%xmm0, %xmm2, %xmm2
	vaddps	%xmm2, %xmm1, %xmm2
	vmulps	%xmm0, %xmm2, %xmm2
	vaddps	%xmm2, %xmm1, %xmm2
	vmulps	%xmm0, %xmm2, %xmm2
	vaddps	%xmm2, %xmm1, %xmm2
	vmulps	%xmm0, %xmm2, %xmm2
	vaddps	%xmm2, %xmm1, %xmm2
	vmulps	%xmm0, %xmm2, %xmm2
	vaddps	%xmm2, %xmm1, %xmm2
	vmulps	%xmm0, %xmm2, %xmm2
	vaddps	%xmm2, %xmm1, %xmm2
	vmulps	%xmm0, %xmm2, %xmm2
	vaddps	%xmm2, %xmm1, %xmm2
	vmulps	%xmm0, %xmm2, %xmm2
	vaddps	%xmm2, %xmm1, %xmm2
	vmulps	%xmm0, %xmm2, %xmm2
	vaddps	%xmm2, %xmm1, %xmm2
	vmulps	%xmm0, %xmm2, %xmm2
	vaddps	%xmm2, %xmm1, %xmm2
	vmulps	%xmm0, %xmm2, %xmm2
	vaddps	%xmm2, %xmm1, %xmm2
	vmulps	%xmm0, %xmm2, %xmm2
	vaddps	%xmm2, %xmm1, %xmm2
	vmulps	%xmm0, %xmm2, %xmm2
	vaddps	%xmm2, %xmm1, %xmm2
	vmulps	%xmm0, %xmm2, %xmm2
	vaddps	%xmm2, %xmm1, %xmm2
	vmulps	%xmm0, %xmm2, %xmm2
	vaddps	%xmm2, %xmm1, %xmm2
	vmulps	%xmm0, %xmm2, %xmm2
	vaddps	%xmm2, %xmm1, %xmm2
	vmulps	%xmm0, %xmm2, %xmm2
	vaddps	%xmm2, %xmm1, %xmm2
	vmulps	%xmm0, %xmm2, %xmm2
	vaddps	%xmm2, %xmm1, %xmm2
	vmulps	%xmm0, %xmm2, %xmm2
	vaddps	%xmm2, %xmm1, %xmm2
	vmulps	%xmm0, %xmm2, %xmm2
	vaddps	%xmm2, %xmm1, %xmm2
	vmulps	%xmm0, %xmm2, %xmm2
	vaddps	%xmm2, %xmm1, %xmm2
	vmulps	%xmm0, %xmm2, %xmm2
	vaddps	%xmm2, %xmm1, %xmm2
	vmulps	%xmm0, %xmm2, %xmm2
	vaddps	%xmm2, %xmm1, %xmm2
	vmulps	%xmm0, %xmm2, %xmm2
	vaddps	%xmm2, %xmm1, %xmm2
	vmulps	%xmm0, %xmm2, %xmm2
	vaddps	%xmm2, %xmm1, %xmm2
	vmulps	%xmm0, %xmm2, %xmm2
	vaddps	%xmm2, %xmm1, %xmm2
	vmulps	%xmm0, %xmm2, %xmm2
	vaddps	%xmm2, %xmm1, %xmm2
	vmulps	%xmm0, %xmm2, %xmm2
	vaddps	%xmm2, %xmm1, %xmm2
	vmulps	%xmm0, %xmm2, %xmm2
	vaddps	%xmm2, %xmm1, %xmm2
	vmulps	%xmm0, %xmm2, %xmm2
	vaddps	%xmm2, %xmm1, %xmm2
	vmulps	%xmm0, %xmm2, %xmm2
	vaddps	%xmm2, %xmm1, %xmm2
	vmulps	%xmm0, %xmm2, %xmm2
	vaddps	%xmm2, %xmm1, %xmm2
	vmulps	%xmm0, %xmm2, %xmm2
	vaddps	%xmm2, %xmm1, %xmm2
	vmulps	%xmm0, %xmm2, %xmm2
	vaddps	%xmm2, %xmm1, %xmm2
	vmulps	%xmm0, %xmm2, %xmm2
	vaddps	%xmm2, %xmm1, %xmm2
	vmulps	%xmm0, %xmm2, %xmm2
	vaddps	%xmm2, %xmm1, %xmm2
	vmulps	%xmm0, %xmm2, %xmm2
	vaddps	%xmm2, %xmm1, %xmm2
	vmulps	%xmm0, %xmm2, %xmm2
	vaddps	%xmm2, %xmm1, %xmm2
	vmulps	%xmm0, %xmm2, %xmm2
	vaddps	%xmm2, %xmm1, %xmm2
	vmulps	%xmm0, %xmm2, %xmm2
	vaddps	%xmm2, %xmm1, %xmm2
	vmulps	%xmm0, %xmm2, %xmm2
	vaddps	%xmm2, %xmm1, %xmm2
	vmulps	%xmm0, %xmm2, %xmm2
	vaddps	%xmm2, %xmm1, %xmm2
	vmulps	%xmm0, %xmm2, %xmm2
	vaddps	%xmm2, %xmm1, %xmm2
	vmulps	%xmm0, %xmm2, %xmm2
	vaddps	%xmm2, %xmm1, %xmm2
	vmulps	%xmm0, %xmm2, %xmm2
	vaddps	%xmm2, %xmm1, %xmm2
	vmulps	%xmm0, %xmm2, %xmm2
	vaddps	%xmm2, %xmm1, %xmm2
	vmulps	%xmm0, %xmm2, %xmm2
	vaddps	%xmm2, %xmm1, %xmm2
	vmulps	%xmm0, %xmm2, %xmm2
	vaddps	%xmm2, %xmm1, %xmm2
	vmulps	%xmm0, %xmm2, %xmm2
	vaddps	%xmm2, %xmm1, %xmm2
	vmulps	%xmm0, %xmm2, %xmm2
	vaddps	%xmm2, %xmm1, %xmm2
	vmulps	%xmm0, %xmm2, %xmm2
	vaddps	%xmm2, %xmm1, %xmm2
	vmulps	%xmm0, %xmm2, %xmm2
	vaddps	%xmm2, %xmm1, %xmm2
	vmulps	%xmm0, %xmm2, %xmm2
	vaddps	%xmm2, %xmm1, %xmm2
	vmulps	%xmm0, %xmm2, %xmm2
	vaddps	%xmm2, %xmm1, %xmm2
	vmulps	%xmm0, %xmm2, %xmm2
	vaddps	%xmm2, %xmm1, %xmm2
	vmulps	%xmm0, %xmm2, %xmm2
	vaddps	%xmm2, %xmm1, %xmm2
	vmulps	%xmm0, %xmm2, %xmm2
	vaddps	%xmm2, %xmm1, %xmm2
	vmulps	%xmm0, %xmm2, %xmm2
	vaddps	%xmm2, %xmm1, %xmm2
	vmulps	%xmm0, %xmm2, %xmm2
	vaddps	%xmm2, %xmm1, %xmm2
	vmulps	%xmm0, %xmm2, %xmm2
	vaddps	%xmm2, %xmm1, %xmm2
	vmulps	%xmm0, %xmm2, %xmm2
	vaddps	%xmm2, %xmm1, %xmm2
	vmulps	%xmm0, %xmm2, %xmm2
	vaddps	%xmm2, %xmm1, %xmm2
	vmulps	%xmm0, %xmm2, %xmm2
	vaddps	%xmm2, %xmm1, %xmm2
	vmulps	%xmm0, %xmm2, %xmm2
	vaddps	%xmm2, %xmm1, %xmm2
	vmulps	%xmm0, %xmm2, %xmm2
	vaddps	%xmm2, %xmm1, %xmm2
	vmulps	%xmm0, %xmm2, %xmm2
	vaddps	%xmm2, %xmm1, %xmm2
	vmulps	%xmm0, %xmm2, %xmm2
	vaddps	%xmm2, %xmm1, %xmm2
	vmulps	%xmm0, %xmm2, %xmm2
	vaddps	%xmm2, %xmm1, %xmm2
	vmulps	%xmm0, %xmm2, %xmm2
	vaddps	%xmm2, %xmm1, %xmm2
	vmulps	%xmm0, %xmm2, %xmm2
	vaddps	%xmm2, %xmm1, %xmm2
	vmulps	%xmm0, %xmm2, %xmm2
	vaddps	%xmm2, %xmm1, %xmm2
	vmulps	%xmm0, %xmm2, %xmm2
	vaddps	%xmm2, %xmm1, %xmm2
	vmulps	%xmm0, %xmm2, %xmm2
	vaddps	%xmm2, %xmm1, %xmm2
	vmulps	%xmm0, %xmm2, %xmm2
	vaddps	%xmm2, %xmm1, %xmm2
	vmulps	%xmm0, %xmm2, %xmm2
	vaddps	%xmm2, %xmm1, %xmm2
	vmulps	%xmm0, %xmm2, %xmm2
	vaddps	%xmm2, %xmm1, %xmm2
	vmulps	%xmm0, %xmm2, %xmm2
	vaddps	%xmm2, %xmm1, %xmm2
	vmulps	%xmm0, %xmm2, %xmm2
	vaddps	%xmm2, %xmm1, %xmm2
	vmulps	%xmm0, %xmm2, %xmm2
	vaddps	%xmm2, %xmm1, %xmm2
	vmulps	%xmm0, %xmm2, %xmm2
	vaddps	%xmm2, %xmm1, %xmm2
	vmulps	%xmm0, %xmm2, %xmm2
	vaddps	%xmm2, %xmm1, %xmm2
	vmulps	%xmm0, %xmm2, %xmm2
	vaddps	%xmm2, %xmm1, %xmm2
	vmulps	%xmm0, %xmm2, %xmm2
	vaddps	%xmm2, %xmm1, %xmm2
	vmulps	%xmm0, %xmm2, %xmm2
	vaddps	%xmm2, %xmm1, %xmm2
	vmulps	%xmm0, %xmm2, %xmm2
	vaddps	%xmm2, %xmm1, %xmm2
	vmulps	%xmm0, %xmm2, %xmm2
	vaddps	%xmm2, %xmm1, %xmm2
	vmulps	%xmm0, %xmm2, %xmm2
	vaddps	%xmm2, %xmm1, %xmm2
	vmulps	%xmm0, %xmm2, %xmm2
	vaddps	%xmm2, %xmm1, %xmm2
	vmulps	%xmm0, %xmm2, %xmm2
	vaddps	%xmm2, %xmm1, %xmm2
	vmulps	%xmm0, %xmm2, %xmm2
	vaddps	%xmm2, %xmm1, %xmm2
	vmulps	%xmm0, %xmm2, %xmm2
	vaddps	%xmm2, %xmm1, %xmm2
	vmulps	%xmm0, %xmm2, %xmm2
	vaddps	%xmm2, %xmm1, %xmm2
	vmulps	%xmm0, %xmm2, %xmm2
	vaddps	%xmm2, %xmm1, %xmm2
	vmulps	%xmm0, %xmm2, %xmm2
	vaddps	%xmm2, %xmm1, %xmm2
	vmulps	%xmm0, %xmm2, %xmm2
	vaddps	%xmm2, %xmm1, %xmm2
	vmulps	%xmm0, %xmm2, %xmm2
	vaddps	%xmm2, %xmm1, %xmm2
	vmulps	%xmm0, %xmm2, %xmm2
	vaddps	%xmm2, %xmm1, %xmm2
	vmulps	%xmm0, %xmm2, %xmm2
	vaddps	%xmm2, %xmm1, %xmm2
	vmulps	%xmm0, %xmm2, %xmm2
	vaddps	%xmm2, %xmm1, %xmm2
	vmulps	%xmm0, %xmm2, %xmm2
	vaddps	%xmm2, %xmm1, %xmm2
	vmulps	%xmm0, %xmm2, %xmm2
	vaddps	%xmm2, %xmm1, %xmm2
	vmulps	%xmm0, %xmm2, %xmm2
	vaddps	%xmm2, %xmm1, %xmm2
	vmulps	%xmm0, %xmm2, %xmm2
	vaddps	%xmm2, %xmm1, %xmm2
	vmulps	%xmm0, %xmm2, %xmm2
	vaddps	%xmm2, %xmm1, %xmm2
	vmulps	%xmm0, %xmm2, %xmm2
	vaddps	%xmm2, %xmm1, %xmm2
	vmulps	%xmm0, %xmm2, %xmm2
	vaddps	%xmm2, %xmm1, %xmm2
	vmulps	%xmm0, %xmm2, %xmm2
	vaddps	%xmm2, %xmm1, %xmm2
	vmulps	%xmm0, %xmm2, %xmm2
	vaddps	%xmm2, %xmm1, %xmm2
	vmulps	%xmm0, %xmm2, %xmm2
	vaddps	%xmm2, %xmm1, %xmm2
	vmulps	%xmm0, %xmm2, %xmm2
	vaddps	%xmm2, %xmm1, %xmm2
	vmulps	%xmm0, %xmm2, %xmm2
	vaddps	%xmm2, %xmm1, %xmm2
	vmulps	%xmm0, %xmm2, %xmm2
	vaddps	%xmm2, %xmm1, %xmm2
	vmulps	%xmm0, %xmm2, %xmm2
	vaddps	%xmm2, %xmm1, %xmm2
	vmulps	%xmm0, %xmm2, %xmm2
	vaddps	%xmm2, %xmm1, %xmm2
	vmulps	%xmm0, %xmm2, %xmm2
	vaddps	%xmm2, %xmm1, %xmm2
	vmulps	%xmm0, %xmm2, %xmm2
	vaddps	%xmm2, %xmm1, %xmm2
	vmulps	%xmm0, %xmm2, %xmm2
	vaddps	%xmm2, %xmm1, %xmm2
	vmulps	%xmm0, %xmm2, %xmm2
	vaddps	%xmm2, %xmm1, %xmm2
	vmulps	%xmm0, %xmm2, %xmm2
	vaddps	%xmm2, %xmm1, %xmm2
	vmulps	%xmm0, %xmm2, %xmm2
	vaddps	%xmm2, %xmm1, %xmm2
	vmulps	%xmm0, %xmm2, %xmm2
	vaddps	%xmm2, %xmm1, %xmm2
	vmulps	%xmm0, %xmm2, %xmm2
	vaddps	%xmm2, %xmm1, %xmm2
	vmulps	%xmm0, %xmm2, %xmm2
	vaddps	%xmm2, %xmm1, %xmm2
	vmulps	%xmm0, %xmm2, %xmm2
	vaddps	%xmm2, %xmm1, %xmm2
	vmulps	%xmm0, %xmm2, %xmm2
	vaddps	%xmm2, %xmm1, %xmm2
	vmulps	%xmm0, %xmm2, %xmm2
	vaddps	%xmm2, %xmm1, %xmm2
	vmulps	%xmm0, %xmm2, %xmm2
	vaddps	%xmm2, %xmm1, %xmm2
	vmulps	%xmm0, %xmm2, %xmm2
	vaddps	%xmm2, %xmm1, %xmm2
	vmulps	%xmm0, %xmm2, %xmm2
	vaddps	%xmm2, %xmm1, %xmm2
	vmulps	%xmm0, %xmm2, %xmm2
	vaddps	%xmm2, %xmm1, %xmm2
	vmulps	%xmm0, %xmm2, %xmm2
	vaddps	%xmm2, %xmm1, %xmm2
	vmulps	%xmm0, %xmm2, %xmm2
	vaddps	%xmm2, %xmm1, %xmm2
	vmulps	%xmm0, %xmm2, %xmm2
	vaddps	%xmm2, %xmm1, %xmm2
	vmulps	%xmm0, %xmm2, %xmm2
	vaddps	%xmm2, %xmm1, %xmm2
	vmulps	%xmm0, %xmm2, %xmm2
	vaddps	%xmm2, %xmm1, %xmm2
	vmulps	%xmm0, %xmm2, %xmm2
	vaddps	%xmm2, %xmm1, %xmm2
	vmulps	%xmm0, %xmm2, %xmm2
	vaddps	%xmm2, %xmm1, %xmm2
	vmulps	%xmm0, %xmm2, %xmm2
	vaddps	%xmm2, %xmm1, %xmm2
	vmulps	%xmm0, %xmm2, %xmm2
	vaddps	%xmm2, %xmm1, %xmm2
	vmulps	%xmm0, %xmm2, %xmm2
	vaddps	%xmm2, %xmm1, %xmm2
	vmulps	%xmm0, %xmm2, %xmm2
	vaddps	%xmm2, %xmm1, %xmm2
	vmulps	%xmm0, %xmm2, %xmm2
	vaddps	%xmm2, %xmm1, %xmm2
	vmulps	%xmm0, %xmm2, %xmm2
	vaddps	%xmm2, %xmm1, %xmm2
	vmulps	%xmm0, %xmm2, %xmm2
	vaddps	%xmm2, %xmm1, %xmm2
	vmulps	%xmm0, %xmm2, %xmm2
	vaddps	%xmm2, %xmm1, %xmm2
	vmulps	%xmm0, %xmm2, %xmm2
	vaddps	%xmm2, %xmm1, %xmm2
	vmulps	%xmm0, %xmm2, %xmm2
	vaddps	%xmm2, %xmm1, %xmm2
	vmulps	%xmm0, %xmm2, %xmm2
	vaddps	%xmm2, %xmm1, %xmm2
	vmulps	%xmm0, %xmm2, %xmm2
	vaddps	%xmm2, %xmm1, %xmm2
	vmulps	%xmm0, %xmm2, %xmm2
	vaddps	%xmm2, %xmm1, %xmm2
	vmulps	%xmm0, %xmm2, %xmm2
	vaddps	%xmm2, %xmm1, %xmm2
	vmulps	%xmm0, %xmm2, %xmm2
	vaddps	%xmm2, %xmm1, %xmm2
	vmulps	%xmm0, %xmm2, %xmm2
	vaddps	%xmm2, %xmm1, %xmm2
	vmulps	%xmm0, %xmm2, %xmm2
	vaddps	%xmm2, %xmm1, %xmm2
	vmulps	%xmm0, %xmm2, %xmm2
	vaddps	%xmm2, %xmm1, %xmm2
	vmulps	%xmm0, %xmm2, %xmm2
	vaddps	%xmm2, %xmm1, %xmm2
	vmulps	%xmm0, %xmm2, %xmm2
	vaddps	%xmm2, %xmm1, %xmm2
	vmulps	%xmm0, %xmm2, %xmm2
	vaddps	%xmm2, %xmm1, %xmm2
	vmulps	%xmm0, %xmm2, %xmm2
	vaddps	%xmm2, %xmm1, %xmm2
	vmulps	%xmm0, %xmm2, %xmm2
	vaddps	%xmm2, %xmm1, %xmm2
	vmulps	%xmm0, %xmm2, %xmm2
	vaddps	%xmm2, %xmm1, %xmm2
	vmulps	%xmm0, %xmm2, %xmm2
	vaddps	%xmm2, %xmm1, %xmm2
	vmulps	%xmm0, %xmm2, %xmm2
	vaddps	%xmm2, %xmm1, %xmm2
	vmulps	%xmm0, %xmm2, %xmm2
	vaddps	%xmm2, %xmm1, %xmm2
	vmulps	%xmm0, %xmm2, %xmm2
	vaddps	%xmm2, %xmm1, %xmm2
	vmulps	%xmm0, %xmm2, %xmm2
	vaddps	%xmm2, %xmm1, %xmm2
	vmulps	%xmm0, %xmm2, %xmm2
	vaddps	%xmm2, %xmm1, %xmm2
	vmulps	%xmm0, %xmm2, %xmm2
	vaddps	%xmm2, %xmm1, %xmm2
	vmulps	%xmm0, %xmm2, %xmm2
	vaddps	%xmm2, %xmm1, %xmm2
	vmulps	%xmm0, %xmm2, %xmm2
	vaddps	%xmm2, %xmm1, %xmm2
	vmulps	%xmm0, %xmm2, %xmm2
	vaddps	%xmm2, %xmm1, %xmm2
	vmulps	%xmm0, %xmm2, %xmm2
	vaddps	%xmm2, %xmm1, %xmm2
	vmulps	%xmm0, %xmm2, %xmm2
	vaddps	%xmm2, %xmm1, %xmm2
	vmulps	%xmm0, %xmm2, %xmm2
	vaddps	%xmm2, %xmm1, %xmm2
	vmulps	%xmm0, %xmm2, %xmm2
	vaddps	%xmm2, %xmm1, %xmm2
	vmulps	%xmm0, %xmm2, %xmm2
	vaddps	%xmm2, %xmm1, %xmm2
	vmulps	%xmm0, %xmm2, %xmm2
	vaddps	%xmm2, %xmm1, %xmm2
	vmulps	%xmm0, %xmm2, %xmm2
	vaddps	%xmm2, %xmm1, %xmm2
	vmulps	%xmm0, %xmm2, %xmm2
	vaddps	%xmm2, %xmm1, %xmm2
	vmulps	%xmm0, %xmm2, %xmm2
	vaddps	%xmm2, %xmm1, %xmm2
	vmulps	%xmm0, %xmm2, %xmm2
	vaddps	%xmm2, %xmm1, %xmm2
	vmulps	%xmm0, %xmm2, %xmm2
	vaddps	%xmm2, %xmm1, %xmm2
	vmulps	%xmm0, %xmm2, %xmm2
	vaddps	%xmm2, %xmm1, %xmm2
	vmulps	%xmm0, %xmm2, %xmm2
	vaddps	%xmm2, %xmm1, %xmm2
	vmulps	%xmm0, %xmm2, %xmm2
	vaddps	%xmm2, %xmm1, %xmm2
	vmulps	%xmm0, %xmm2, %xmm2
	vaddps	%xmm2, %xmm1, %xmm2
	vmulps	%xmm0, %xmm2, %xmm2
	vaddps	%xmm2, %xmm1, %xmm2
	vmulps	%xmm0, %xmm2, %xmm2
	vaddps	%xmm2, %xmm1, %xmm2
	vmulps	%xmm0, %xmm2, %xmm2
	vaddps	%xmm2, %xmm1, %xmm2
	vmulps	%xmm0, %xmm2, %xmm2
	vaddps	%xmm2, %xmm1, %xmm2
	vmulps	%xmm0, %xmm2, %xmm2
	vaddps	%xmm2, %xmm1, %xmm2
	vmulps	%xmm0, %xmm2, %xmm2
	vaddps	%xmm2, %xmm1, %xmm2
	vmulps	%xmm0, %xmm2, %xmm2
	vaddps	%xmm2, %xmm1, %xmm2
	vmulps	%xmm0, %xmm2, %xmm2
	vaddps	%xmm2, %xmm1, %xmm2
	vmulps	%xmm0, %xmm2, %xmm2
	vaddps	%xmm2, %xmm1, %xmm2
	vmulps	%xmm0, %xmm2, %xmm2
	vaddps	%xmm2, %xmm1, %xmm2
	vmulps	%xmm0, %xmm2, %xmm2
	vaddps	%xmm2, %xmm1, %xmm2
	vmulps	%xmm0, %xmm2, %xmm2
	vaddps	%xmm2, %xmm1, %xmm2
	vmulps	%xmm0, %xmm2, %xmm2
	vaddps	%xmm2, %xmm1, %xmm2
	vmulps	%xmm0, %xmm2, %xmm2
	vaddps	%xmm2, %xmm1, %xmm2
	vmulps	%xmm0, %xmm2, %xmm2
	vaddps	%xmm2, %xmm1, %xmm2
	vmulps	%xmm0, %xmm2, %xmm2
	vaddps	%xmm2, %xmm1, %xmm2
	vmulps	%xmm0, %xmm2, %xmm2
	vaddps	%xmm2, %xmm1, %xmm2
	vmulps	%xmm0, %xmm2, %xmm2
	vaddps	%xmm2, %xmm1, %xmm2
	vmulps	%xmm0, %xmm2, %xmm2
	vaddps	%xmm2, %xmm1, %xmm2
	vmulps	%xmm0, %xmm2, %xmm2
	vaddps	%xmm2, %xmm1, %xmm2
	vmulps	%xmm0, %xmm2, %xmm2
	vaddps	%xmm2, %xmm1, %xmm2
	vmulps	%xmm0, %xmm2, %xmm2
	vaddps	%xmm2, %xmm1, %xmm2
	vmulps	%xmm0, %xmm2, %xmm2
	vaddps	%xmm2, %xmm1, %xmm2
	vmulps	%xmm0, %xmm2, %xmm2
	vaddps	%xmm2, %xmm1, %xmm2
	vmulps	%xmm0, %xmm2, %xmm2
	vaddps	%xmm2, %xmm1, %xmm2
	vmulps	%xmm0, %xmm2, %xmm2
	vaddps	%xmm2, %xmm1, %xmm2
	vmulps	%xmm0, %xmm2, %xmm2
	vaddps	%xmm2, %xmm1, %xmm2
	vmulps	%xmm0, %xmm2, %xmm2
	vaddps	%xmm2, %xmm1, %xmm2
	vmulps	%xmm0, %xmm2, %xmm2
	vaddps	%xmm2, %xmm1, %xmm2
	vmulps	%xmm0, %xmm2, %xmm2
	vaddps	%xmm2, %xmm1, %xmm2
	vmulps	%xmm0, %xmm2, %xmm2
	vaddps	%xmm2, %xmm1, %xmm2
	vmulps	%xmm0, %xmm2, %xmm2
	vaddps	%xmm2, %xmm1, %xmm2
	vmulps	%xmm0, %xmm2, %xmm2
	vaddps	%xmm2, %xmm1, %xmm2
	vmulps	%xmm0, %xmm2, %xmm2
	vaddps	%xmm2, %xmm1, %xmm2
	vmulps	%xmm0, %xmm2, %xmm2
	vaddps	%xmm2, %xmm1, %xmm2
	vmulps	%xmm0, %xmm2, %xmm2
	vaddps	%xmm2, %xmm1, %xmm2
	vmulps	%xmm0, %xmm2, %xmm2
	vaddps	%xmm2, %xmm1, %xmm2
	vmulps	%xmm0, %xmm2, %xmm2
	vaddps	%xmm2, %xmm1, %xmm2
	vmulps	%xmm0, %xmm2, %xmm2
	vaddps	%xmm2, %xmm1, %xmm2
	vmulps	%xmm0, %xmm2, %xmm2
	vaddps	%xmm2, %xmm1, %xmm2
	vmulps	%xmm0, %xmm2, %xmm2
	vaddps	%xmm2, %xmm1, %xmm2
	vmulps	%xmm0, %xmm2, %xmm2
	vaddps	%xmm2, %xmm1, %xmm2
	vmulps	%xmm0, %xmm2, %xmm2
	vaddps	%xmm2, %xmm1, %xmm2
	vmulps	%xmm0, %xmm2, %xmm2
	vaddps	%xmm2, %xmm1, %xmm2
	vmulps	%xmm0, %xmm2, %xmm2
	vaddps	%xmm2, %xmm1, %xmm2
	vmulps	%xmm0, %xmm2, %xmm2
	vaddps	%xmm2, %xmm1, %xmm2
	vmulps	%xmm0, %xmm2, %xmm2
	vaddps	%xmm2, %xmm1, %xmm2
	vmulps	%xmm0, %xmm2, %xmm2
	vaddps	%xmm2, %xmm1, %xmm2
	vmulps	%xmm0, %xmm2, %xmm2
	vaddps	%xmm2, %xmm1, %xmm2
	vmulps	%xmm0, %xmm2, %xmm2
	vaddps	%xmm2, %xmm1, %xmm2
	vmulps	%xmm0, %xmm2, %xmm2
	vaddps	%xmm2, %xmm1, %xmm2
	vmulps	%xmm0, %xmm2, %xmm2
	vaddps	%xmm2, %xmm1, %xmm2
	vmulps	%xmm0, %xmm2, %xmm2
	vaddps	%xmm2, %xmm1, %xmm2
	vmulps	%xmm0, %xmm2, %xmm2
	vaddps	%xmm2, %xmm1, %xmm2
	vmulps	%xmm0, %xmm2, %xmm2
	vaddps	%xmm2, %xmm1, %xmm2
	vmulps	%xmm0, %xmm2, %xmm2
	vaddps	%xmm2, %xmm1, %xmm2
	vmulps	%xmm0, %xmm2, %xmm2
	vaddps	%xmm2, %xmm1, %xmm2
	vmulps	%xmm0, %xmm2, %xmm2
	vaddps	%xmm2, %xmm1, %xmm2
	vmulps	%xmm0, %xmm2, %xmm2
	vaddps	%xmm2, %xmm1, %xmm2
	vmulps	%xmm0, %xmm2, %xmm2
	vaddps	%xmm2, %xmm1, %xmm2
	vmulps	%xmm0, %xmm2, %xmm2
	vaddps	%xmm2, %xmm1, %xmm2
	vmulps	%xmm0, %xmm2, %xmm2
	vaddps	%xmm2, %xmm1, %xmm2
	vmulps	%xmm0, %xmm2, %xmm2
	vaddps	%xmm2, %xmm1, %xmm2
	vmulps	%xmm0, %xmm2, %xmm2
	vaddps	%xmm2, %xmm1, %xmm2
	vmulps	%xmm0, %xmm2, %xmm2
	vaddps	%xmm2, %xmm1, %xmm2
	vmulps	%xmm0, %xmm2, %xmm2
	vaddps	%xmm2, %xmm1, %xmm2
	vmulps	%xmm0, %xmm2, %xmm2
	vaddps	%xmm2, %xmm1, %xmm2
	vmulps	%xmm0, %xmm2, %xmm2
	vaddps	%xmm2, %xmm1, %xmm2
	vmulps	%xmm0, %xmm2, %xmm2
	vaddps	%xmm2, %xmm1, %xmm2
	vmulps	%xmm0, %xmm2, %xmm2
	vaddps	%xmm2, %xmm1, %xmm2
	vmulps	%xmm0, %xmm2, %xmm2
	vaddps	%xmm2, %xmm1, %xmm2
	vmulps	%xmm0, %xmm2, %xmm2
	vaddps	%xmm2, %xmm1, %xmm2
	vmulps	%xmm0, %xmm2, %xmm2
	vaddps	%xmm2, %xmm1, %xmm2
	vmulps	%xmm0, %xmm2, %xmm2
	vaddps	%xmm2, %xmm1, %xmm2
	vmulps	%xmm0, %xmm2, %xmm2
	vaddps	%xmm2, %xmm1, %xmm2
	vmulps	%xmm0, %xmm2, %xmm2
	vaddps	%xmm2, %xmm1, %xmm2
	vmulps	%xmm0, %xmm2, %xmm2
	vaddps	%xmm2, %xmm1, %xmm2
	vmulps	%xmm0, %xmm2, %xmm2
	vaddps	%xmm2, %xmm1, %xmm2
	vmulps	%xmm0, %xmm2, %xmm2
	vaddps	%xmm2, %xmm1, %xmm2
	vmulps	%xmm0, %xmm2, %xmm2
	vaddps	%xmm2, %xmm1, %xmm2
	vmulps	%xmm0, %xmm2, %xmm2
	vaddps	%xmm2, %xmm1, %xmm2
	vmulps	%xmm0, %xmm2, %xmm2
	vaddps	%xmm2, %xmm1, %xmm2
	vmulps	%xmm0, %xmm2, %xmm2
	vaddps	%xmm2, %xmm1, %xmm2
	vmulps	%xmm0, %xmm2, %xmm2
	vaddps	%xmm2, %xmm1, %xmm2
	vmulps	%xmm0, %xmm2, %xmm2
	vaddps	%xmm2, %xmm1, %xmm2
	vmulps	%xmm0, %xmm2, %xmm2
	vaddps	%xmm2, %xmm1, %xmm2
	vmulps	%xmm0, %xmm2, %xmm2
	vaddps	%xmm2, %xmm1, %xmm2
	vmulps	%xmm0, %xmm2, %xmm2
	vaddps	%xmm2, %xmm1, %xmm2
	vmulps	%xmm0, %xmm2, %xmm2
	vaddps	%xmm2, %xmm1, %xmm2
	vmulps	%xmm0, %xmm2, %xmm2
	vaddps	%xmm2, %xmm1, %xmm2
	vmulps	%xmm0, %xmm2, %xmm2
	vaddps	%xmm2, %xmm1, %xmm2
	vmulps	%xmm0, %xmm2, %xmm2
	vaddps	%xmm2, %xmm1, %xmm2
	vmulps	%xmm0, %xmm2, %xmm2
	vaddps	%xmm2, %xmm1, %xmm2
	vmulps	%xmm0, %xmm2, %xmm2
	vaddps	%xmm2, %xmm1, %xmm2
	vmulps	%xmm0, %xmm2, %xmm2
	vaddps	%xmm2, %xmm1, %xmm2
	vmulps	%xmm0, %xmm2, %xmm2
	vaddps	%xmm2, %xmm1, %xmm2
	vmulps	%xmm0, %xmm2, %xmm2
	vaddps	%xmm2, %xmm1, %xmm2
	vmulps	%xmm0, %xmm2, %xmm2
	vaddps	%xmm2, %xmm1, %xmm2
	vmulps	%xmm0, %xmm2, %xmm2
	vaddps	%xmm2, %xmm1, %xmm2
	vmulps	%xmm0, %xmm2, %xmm2
	vaddps	%xmm2, %xmm1, %xmm2
	vmulps	%xmm0, %xmm2, %xmm2
	vaddps	%xmm2, %xmm1, %xmm2
	vmulps	%xmm0, %xmm2, %xmm2
	vaddps	%xmm2, %xmm1, %xmm2
	vmulps	%xmm0, %xmm2, %xmm2
	vaddps	%xmm2, %xmm1, %xmm2
	vmulps	%xmm0, %xmm2, %xmm2
	vaddps	%xmm2, %xmm1, %xmm2
	vmulps	%xmm0, %xmm2, %xmm2
	vaddps	%xmm2, %xmm1, %xmm2
	vmulps	%xmm0, %xmm2, %xmm2
	vaddps	%xmm2, %xmm1, %xmm2
	vmulps	%xmm0, %xmm2, %xmm2
	vaddps	%xmm2, %xmm1, %xmm2
	vmulps	%xmm0, %xmm2, %xmm2
	vaddps	%xmm2, %xmm1, %xmm2
	vmulps	%xmm0, %xmm2, %xmm2
	vaddps	%xmm2, %xmm1, %xmm2
	vmulps	%xmm0, %xmm2, %xmm2
	vaddps	%xmm2, %xmm1, %xmm2
	vmulps	%xmm0, %xmm2, %xmm2
	vaddps	%xmm2, %xmm1, %xmm2
	vmulps	%xmm0, %xmm2, %xmm2
	vaddps	%xmm2, %xmm1, %xmm2
	vmulps	%xmm0, %xmm2, %xmm2
	vaddps	%xmm2, %xmm1, %xmm2
	vmulps	%xmm0, %xmm2, %xmm2
	vaddps	%xmm2, %xmm1, %xmm2
	vmulps	%xmm0, %xmm2, %xmm2
	vaddps	%xmm2, %xmm1, %xmm2
	vmulps	%xmm0, %xmm2, %xmm2
	vaddps	%xmm2, %xmm1, %xmm2
	vmulps	%xmm0, %xmm2, %xmm2
	vaddps	%xmm2, %xmm1, %xmm2
	vmulps	%xmm0, %xmm2, %xmm2
	vaddps	%xmm2, %xmm1, %xmm2
	vmulps	%xmm0, %xmm2, %xmm2
	vaddps	%xmm2, %xmm1, %xmm2
	vmulps	%xmm0, %xmm2, %xmm2
	vaddps	%xmm2, %xmm1, %xmm2
	vmulps	%xmm0, %xmm2, %xmm2
	vaddps	%xmm2, %xmm1, %xmm2
	vmulps	%xmm0, %xmm2, %xmm2
	vaddps	%xmm2, %xmm1, %xmm2
	vmulps	%xmm0, %xmm2, %xmm2
	vaddps	%xmm2, %xmm1, %xmm2
	vmulps	%xmm0, %xmm2, %xmm2
	vaddps	%xmm2, %xmm1, %xmm2
	vmulps	%xmm0, %xmm2, %xmm2
	vaddps	%xmm2, %xmm1, %xmm2
	vmulps	%xmm0, %xmm2, %xmm2
	vaddps	%xmm2, %xmm1, %xmm2
	vmulps	%xmm0, %xmm2, %xmm2
	vaddps	%xmm2, %xmm1, %xmm2
	vmulps	%xmm0, %xmm2, %xmm2
	vaddps	%xmm2, %xmm1, %xmm2
	vmulps	%xmm0, %xmm2, %xmm2
	vaddps	%xmm2, %xmm1, %xmm2
	vmulps	%xmm0, %xmm2, %xmm2
	vaddps	%xmm2, %xmm1, %xmm2
	vmulps	%xmm0, %xmm2, %xmm2
	vaddps	%xmm2, %xmm1, %xmm2
	vmulps	%xmm0, %xmm2, %xmm2
	vaddps	%xmm2, %xmm1, %xmm2
	vmulps	%xmm0, %xmm2, %xmm2
	vaddps	%xmm2, %xmm1, %xmm2
	vmulps	%xmm0, %xmm2, %xmm2
	vaddps	%xmm2, %xmm1, %xmm2
	vmulps	%xmm0, %xmm2, %xmm2
	vaddps	%xmm2, %xmm1, %xmm2
	vmulps	%xmm0, %xmm2, %xmm2
	vaddps	%xmm2, %xmm1, %xmm2
	vmulps	%xmm0, %xmm2, %xmm2
	vaddps	%xmm2, %xmm1, %xmm2
	vmulps	%xmm0, %xmm2, %xmm2
	vaddps	%xmm2, %xmm1, %xmm2
	vmulps	%xmm0, %xmm2, %xmm2
	vaddps	%xmm2, %xmm1, %xmm2
	vmulps	%xmm0, %xmm2, %xmm2
	vaddps	%xmm2, %xmm1, %xmm2
	vmulps	%xmm0, %xmm2, %xmm2
	vaddps	%xmm2, %xmm1, %xmm2
	vmulps	%xmm0, %xmm2, %xmm2
	vaddps	%xmm2, %xmm1, %xmm2
	vmulps	%xmm0, %xmm2, %xmm2
	vaddps	%xmm2, %xmm1, %xmm2
	vmulps	%xmm0, %xmm2, %xmm2
	vaddps	%xmm2, %xmm1, %xmm2
	vmulps	%xmm0, %xmm2, %xmm2
	vaddps	%xmm2, %xmm1, %xmm2
	vmulps	%xmm0, %xmm2, %xmm2
	vaddps	%xmm2, %xmm1, %xmm2
	vmulps	%xmm0, %xmm2, %xmm2
	vaddps	%xmm2, %xmm1, %xmm2
	vmulps	%xmm0, %xmm2, %xmm2
	vaddps	%xmm2, %xmm1, %xmm2
	vmulps	%xmm0, %xmm2, %xmm2
	vaddps	%xmm2, %xmm1, %xmm2
	vmulps	%xmm0, %xmm2, %xmm2
	vaddps	%xmm2, %xmm1, %xmm2
	vmulps	%xmm0, %xmm2, %xmm2
	vaddps	%xmm2, %xmm1, %xmm2
	vmulps	%xmm0, %xmm2, %xmm2
	vaddps	%xmm2, %xmm1, %xmm2
	vmulps	%xmm0, %xmm2, %xmm2
	vaddps	%xmm2, %xmm1, %xmm2
	vmulps	%xmm0, %xmm2, %xmm2
	vaddps	%xmm2, %xmm1, %xmm2
	vmulps	%xmm0, %xmm2, %xmm2
	vaddps	%xmm2, %xmm1, %xmm2
	vmulps	%xmm0, %xmm2, %xmm2
	vaddps	%xmm2, %xmm1, %xmm2
	vmulps	%xmm0, %xmm2, %xmm2
	vaddps	%xmm2, %xmm1, %xmm2
	vmulps	%xmm0, %xmm2, %xmm2
	vaddps	%xmm2, %xmm1, %xmm2
	vmulps	%xmm0, %xmm2, %xmm2
	vaddps	%xmm2, %xmm1, %xmm2
	vmulps	%xmm0, %xmm2, %xmm2
	vaddps	%xmm2, %xmm1, %xmm2
	vmulps	%xmm0, %xmm2, %xmm2
	vaddps	%xmm2, %xmm1, %xmm2
	vmulps	%xmm0, %xmm2, %xmm2
	vaddps	%xmm2, %xmm1, %xmm2
	vmulps	%xmm0, %xmm2, %xmm2
	vaddps	%xmm2, %xmm1, %xmm2
	vmulps	%xmm0, %xmm2, %xmm2
	vaddps	%xmm2, %xmm1, %xmm2
	vmulps	%xmm0, %xmm2, %xmm2
	vaddps	%xmm2, %xmm1, %xmm2
	vmulps	%xmm0, %xmm2, %xmm2
	vaddps	%xmm2, %xmm1, %xmm2
	vmulps	%xmm0, %xmm2, %xmm2
	vaddps	%xmm2, %xmm1, %xmm2
	vmulps	%xmm0, %xmm2, %xmm2
	vaddps	%xmm2, %xmm1, %xmm2
	vmulps	%xmm0, %xmm2, %xmm2
	vaddps	%xmm2, %xmm1, %xmm2
	vmulps	%xmm0, %xmm2, %xmm2
	vaddps	%xmm2, %xmm1, %xmm2
	vmulps	%xmm0, %xmm2, %xmm2
	vaddps	%xmm2, %xmm1, %xmm2
	vmulps	%xmm0, %xmm2, %xmm2
	vaddps	%xmm2, %xmm1, %xmm2
	vmulps	%xmm0, %xmm2, %xmm2
	vaddps	%xmm2, %xmm1, %xmm2
	vmulps	%xmm0, %xmm2, %xmm2
	vaddps	%xmm2, %xmm1, %xmm2
	vmulps	%xmm0, %xmm2, %xmm2
	vaddps	%xmm2, %xmm1, %xmm2
	vmulps	%xmm0, %xmm2, %xmm2
	vaddps	%xmm2, %xmm1, %xmm2
	vmulps	%xmm0, %xmm2, %xmm2
	vaddps	%xmm2, %xmm1, %xmm2
	vmulps	%xmm0, %xmm2, %xmm2
	vaddps	%xmm2, %xmm1, %xmm2
	vmulps	%xmm0, %xmm2, %xmm2
	vaddps	%xmm2, %xmm1, %xmm2
	vmulps	%xmm0, %xmm2, %xmm2
	vaddps	%xmm2, %xmm1, %xmm2
	vmulps	%xmm0, %xmm2, %xmm2
	vaddps	%xmm2, %xmm1, %xmm2
	vmulps	%xmm0, %xmm2, %xmm2
	vaddps	%xmm2, %xmm1, %xmm2
	vmulps	%xmm0, %xmm2, %xmm2
	vaddps	%xmm2, %xmm1, %xmm2
	vmulps	%xmm0, %xmm2, %xmm2
	vaddps	%xmm2, %xmm1, %xmm2
	vmulps	%xmm0, %xmm2, %xmm2
	vaddps	%xmm2, %xmm1, %xmm2
	vmulps	%xmm0, %xmm2, %xmm2
	vaddps	%xmm2, %xmm1, %xmm2
	vmulps	%xmm0, %xmm2, %xmm2
	vaddps	%xmm2, %xmm1, %xmm2
	vmulps	%xmm0, %xmm2, %xmm2
	vaddps	%xmm2, %xmm1, %xmm2
	vmulps	%xmm0, %xmm2, %xmm2
	vaddps	%xmm2, %xmm1, %xmm2
	vmulps	%xmm0, %xmm2, %xmm2
	vaddps	%xmm2, %xmm1, %xmm2
	vmulps	%xmm0, %xmm2, %xmm2
	vaddps	%xmm2, %xmm1, %xmm2
	vmulps	%xmm0, %xmm2, %xmm2
	vaddps	%xmm2, %xmm1, %xmm2
	vmulps	%xmm0, %xmm2, %xmm2
	vaddps	%xmm2, %xmm1, %xmm2
	vmulps	%xmm0, %xmm2, %xmm2
	vaddps	%xmm2, %xmm1, %xmm2
	vmulps	%xmm0, %xmm2, %xmm2
	vaddps	%xmm2, %xmm1, %xmm2
	vmulps	%xmm0, %xmm2, %xmm2
	vaddps	%xmm2, %xmm1, %xmm2
	vmulps	%xmm0, %xmm2, %xmm2
	vaddps	%xmm2, %xmm1, %xmm2
	vmulps	%xmm0, %xmm2, %xmm2
	vaddps	%xmm2, %xmm1, %xmm2
	vmulps	%xmm0, %xmm2, %xmm2
	vaddps	%xmm2, %xmm1, %xmm2
	vmulps	%xmm0, %xmm2, %xmm2
	vaddps	%xmm2, %xmm1, %xmm2
	vmulps	%xmm0, %xmm2, %xmm2
	vaddps	%xmm2, %xmm1, %xmm2
	vmulps	%xmm0, %xmm2, %xmm2
	vaddps	%xmm2, %xmm1, %xmm2
	vmulps	%xmm0, %xmm2, %xmm2
	vaddps	%xmm2, %xmm1, %xmm2
	vmulps	%xmm0, %xmm2, %xmm2
	vaddps	%xmm2, %xmm1, %xmm2
	vmulps	%xmm0, %xmm2, %xmm2
	vaddps	%xmm2, %xmm1, %xmm2
	vmulps	%xmm0, %xmm2, %xmm2
	vaddps	%xmm2, %xmm1, %xmm2
	vmulps	%xmm0, %xmm2, %xmm2
	vaddps	%xmm2, %xmm1, %xmm2
	vmulps	%xmm0, %xmm2, %xmm2
	vaddps	%xmm2, %xmm1, %xmm2
	vmulps	%xmm0, %xmm2, %xmm2
	vaddps	%xmm2, %xmm1, %xmm2
	vmulps	%xmm0, %xmm2, %xmm2
	vaddps	%xmm2, %xmm1, %xmm2
	vmulps	%xmm0, %xmm2, %xmm2
	vaddps	%xmm2, %xmm1, %xmm2
	vmulps	%xmm0, %xmm2, %xmm2
	vaddps	%xmm2, %xmm1, %xmm2
	vmulps	%xmm0, %xmm2, %xmm2
	vaddps	%xmm2, %xmm1, %xmm2
	vmulps	%xmm0, %xmm2, %xmm2
	vaddps	%xmm2, %xmm1, %xmm2
	vmulps	%xmm0, %xmm2, %xmm2
	vaddps	%xmm2, %xmm1, %xmm2
	vmulps	%xmm0, %xmm2, %xmm2
	vaddps	%xmm2, %xmm1, %xmm2
	vmulps	%xmm0, %xmm2, %xmm2
	vaddps	%xmm2, %xmm1, %xmm2
	vmulps	%xmm0, %xmm2, %xmm2
	vaddps	%xmm2, %xmm1, %xmm2
	vmulps	%xmm0, %xmm2, %xmm2
	vaddps	%xmm2, %xmm1, %xmm2
	vmulps	%xmm0, %xmm2, %xmm2
	vaddps	%xmm2, %xmm1, %xmm2
	vmulps	%xmm0, %xmm2, %xmm2
	vaddps	%xmm2, %xmm1, %xmm2
	vmulps	%xmm0, %xmm2, %xmm2
	vaddps	%xmm2, %xmm1, %xmm2
	vmulps	%xmm0, %xmm2, %xmm2
	vaddps	%xmm2, %xmm1, %xmm2
	vmulps	%xmm0, %xmm2, %xmm2
	vaddps	%xmm2, %xmm1, %xmm2
	vmulps	%xmm0, %xmm2, %xmm2
	vaddps	%xmm2, %xmm1, %xmm2
	vmulps	%xmm0, %xmm2, %xmm2
	vaddps	%xmm2, %xmm1, %xmm2
	vmulps	%xmm0, %xmm2, %xmm2
	vaddps	%xmm2, %xmm1, %xmm2
	vmulps	%xmm0, %xmm2, %xmm2
	vaddps	%xmm2, %xmm1, %xmm2
	vmulps	%xmm0, %xmm2, %xmm2
	vaddps	%xmm2, %xmm1, %xmm2
	vmulps	%xmm0, %xmm2, %xmm2
	vaddps	%xmm2, %xmm1, %xmm2
	vmulps	%xmm0, %xmm2, %xmm2
	vaddps	%xmm2, %xmm1, %xmm2
	vmulps	%xmm0, %xmm2, %xmm2
	vaddps	%xmm2, %xmm1, %xmm2
	vmulps	%xmm0, %xmm2, %xmm2
	vaddps	%xmm2, %xmm1, %xmm2
	vmulps	%xmm0, %xmm2, %xmm2
	vaddps	%xmm2, %xmm1, %xmm2
	vmulps	%xmm0, %xmm2, %xmm2
	vaddps	%xmm2, %xmm1, %xmm2
	vmulps	%xmm0, %xmm2, %xmm2
	vaddps	%xmm2, %xmm1, %xmm2
	vmulps	%xmm0, %xmm2, %xmm2
	vaddps	%xmm2, %xmm1, %xmm2
	vmulps	%xmm0, %xmm2, %xmm2
	vaddps	%xmm2, %xmm1, %xmm2
	vmulps	%xmm0, %xmm2, %xmm2
	vaddps	%xmm2, %xmm1, %xmm2
	vmulps	%xmm0, %xmm2, %xmm2
	vaddps	%xmm2, %xmm1, %xmm2
	vmulps	%xmm0, %xmm2, %xmm2
	vaddps	%xmm2, %xmm1, %xmm2
	vmulps	%xmm0, %xmm2, %xmm2
	vaddps	%xmm2, %xmm1, %xmm2
	vmulps	%xmm0, %xmm2, %xmm2
	vaddps	%xmm2, %xmm1, %xmm2
	vmulps	%xmm0, %xmm2, %xmm2
	vaddps	%xmm2, %xmm1, %xmm2
	vmulps	%xmm0, %xmm2, %xmm2
	vaddps	%xmm2, %xmm1, %xmm2
	vmulps	%xmm0, %xmm2, %xmm2
	vaddps	%xmm2, %xmm1, %xmm2
	vmulps	%xmm0, %xmm2, %xmm2
	vaddps	%xmm2, %xmm1, %xmm2
	vmulps	%xmm0, %xmm2, %xmm2
	vaddps	%xmm2, %xmm1, %xmm2
	vmulps	%xmm0, %xmm2, %xmm2
	vaddps	%xmm2, %xmm1, %xmm2
	vmulps	%xmm0, %xmm2, %xmm2
	vaddps	%xmm2, %xmm1, %xmm2
	vmulps	%xmm0, %xmm2, %xmm2
	vaddps	%xmm2, %xmm1, %xmm2
	vmulps	%xmm0, %xmm2, %xmm2
	vaddps	%xmm2, %xmm1, %xmm2
	vmulps	%xmm0, %xmm2, %xmm2
	vaddps	%xmm2, %xmm1, %xmm2
	vmulps	%xmm0, %xmm2, %xmm2
	vaddps	%xmm2, %xmm1, %xmm2
	vmulps	%xmm0, %xmm2, %xmm2
	vaddps	%xmm2, %xmm1, %xmm2
	vmulps	%xmm0, %xmm2, %xmm2
	vaddps	%xmm2, %xmm1, %xmm2
	vmulps	%xmm0, %xmm2, %xmm2
	vaddps	%xmm2, %xmm1, %xmm2
	vmulps	%xmm0, %xmm2, %xmm2
	vaddps	%xmm2, %xmm1, %xmm2
	vmulps	%xmm0, %xmm2, %xmm2
	vaddps	%xmm2, %xmm1, %xmm2
	vmulps	%xmm0, %xmm2, %xmm2
	vaddps	%xmm2, %xmm1, %xmm2
	vmulps	%xmm0, %xmm2, %xmm2
	vaddps	%xmm2, %xmm1, %xmm2
	vmulps	%xmm0, %xmm2, %xmm2
	vaddps	%xmm2, %xmm1, %xmm2
	vmulps	%xmm0, %xmm2, %xmm2
	vaddps	%xmm2, %xmm1, %xmm2
	vmulps	%xmm0, %xmm2, %xmm2
	vaddps	%xmm2, %xmm1, %xmm2
	vmulps	%xmm0, %xmm2, %xmm2
	vaddps	%xmm2, %xmm1, %xmm2
	vmulps	%xmm0, %xmm2, %xmm2
	vaddps	%xmm2, %xmm1, %xmm2
	vmulps	%xmm0, %xmm2, %xmm2
	vaddps	%xmm2, %xmm1, %xmm2
	vmulps	%xmm0, %xmm2, %xmm2
	vaddps	%xmm2, %xmm1, %xmm2
	vmulps	%xmm0, %xmm2, %xmm2
	vaddps	%xmm2, %xmm1, %xmm2
	vmulps	%xmm0, %xmm2, %xmm2
	vaddps	%xmm2, %xmm1, %xmm2
	vmulps	%xmm0, %xmm2, %xmm2
	vaddps	%xmm2, %xmm1, %xmm2
	vmulps	%xmm0, %xmm2, %xmm2
	vaddps	%xmm2, %xmm1, %xmm2
	vmulps	%xmm0, %xmm2, %xmm2
	vaddps	%xmm2, %xmm1, %xmm2
	vmulps	%xmm0, %xmm2, %xmm2
	vaddps	%xmm2, %xmm1, %xmm2
	vmulps	%xmm0, %xmm2, %xmm2
	vaddps	%xmm2, %xmm1, %xmm2
	vmulps	%xmm0, %xmm2, %xmm2
	vaddps	%xmm2, %xmm1, %xmm2
	vmulps	%xmm0, %xmm2, %xmm2
	vaddps	%xmm2, %xmm1, %xmm2
	vmulps	%xmm0, %xmm2, %xmm2
	vaddps	%xmm2, %xmm1, %xmm2
	vmulps	%xmm0, %xmm2, %xmm2
	vaddps	%xmm2, %xmm1, %xmm2
	vmulps	%xmm0, %xmm2, %xmm2
	vaddps	%xmm2, %xmm1, %xmm2
	vmulps	%xmm0, %xmm2, %xmm2
	vaddps	%xmm2, %xmm1, %xmm2
	vmulps	%xmm0, %xmm2, %xmm2
	vaddps	%xmm2, %xmm1, %xmm2
	vmulps	%xmm0, %xmm2, %xmm2
	vaddps	%xmm2, %xmm1, %xmm2
	vmulps	%xmm0, %xmm2, %xmm2
	vaddps	%xmm2, %xmm1, %xmm2
	vmulps	%xmm0, %xmm2, %xmm2
	vaddps	%xmm2, %xmm1, %xmm2
	vmulps	%xmm0, %xmm2, %xmm2
	vaddps	%xmm2, %xmm1, %xmm2
	vmulps	%xmm0, %xmm2, %xmm2
	vaddps	%xmm2, %xmm1, %xmm2
	vmulps	%xmm0, %xmm2, %xmm2
	vaddps	%xmm2, %xmm1, %xmm2
	vmulps	%xmm0, %xmm2, %xmm2
	vaddps	%xmm2, %xmm1, %xmm2
	vmulps	%xmm0, %xmm2, %xmm2
	vaddps	%xmm2, %xmm1, %xmm2
	vmulps	%xmm0, %xmm2, %xmm2
	vaddps	%xmm2, %xmm1, %xmm2
	vmulps	%xmm0, %xmm2, %xmm2
	vaddps	%xmm2, %xmm1, %xmm2
	vmulps	%xmm0, %xmm2, %xmm2
	vaddps	%xmm2, %xmm1, %xmm2
	vmulps	%xmm0, %xmm2, %xmm2
	vaddps	%xmm2, %xmm1, %xmm2
	vmulps	%xmm0, %xmm2, %xmm2
	vaddps	%xmm2, %xmm1, %xmm2
	vmulps	%xmm0, %xmm2, %xmm2
	vaddps	%xmm2, %xmm1, %xmm2
	vmulps	%xmm0, %xmm2, %xmm2
	vaddps	%xmm2, %xmm1, %xmm2
	vmulps	%xmm0, %xmm2, %xmm2
	vaddps	%xmm2, %xmm1, %xmm2
	vmulps	%xmm0, %xmm2, %xmm2
	vaddps	%xmm2, %xmm1, %xmm2
	vmulps	%xmm0, %xmm2, %xmm2
	vaddps	%xmm2, %xmm1, %xmm2
	vmulps	%xmm0, %xmm2, %xmm2
	vaddps	%xmm2, %xmm1, %xmm2
	vmulps	%xmm0, %xmm2, %xmm2
	vaddps	%xmm2, %xmm1, %xmm2
	vmulps	%xmm0, %xmm2, %xmm2
	vaddps	%xmm2, %xmm1, %xmm2
	vmulps	%xmm0, %xmm2, %xmm2
	vaddps	%xmm2, %xmm1, %xmm2
	vmulps	%xmm0, %xmm2, %xmm2
	vaddps	%xmm2, %xmm1, %xmm2
	vmulps	%xmm0, %xmm2, %xmm2
	vaddps	%xmm2, %xmm1, %xmm2
	vmulps	%xmm0, %xmm2, %xmm2
	vaddps	%xmm2, %xmm1, %xmm2
	vmulps	%xmm0, %xmm2, %xmm2
	vaddps	%xmm2, %xmm1, %xmm2
	vmulps	%xmm0, %xmm2, %xmm2
	vaddps	%xmm2, %xmm1, %xmm2
	vmulps	%xmm0, %xmm2, %xmm2
	vaddps	%xmm2, %xmm1, %xmm2
	vmulps	%xmm0, %xmm2, %xmm2
	vaddps	%xmm2, %xmm1, %xmm2
	vmulps	%xmm0, %xmm2, %xmm2
	vaddps	%xmm2, %xmm1, %xmm2
	vmulps	%xmm0, %xmm2, %xmm2
	vaddps	%xmm2, %xmm1, %xmm2
	vmulps	%xmm0, %xmm2, %xmm2
	vaddps	%xmm2, %xmm1, %xmm2
	vmulps	%xmm0, %xmm2, %xmm2
	vaddps	%xmm2, %xmm1, %xmm2
	vmulps	%xmm0, %xmm2, %xmm2
	vaddps	%xmm2, %xmm1, %xmm2
	vmulps	%xmm0, %xmm2, %xmm2
	vaddps	%xmm2, %xmm1, %xmm2
	vmulps	%xmm0, %xmm2, %xmm2
	vaddps	%xmm2, %xmm1, %xmm2
	vmulps	%xmm0, %xmm2, %xmm2
	vaddps	%xmm2, %xmm1, %xmm2
	vmulps	%xmm0, %xmm2, %xmm2
	vaddps	%xmm2, %xmm1, %xmm2
	vmulps	%xmm0, %xmm2, %xmm2
	vaddps	%xmm2, %xmm1, %xmm2
	vmulps	%xmm0, %xmm2, %xmm2
	vaddps	%xmm2, %xmm1, %xmm2
	vmulps	%xmm0, %xmm2, %xmm2
	vaddps	%xmm2, %xmm1, %xmm2
	vmulps	%xmm0, %xmm2, %xmm2
	vaddps	%xmm2, %xmm1, %xmm2
	vmulps	%xmm0, %xmm2, %xmm2
	vaddps	%xmm2, %xmm1, %xmm2
	vmulps	%xmm0, %xmm2, %xmm2
	vaddps	%xmm2, %xmm1, %xmm2
	vmulps	%xmm0, %xmm2, %xmm2
	vaddps	%xmm2, %xmm1, %xmm2
	vmulps	%xmm0, %xmm2, %xmm2
	vaddps	%xmm2, %xmm1, %xmm2
	vmulps	%xmm0, %xmm2, %xmm2
	vaddps	%xmm2, %xmm1, %xmm2
	vmulps	%xmm0, %xmm2, %xmm2
	vaddps	%xmm2, %xmm1, %xmm2
	vmulps	%xmm0, %xmm2, %xmm2
	vaddps	%xmm2, %xmm1, %xmm2
	vmulps	%xmm0, %xmm2, %xmm2
	vaddps	%xmm2, %xmm1, %xmm2
	vmulps	%xmm0, %xmm2, %xmm2
	vaddps	%xmm2, %xmm1, %xmm2
	vmulps	%xmm0, %xmm2, %xmm2
	vaddps	%xmm2, %xmm1, %xmm2
	vmulps	%xmm0, %xmm2, %xmm2
	vaddps	%xmm2, %xmm1, %xmm2
	vmulps	%xmm0, %xmm2, %xmm2
	vaddps	%xmm2, %xmm1, %xmm2
	vmulps	%xmm0, %xmm2, %xmm2
	vaddps	%xmm2, %xmm1, %xmm2
	vmulps	%xmm0, %xmm2, %xmm2
	vaddps	%xmm2, %xmm1, %xmm2
	vmulps	%xmm0, %xmm2, %xmm2
	vaddps	%xmm2, %xmm1, %xmm2
	vmulps	%xmm0, %xmm2, %xmm2
	vaddps	%xmm2, %xmm1, %xmm2
	vmulps	%xmm0, %xmm2, %xmm2
	vaddps	%xmm2, %xmm1, %xmm2
	vmulps	%xmm0, %xmm2, %xmm2
	vaddps	%xmm2, %xmm1, %xmm2
	vmulps	%xmm0, %xmm2, %xmm2
	vaddps	%xmm2, %xmm1, %xmm2
	vmulps	%xmm0, %xmm2, %xmm2
	vaddps	%xmm2, %xmm1, %xmm2
	vmulps	%xmm0, %xmm2, %xmm2
	vaddps	%xmm2, %xmm1, %xmm2
	vmulps	%xmm0, %xmm2, %xmm2
	vaddps	%xmm2, %xmm1, %xmm2
	vmulps	%xmm0, %xmm2, %xmm2
	vaddps	%xmm2, %xmm1, %xmm2
	vmulps	%xmm0, %xmm2, %xmm2
	vaddps	%xmm2, %xmm1, %xmm2
	vmulps	%xmm0, %xmm2, %xmm2
	vaddps	%xmm2, %xmm1, %xmm2
	vmulps	%xmm0, %xmm2, %xmm2
	vaddps	%xmm2, %xmm1, %xmm2
	vmulps	%xmm0, %xmm2, %xmm2
	vaddps	%xmm2, %xmm1, %xmm2
	vmulps	%xmm0, %xmm2, %xmm2
	vaddps	%xmm2, %xmm1, %xmm2
	vmulps	%xmm0, %xmm2, %xmm2
	vaddps	%xmm2, %xmm1, %xmm2
	vmulps	%xmm0, %xmm2, %xmm2
	vaddps	%xmm2, %xmm1, %xmm2
	vmulps	%xmm0, %xmm2, %xmm2
	vaddps	%xmm2, %xmm1, %xmm2
	vmulps	%xmm0, %xmm2, %xmm2
	vaddps	%xmm2, %xmm1, %xmm2
	vmulps	%xmm0, %xmm2, %xmm2
	vaddps	%xmm2, %xmm1, %xmm2
	vmulps	%xmm0, %xmm2, %xmm2
	vaddps	%xmm2, %xmm1, %xmm2
	vmulps	%xmm0, %xmm2, %xmm2
	vaddps	%xmm2, %xmm1, %xmm2
	vmulps	%xmm0, %xmm2, %xmm2
	vaddps	%xmm2, %xmm1, %xmm2
	vmulps	%xmm0, %xmm2, %xmm2
	vaddps	%xmm2, %xmm1, %xmm2
	vmulps	%xmm0, %xmm2, %xmm2
	vaddps	%xmm2, %xmm1, %xmm2
	vmulps	%xmm0, %xmm2, %xmm2
	vaddps	%xmm2, %xmm1, %xmm2
	vmulps	%xmm0, %xmm2, %xmm2
	vaddps	%xmm2, %xmm1, %xmm2
	vmulps	%xmm0, %xmm2, %xmm2
	vaddps	%xmm2, %xmm1, %xmm2
	vmulps	%xmm0, %xmm2, %xmm2
	vaddps	%xmm2, %xmm1, %xmm2
	vmulps	%xmm0, %xmm2, %xmm2
	vaddps	%xmm2, %xmm1, %xmm2
	vmulps	%xmm0, %xmm2, %xmm2
	vaddps	%xmm2, %xmm1, %xmm2
	vmulps	%xmm0, %xmm2, %xmm2
	vaddps	%xmm2, %xmm1, %xmm2
	vmulps	%xmm0, %xmm2, %xmm2
	vaddps	%xmm2, %xmm1, %xmm2
	vmulps	%xmm0, %xmm2, %xmm2
	vaddps	%xmm2, %xmm1, %xmm2
	vmulps	%xmm0, %xmm2, %xmm2
	vaddps	%xmm2, %xmm1, %xmm2
	vmulps	%xmm0, %xmm2, %xmm2
	vaddps	%xmm2, %xmm1, %xmm2
	vmulps	%xmm0, %xmm2, %xmm2
	vaddps	%xmm2, %xmm1, %xmm2
	vmulps	%xmm0, %xmm2, %xmm2
	vaddps	%xmm2, %xmm1, %xmm2
	vmulps	%xmm0, %xmm2, %xmm2
	vaddps	%xmm2, %xmm1, %xmm2
	vmulps	%xmm0, %xmm2, %xmm2
	vaddps	%xmm2, %xmm1, %xmm2
	vmulps	%xmm0, %xmm2, %xmm2
	vaddps	%xmm2, %xmm1, %xmm2
	vmulps	%xmm0, %xmm2, %xmm2
	vaddps	%xmm2, %xmm1, %xmm2
	vmulps	%xmm0, %xmm2, %xmm2
	vaddps	%xmm2, %xmm1, %xmm2
	vmulps	%xmm0, %xmm2, %xmm2
	vaddps	%xmm2, %xmm1, %xmm2
	vmulps	%xmm0, %xmm2, %xmm2
	vaddps	%xmm2, %xmm1, %xmm2
	vmulps	%xmm0, %xmm2, %xmm2
	vaddps	%xmm2, %xmm1, %xmm2
	vmulps	%xmm0, %xmm2, %xmm2
	vaddps	%xmm2, %xmm1, %xmm2
	vmulps	%xmm0, %xmm2, %xmm2
	vaddps	%xmm2, %xmm1, %xmm2
	vmulps	%xmm0, %xmm2, %xmm2
	vaddps	%xmm2, %xmm1, %xmm2
	vmulps	%xmm0, %xmm2, %xmm2
	vaddps	%xmm2, %xmm1, %xmm2
	vmulps	%xmm0, %xmm2, %xmm2
	vaddps	%xmm2, %xmm1, %xmm2
	vmulps	%xmm0, %xmm2, %xmm2
	vaddps	%xmm2, %xmm1, %xmm2
	vmulps	%xmm0, %xmm2, %xmm2
	vaddps	%xmm2, %xmm1, %xmm2
	vmulps	%xmm0, %xmm2, %xmm2
	vaddps	%xmm2, %xmm1, %xmm2
	vmulps	%xmm0, %xmm2, %xmm2
	vaddps	%xmm2, %xmm1, %xmm2
	vmulps	%xmm0, %xmm2, %xmm2
	vaddps	%xmm2, %xmm1, %xmm2
	vmulps	%xmm0, %xmm2, %xmm2
	vaddps	%xmm2, %xmm1, %xmm2
	vmulps	%xmm0, %xmm2, %xmm2
	vaddps	%xmm2, %xmm1, %xmm2
	vmulps	%xmm0, %xmm2, %xmm2
	vaddps	%xmm2, %xmm1, %xmm2
	vmulps	%xmm0, %xmm2, %xmm2
	vaddps	%xmm2, %xmm1, %xmm2
	vmulps	%xmm0, %xmm2, %xmm2
	vaddps	%xmm2, %xmm1, %xmm2
	vmulps	%xmm0, %xmm2, %xmm2
	vaddps	%xmm2, %xmm1, %xmm2
	vmulps	%xmm0, %xmm2, %xmm2
	vaddps	%xmm2, %xmm1, %xmm2
	vmulps	%xmm0, %xmm2, %xmm2
	vaddps	%xmm2, %xmm1, %xmm2
	vmulps	%xmm0, %xmm2, %xmm2
	vaddps	%xmm2, %xmm1, %xmm2
	vmulps	%xmm0, %xmm2, %xmm2
	vaddps	%xmm2, %xmm1, %xmm2
	vmulps	%xmm0, %xmm2, %xmm2
	vaddps	%xmm2, %xmm1, %xmm2
	vmulps	%xmm0, %xmm2, %xmm2
	vaddps	%xmm2, %xmm1, %xmm2
	vmulps	%xmm0, %xmm2, %xmm2
	vaddps	%xmm2, %xmm1, %xmm2
	vmulps	%xmm0, %xmm2, %xmm2
	vaddps	%xmm2, %xmm1, %xmm2
	vmulps	%xmm0, %xmm2, %xmm2
	vaddps	%xmm2, %xmm1, %xmm2
	vmulps	%xmm0, %xmm2, %xmm2
	vaddps	%xmm2, %xmm1, %xmm2
	vmulps	%xmm0, %xmm2, %xmm2
	vaddps	%xmm2, %xmm1, %xmm2
	vmulps	%xmm0, %xmm2, %xmm2
	vaddps	%xmm2, %xmm1, %xmm2
	vmulps	%xmm0, %xmm2, %xmm2
	vaddps	%xmm2, %xmm1, %xmm2
	vmulps	%xmm0, %xmm2, %xmm2
	vaddps	%xmm2, %xmm1, %xmm2
	vmulps	%xmm0, %xmm2, %xmm2
	vaddps	%xmm2, %xmm1, %xmm2
	vmulps	%xmm0, %xmm2, %xmm2
	vaddps	%xmm2, %xmm1, %xmm2
	vmulps	%xmm0, %xmm2, %xmm2
	vaddps	%xmm2, %xmm1, %xmm2
	vmulps	%xmm0, %xmm2, %xmm2
	vaddps	%xmm2, %xmm1, %xmm2
	vmulps	%xmm0, %xmm2, %xmm2
	vaddps	%xmm2, %xmm1, %xmm2
	vmulps	%xmm0, %xmm2, %xmm2
	vaddps	%xmm2, %xmm1, %xmm2
	vmulps	%xmm0, %xmm2, %xmm2
	vaddps	%xmm2, %xmm1, %xmm2
	vmulps	%xmm0, %xmm2, %xmm2
	vaddps	%xmm2, %xmm1, %xmm2
	vmulps	%xmm0, %xmm2, %xmm2
	vaddps	%xmm2, %xmm1, %xmm2
	vmulps	%xmm0, %xmm2, %xmm2
	vaddps	%xmm2, %xmm1, %xmm2
	vmulps	%xmm0, %xmm2, %xmm2
	vaddps	%xmm2, %xmm1, %xmm2
	vmulps	%xmm0, %xmm2, %xmm2
	vaddps	%xmm2, %xmm1, %xmm2
	vmulps	%xmm0, %xmm2, %xmm2
	vaddps	%xmm2, %xmm1, %xmm2
	vmulps	%xmm0, %xmm2, %xmm2
	vaddps	%xmm2, %xmm1, %xmm2
	vmulps	%xmm0, %xmm2, %xmm2
	vaddps	%xmm2, %xmm1, %xmm2
	vmulps	%xmm0, %xmm2, %xmm2
	vaddps	%xmm2, %xmm1, %xmm2
	vmulps	%xmm0, %xmm2, %xmm2
	vaddps	%xmm2, %xmm1, %xmm2
	vmulps	%xmm0, %xmm2, %xmm2
	vaddps	%xmm2, %xmm1, %xmm2
	vmulps	%xmm0, %xmm2, %xmm2
	vaddps	%xmm2, %xmm1, %xmm2
	vmulps	%xmm0, %xmm2, %xmm2
	vaddps	%xmm2, %xmm1, %xmm2
	vmulps	%xmm0, %xmm2, %xmm2
	vaddps	%xmm2, %xmm1, %xmm2
	vmulps	%xmm0, %xmm2, %xmm2
	vaddps	%xmm2, %xmm1, %xmm2
	vmulps	%xmm0, %xmm2, %xmm2
	vaddps	%xmm2, %xmm1, %xmm2
	vmulps	%xmm0, %xmm2, %xmm2
	vaddps	%xmm2, %xmm1, %xmm2
	vmulps	%xmm0, %xmm2, %xmm2
	vaddps	%xmm2, %xmm1, %xmm2
	vmulps	%xmm0, %xmm2, %xmm2
	vaddps	%xmm2, %xmm1, %xmm2
	vmulps	%xmm0, %xmm2, %xmm2
	vaddps	%xmm2, %xmm1, %xmm2
	vmulps	%xmm0, %xmm2, %xmm2
	vaddps	%xmm2, %xmm1, %xmm2
	vmulps	%xmm0, %xmm2, %xmm2
	vaddps	%xmm2, %xmm1, %xmm2
	vmulps	%xmm0, %xmm2, %xmm2
	vaddps	%xmm2, %xmm1, %xmm2
	vmulps	%xmm0, %xmm2, %xmm2
	vaddps	%xmm2, %xmm1, %xmm2
	vmulps	%xmm0, %xmm2, %xmm2
	vaddps	%xmm2, %xmm1, %xmm2
	vmulps	%xmm0, %xmm2, %xmm2
	vaddps	%xmm2, %xmm1, %xmm2
	vmulps	%xmm0, %xmm2, %xmm2
	vaddps	%xmm2, %xmm1, %xmm2
	vmulps	%xmm0, %xmm2, %xmm2
	vaddps	%xmm2, %xmm1, %xmm2
	vmulps	%xmm0, %xmm2, %xmm2
	vaddps	%xmm2, %xmm1, %xmm2
	vmulps	%xmm0, %xmm2, %xmm2
	vaddps	%xmm2, %xmm1, %xmm2
	vmulps	%xmm0, %xmm2, %xmm2
	vaddps	%xmm2, %xmm1, %xmm2
	vmulps	%xmm0, %xmm2, %xmm2
	vaddps	%xmm2, %xmm1, %xmm2
	vmulps	%xmm0, %xmm2, %xmm2
	vaddps	%xmm2, %xmm1, %xmm2
	vmulps	%xmm0, %xmm2, %xmm2
	vaddps	%xmm2, %xmm1, %xmm2
	vmulps	%xmm0, %xmm2, %xmm2
	vaddps	%xmm2, %xmm1, %xmm2
	vmulps	%xmm0, %xmm2, %xmm2
	vaddps	%xmm2, %xmm1, %xmm2
	vmulps	%xmm0, %xmm2, %xmm2
	vaddps	%xmm2, %xmm1, %xmm2
	vmulps	%xmm0, %xmm2, %xmm2
	vaddps	%xmm2, %xmm1, %xmm2
	vmulps	%xmm0, %xmm2, %xmm2
	vaddps	%xmm2, %xmm1, %xmm2
	vmulps	%xmm0, %xmm2, %xmm2
	vaddps	%xmm2, %xmm1, %xmm2
	vmulps	%xmm0, %xmm2, %xmm2
	vaddps	%xmm2, %xmm1, %xmm2
	vmulps	%xmm0, %xmm2, %xmm2
	vaddps	%xmm2, %xmm1, %xmm2
	vmulps	%xmm0, %xmm2, %xmm2
	vaddps	%xmm2, %xmm1, %xmm2
	vmulps	%xmm0, %xmm2, %xmm2
	vaddps	%xmm2, %xmm1, %xmm2
	vmulps	%xmm0, %xmm2, %xmm2
	vaddps	%xmm2, %xmm1, %xmm2
	vmulps	%xmm0, %xmm2, %xmm2
	vaddps	%xmm2, %xmm1, %xmm2
	vmulps	%xmm0, %xmm2, %xmm2
	vaddps	%xmm2, %xmm1, %xmm2
	vmulps	%xmm0, %xmm2, %xmm2
	vaddps	%xmm2, %xmm1, %xmm2
	vmulps	%xmm0, %xmm2, %xmm2
	vaddps	%xmm2, %xmm1, %xmm2
	vmulps	%xmm0, %xmm2, %xmm2
	vaddps	%xmm2, %xmm1, %xmm2
	vmulps	%xmm0, %xmm2, %xmm2
	vaddps	%xmm2, %xmm1, %xmm2
	vmulps	%xmm0, %xmm2, %xmm2
	vaddps	%xmm2, %xmm1, %xmm2
	vmulps	%xmm0, %xmm2, %xmm2
	vaddps	%xmm2, %xmm1, %xmm2
	vmulps	%xmm0, %xmm2, %xmm2
	vaddps	%xmm2, %xmm1, %xmm2
	vmulps	%xmm0, %xmm2, %xmm2
	vaddps	%xmm2, %xmm1, %xmm2
	vmulps	%xmm0, %xmm2, %xmm2
	vaddps	%xmm2, %xmm1, %xmm2
	vmulps	%xmm0, %xmm2, %xmm2
	vaddps	%xmm2, %xmm1, %xmm2
	vmulps	%xmm0, %xmm2, %xmm2
	vaddps	%xmm2, %xmm1, %xmm2
	vmulps	%xmm0, %xmm2, %xmm2
	vaddps	%xmm2, %xmm1, %xmm2
	vmulps	%xmm0, %xmm2, %xmm2
	vaddps	%xmm2, %xmm1, %xmm2
	vmulps	%xmm0, %xmm2, %xmm2
	vaddps	%xmm2, %xmm1, %xmm2
	vmulps	%xmm0, %xmm2, %xmm2
	vaddps	%xmm2, %xmm1, %xmm2
	vmulps	%xmm0, %xmm2, %xmm2
	vaddps	%xmm2, %xmm1, %xmm2
	vmulps	%xmm0, %xmm2, %xmm2
	vaddps	%xmm2, %xmm1, %xmm2
	vmulps	%xmm0, %xmm2, %xmm2
	vaddps	%xmm2, %xmm1, %xmm2
	vmulps	%xmm0, %xmm2, %xmm2
	vaddps	%xmm2, %xmm1, %xmm2
	vmulps	%xmm0, %xmm2, %xmm2
	vaddps	%xmm2, %xmm1, %xmm2
	vmulps	%xmm0, %xmm2, %xmm2
	vaddps	%xmm2, %xmm1, %xmm2
	vmulps	%xmm0, %xmm2, %xmm2
	vaddps	%xmm2, %xmm1, %xmm2
	vmulps	%xmm0, %xmm2, %xmm2
	vaddps	%xmm2, %xmm1, %xmm2
	vmulps	%xmm0, %xmm2, %xmm2
	vaddps	%xmm2, %xmm1, %xmm2
	vmulps	%xmm0, %xmm2, %xmm2
	vaddps	%xmm2, %xmm1, %xmm2
	vmulps	%xmm0, %xmm2, %xmm2
	vaddps	%xmm2, %xmm1, %xmm2
	vmulps	%xmm0, %xmm2, %xmm2
	vaddps	%xmm2, %xmm1, %xmm2
	vmulps	%xmm0, %xmm2, %xmm2
	vaddps	%xmm2, %xmm1, %xmm2
	vmulps	%xmm0, %xmm2, %xmm2
	vaddps	%xmm2, %xmm1, %xmm2
	vmulps	%xmm0, %xmm2, %xmm2
	vaddps	%xmm2, %xmm1, %xmm2
	vmulps	%xmm0, %xmm2, %xmm2
	vaddps	%xmm2, %xmm1, %xmm2
	vmulps	%xmm0, %xmm2, %xmm2
	vaddps	%xmm2, %xmm1, %xmm2
	vmulps	%xmm0, %xmm2, %xmm2
	vaddps	%xmm2, %xmm1, %xmm2
	vmulps	%xmm0, %xmm2, %xmm2
	vaddps	%xmm2, %xmm1, %xmm2
	vmulps	%xmm0, %xmm2, %xmm2
	vaddps	%xmm2, %xmm1, %xmm2
	vmulps	%xmm0, %xmm2, %xmm2
	vaddps	%xmm2, %xmm1, %xmm2
	vmulps	%xmm0, %xmm2, %xmm2
	vaddps	%xmm2, %xmm1, %xmm2
	vmulps	%xmm0, %xmm2, %xmm2
	vaddps	%xmm2, %xmm1, %xmm2
	vmulps	%xmm0, %xmm2, %xmm2
	vaddps	%xmm2, %xmm1, %xmm2
	vmulps	%xmm0, %xmm2, %xmm2
	vaddps	%xmm2, %xmm1, %xmm2
	vmulps	%xmm0, %xmm2, %xmm2
	vaddps	%xmm2, %xmm1, %xmm2
	vmulps	%xmm0, %xmm2, %xmm2
	vaddps	%xmm2, %xmm1, %xmm2
	vmulps	%xmm0, %xmm2, %xmm2
	vaddps	%xmm2, %xmm1, %xmm2
	vmulps	%xmm0, %xmm2, %xmm2
	vaddps	%xmm2, %xmm1, %xmm2
	vmulps	%xmm0, %xmm2, %xmm2
	vaddps	%xmm2, %xmm1, %xmm2
	vmulps	%xmm0, %xmm2, %xmm2
	vaddps	%xmm2, %xmm1, %xmm2
	vmulps	%xmm0, %xmm2, %xmm2
	vaddps	%xmm2, %xmm1, %xmm2
	vmulps	%xmm0, %xmm2, %xmm2
	vaddps	%xmm2, %xmm1, %xmm2
	vmulps	%xmm0, %xmm2, %xmm2
	vaddps	%xmm2, %xmm1, %xmm2
	vmulps	%xmm0, %xmm2, %xmm2
	vaddps	%xmm2, %xmm1, %xmm2
	vmulps	%xmm0, %xmm2, %xmm2
	vaddps	%xmm2, %xmm1, %xmm2
	vmulps	%xmm0, %xmm2, %xmm2
	vaddps	%xmm2, %xmm1, %xmm2
	vmulps	%xmm0, %xmm2, %xmm2
	vaddps	%xmm2, %xmm1, %xmm2
	vmulps	%xmm0, %xmm2, %xmm2
	vaddps	%xmm2, %xmm1, %xmm2
	vmulps	%xmm0, %xmm2, %xmm2
	vaddps	%xmm2, %xmm1, %xmm2
	vmulps	%xmm0, %xmm2, %xmm2
	vaddps	%xmm2, %xmm1, %xmm2
	vmulps	%xmm0, %xmm2, %xmm2
	vaddps	%xmm2, %xmm1, %xmm2
	vmulps	%xmm0, %xmm2, %xmm2
	vaddps	%xmm2, %xmm1, %xmm2
	vmulps	%xmm0, %xmm2, %xmm2
	vaddps	%xmm2, %xmm1, %xmm2
	vmulps	%xmm0, %xmm2, %xmm2
	vaddps	%xmm2, %xmm1, %xmm2
	vmulps	%xmm0, %xmm2, %xmm2
	vaddps	%xmm2, %xmm1, %xmm2
	vmulps	%xmm0, %xmm2, %xmm2
	vaddps	%xmm2, %xmm1, %xmm2
	vmulps	%xmm0, %xmm2, %xmm2
	vaddps	%xmm2, %xmm1, %xmm2
	vmulps	%xmm0, %xmm2, %xmm2
	vaddps	%xmm2, %xmm1, %xmm2
	vmulps	%xmm0, %xmm2, %xmm2
	vaddps	%xmm2, %xmm1, %xmm2
	vmulps	%xmm0, %xmm2, %xmm2
	vaddps	%xmm2, %xmm1, %xmm2
	vmulps	%xmm0, %xmm2, %xmm2
	vaddps	%xmm2, %xmm1, %xmm2
	vmulps	%xmm0, %xmm2, %xmm2
	vaddps	%xmm2, %xmm1, %xmm2
	vmulps	%xmm0, %xmm2, %xmm2
	vaddps	%xmm2, %xmm1, %xmm2
	vmulps	%xmm0, %xmm2, %xmm2
	vaddps	%xmm2, %xmm1, %xmm2
	vmulps	%xmm0, %xmm2, %xmm2
	vaddps	%xmm2, %xmm1, %xmm2
	vmulps	%xmm0, %xmm2, %xmm2
	vaddps	%xmm2, %xmm1, %xmm2
	vmulps	%xmm0, %xmm2, %xmm2
	vaddps	%xmm2, %xmm1, %xmm2
	vmulps	%xmm0, %xmm2, %xmm2
	vaddps	%xmm2, %xmm1, %xmm2
	vmulps	%xmm0, %xmm2, %xmm2
	vaddps	%xmm2, %xmm1, %xmm2
	jne	.LBB0_11
.LBB0_12:                               # %._crit_edge.i
                                        #   in Loop: Header=BB0_10 Depth=2
	movlps	%xmm2, (%rsi,%rax,4)
	incq	%rbx
	incq	%rdi
	cmpq	%r14, %rdi
	jne	.LBB0_10
# BB#13:                                # %dim_0_exit.i
                                        #   in Loop: Header=BB0_9 Depth=1
	incq	%r11
	incq	%r8
	cmpq	176(%rsp), %r8          # 8-byte Folded Reload
	jne	.LBB0_9
.LBB0_14:                               # %__flops_2_separated_args.exit
	addq	$280, %rsp              # imm = 0x118
	popq	%rbx
	popq	%r12
	popq	%r13
	popq	%r14
	popq	%r15
	movq	%rbp, %rsp
	popq	%rbp
	vzeroupper
	ret
.Ltmp12:
	.size	flops_2, .Ltmp12-flops_2
.Ltmp13:
	.cfi_endproc
.Leh_func_end0:

	.section	.rodata,"a",@progbits
	.align	32
.LCPI1_0:
	.quad	4                       # 0x4
	.quad	5                       # 0x5
	.quad	6                       # 0x6
	.quad	7                       # 0x7
.LCPI1_1:
	.quad	0                       # 0x0
	.quad	1                       # 0x1
	.quad	2                       # 0x2
	.quad	3                       # 0x3
	.text
	.globl	flops_8
	.align	16, 0x90
	.type	flops_8,@function
flops_8:                                # @flops_8
.Ltmp17:
	.cfi_startproc
# BB#0:                                 # %entry
	pushq	%rbp
.Ltmp18:
	.cfi_def_cfa_offset 16
.Ltmp19:
	.cfi_offset %rbp, -16
	movq	%rsp, %rbp
.Ltmp20:
	.cfi_def_cfa_register %rbp
	andq	$-32, %rsp
	pushq	%r15
	pushq	%r14
	pushq	%r13
	pushq	%r12
	pushq	%rbx
	subq	$376, %rsp              # imm = 0x178
.Ltmp21:
	.cfi_offset %rbx, -56
.Ltmp22:
	.cfi_offset %r12, -48
.Ltmp23:
	.cfi_offset %r13, -40
.Ltmp24:
	.cfi_offset %r14, -32
.Ltmp25:
	.cfi_offset %r15, -24
	vmovss	28(%rdi), %xmm0
	vmovaps	%ymm0, 32(%rsp)         # 32-byte Spill
	movq	48(%rdi), %rax
	vmovss	24(%rdi), %xmm0
	vmovaps	%ymm0, 64(%rsp)         # 32-byte Spill
	movl	20(%rdi), %r12d
	movl	16(%rdi), %ecx
	movl	%ecx, 188(%rsp)         # 4-byte Spill
	movq	(%rdi), %r13
	movq	8(%rdi), %r9
	movq	(%rax), %rcx
	movq	%rcx, 120(%rsp)         # 8-byte Spill
	movq	8(%rax), %rax
	movq	%rax, 112(%rsp)         # 8-byte Spill
	movq	32(%rdi), %rax
	movq	56(%rax), %rdx
	movq	%rdx, 24(%rsp)          # 8-byte Spill
	movq	64(%rax), %rax
	movq	%rax, 176(%rsp)         # 8-byte Spill
	sarq	$3, %rdx
	testq	%rdx, %rdx
	je	.LBB1_7
# BB#1:                                 # %dim_1_vector_pre_head.i
	vmovdqa	.LCPI1_0(%rip), %ymm1
	vmovq	120(%rsp), %xmm0        # 8-byte Folded Reload
	vmovlhps	%xmm0, %xmm0, %xmm0 # xmm0 = xmm0[0,0]
	vpaddq	%xmm1, %xmm0, %xmm2
	vextractf128	$1, %ymm1, %xmm1
	vpsllq	$3, %xmm2, %xmm2
	vpaddq	%xmm1, %xmm0, %xmm1
	vpsllq	$3, %xmm1, %xmm3
	vmovaps	.LCPI1_1(%rip), %ymm1
	vextractf128	$1, %ymm1, %xmm4
	vpaddq	%xmm4, %xmm0, %xmm4
	vpsllq	$3, %xmm4, %xmm4
	vpshufd	$8, %xmm3, %xmm3        # xmm3 = xmm3[0,2,0,0]
	vpshufd	$8, %xmm2, %xmm5        # xmm5 = xmm2[0,2,0,0]
	vmovaps	32(%rsp), %ymm2         # 32-byte Reload
	vinsertf128	$1, %xmm2, %ymm2, %ymm2
	vmovlhps	%xmm3, %xmm5, %xmm3 # xmm3 = xmm5[0],xmm3[0]
	vpshufd	$8, %xmm4, %xmm4        # xmm4 = xmm4[0,2,0,0]
	vpaddq	%xmm1, %xmm0, %xmm0
	vpsllq	$3, %xmm0, %xmm0
	vpshufd	$8, %xmm0, %xmm0        # xmm0 = xmm0[0,2,0,0]
	vmovlhps	%xmm4, %xmm0, %xmm0 # xmm0 = xmm0[0],xmm4[0]
	vinsertf128	$1, %xmm3, %ymm0, %ymm0
	vmovaps	%ymm0, 128(%rsp)        # 32-byte Spill
	vpermilps	$0, %ymm2, %ymm3 # ymm3 = ymm2[0,0,0,0,4,4,4,4]
	vmovaps	64(%rsp), %ymm0         # 32-byte Reload
	vinsertf128	$1, %xmm0, %ymm0, %ymm0
	vpermilps	$0, %ymm0, %ymm4 # ymm4 = ymm0[0,0,0,0,4,4,4,4]
	xorl	%eax, %eax
	movq	112(%rsp), %rcx         # 8-byte Reload
	.align	16, 0x90
.LBB1_2:                                # %dim_0_vector_pre_head.i
                                        # =>This Loop Header: Depth=1
                                        #     Child Loop BB1_3 Depth 2
                                        #       Child Loop BB1_4 Depth 3
	movq	%rcx, 160(%rsp)         # 8-byte Spill
	movq	%rax, 168(%rsp)         # 8-byte Spill
	movl	%ecx, %eax
	imull	188(%rsp), %eax         # 4-byte Folded Reload
	vmovd	%eax, %xmm0
	vinsertf128	$1, %xmm0, %ymm0, %ymm0
	vpermilps	$0, %ymm0, %ymm0 # ymm0 = ymm0[0,0,0,0,4,4,4,4]
	vmovaps	128(%rsp), %ymm1        # 32-byte Reload
	vextractf128	$1, %ymm1, %xmm2
	vextractf128	$1, %ymm0, %xmm5
	vpaddd	%xmm1, %xmm0, %xmm1
	vpmovsxdq	%xmm1, %xmm0
	vmovd	%xmm0, %rcx
	vpextrq	$1, %xmm0, %rax
	subq	%rcx, %rax
	shlq	$3, %rax
	vmovd	%rax, %xmm6
	vmovlhps	%xmm6, %xmm6, %xmm6 # xmm6 = xmm6[0,0]
	vpaddd	%xmm2, %xmm5, %xmm5
	vpmovsxdq	%xmm5, %xmm2
	vmovhlps	%xmm5, %xmm5, %xmm5 # xmm5 = xmm5[1,1]
	vpmovsxdq	%xmm5, %xmm5
	vinsertf128	$1, %xmm6, %ymm6, %ymm6
	vmovaps	%ymm6, 192(%rsp)        # 32-byte Spill
	vinsertf128	$1, %xmm5, %ymm2, %ymm2
	vmovhlps	%xmm1, %xmm1, %xmm1 # xmm1 = xmm1[1,1]
	vpmovsxdq	%xmm1, %xmm1
	vinsertf128	$1, %xmm1, %ymm0, %ymm13
	xorl	%ebx, %ebx
	.align	16, 0x90
.LBB1_3:                                #   Parent Loop BB1_2 Depth=1
                                        # =>  This Loop Header: Depth=2
                                        #       Child Loop BB1_4 Depth 3
	vmovaps	%ymm2, 288(%rsp)        # 32-byte Spill
	vmovaps	%ymm13, 320(%rsp)       # 32-byte Spill
	vextractf128	$1, %ymm13, %xmm0
	vmovaps	%xmm0, 256(%rsp)        # 16-byte Spill
	vmovd	%xmm0, %r11
	vmovups	(%r13,%r11,4), %ymm8
	vextractf128	$1, %ymm2, %xmm1
	vmovaps	%xmm1, 272(%rsp)        # 16-byte Spill
	vmovd	%xmm1, %rcx
	vmovups	(%r13,%rcx,4), %ymm9
	vmovd	%xmm2, %rdi
	vmovd	%xmm13, %r14
	vperm2f128	$49, %ymm9, %ymm8, %ymm11 # ymm11 = ymm8[2,3],ymm9[2,3]
	vmovups	(%r13,%r14,4), %ymm10
	vmovups	(%r13,%rdi,4), %ymm12
	vpextrq	$1, %xmm0, %r10
	vmovups	(%r13,%r10,4), %ymm0
	vpextrq	$1, %xmm1, %r8
	vmovups	(%r13,%r8,4), %ymm1
	vperm2f128	$49, %ymm1, %ymm0, %ymm5 # ymm5 = ymm0[2,3],ymm1[2,3]
	vpextrq	$1, %xmm2, %rsi
	vperm2f128	$49, %ymm12, %ymm10, %ymm6 # ymm6 = ymm10[2,3],ymm12[2,3]
	vpextrq	$1, %xmm13, %r15
	vshufps	$-18, %ymm11, %ymm6, %ymm2 # ymm2 = ymm6[2,3],ymm11[2,3],ymm6[6,7],ymm11[6,7]
	vshufps	$68, %ymm11, %ymm6, %ymm11 # ymm11 = ymm6[0,1],ymm11[0,1],ymm6[4,5],ymm11[4,5]
	vmovups	(%r13,%r15,4), %ymm6
	vmovups	(%r13,%rsi,4), %ymm7
	vperm2f128	$49, %ymm7, %ymm6, %ymm13 # ymm13 = ymm6[2,3],ymm7[2,3]
	vshufps	$-18, %ymm5, %ymm13, %ymm14 # ymm14 = ymm13[2,3],ymm5[2,3],ymm13[6,7],ymm5[6,7]
	vshufps	$68, %ymm5, %ymm13, %ymm13 # ymm13 = ymm13[0,1],ymm5[0,1],ymm13[4,5],ymm5[4,5]
	vperm2f128	$32, %ymm1, %ymm0, %ymm1 # ymm1 = ymm0[0,1],ymm1[0,1]
	vperm2f128	$32, %ymm7, %ymm6, %ymm6 # ymm6 = ymm6[0,1],ymm7[0,1]
	vperm2f128	$32, %ymm9, %ymm8, %ymm9 # ymm9 = ymm8[0,1],ymm9[0,1]
	vmovsldup	%ymm14, %ymm7
	vperm2f128	$32, %ymm12, %ymm10, %ymm0 # ymm0 = ymm10[0,1],ymm12[0,1]
	vmovshdup	%ymm2, %ymm5
	vblendps	$170, %ymm14, %ymm5, %ymm12
	vshufps	$-18, %ymm1, %ymm6, %ymm5 # ymm5 = ymm6[2,3],ymm1[2,3],ymm6[6,7],ymm1[6,7]
	vblendps	$170, %ymm7, %ymm2, %ymm10
	vmovsldup	%ymm13, %ymm7
	vshufps	$68, %ymm1, %ymm6, %ymm1 # ymm1 = ymm6[0,1],ymm1[0,1],ymm6[4,5],ymm1[4,5]
	vmovshdup	%ymm11, %ymm2
	vblendps	$170, %ymm13, %ymm2, %ymm8
	vshufps	$-18, %ymm9, %ymm0, %ymm2 # ymm2 = ymm0[2,3],ymm9[2,3],ymm0[6,7],ymm9[6,7]
	vblendps	$170, %ymm7, %ymm11, %ymm11
	vmovshdup	%ymm2, %ymm6
	vblendps	$170, %ymm5, %ymm6, %ymm13
	vmovsldup	%ymm5, %ymm5
	testl	%r12d, %r12d
	vblendps	$170, %ymm5, %ymm2, %ymm15
	vmovsldup	%ymm1, %ymm2
	vshufps	$68, %ymm9, %ymm0, %ymm0 # ymm0 = ymm0[0,1],ymm9[0,1],ymm0[4,5],ymm9[4,5]
	vmovshdup	%ymm0, %ymm5
	vblendps	$170, %ymm1, %ymm5, %ymm14
	vblendps	$170, %ymm2, %ymm0, %ymm9
	movl	%r12d, %eax
	jle	.LBB1_5
	.align	16, 0x90
.LBB1_4:                                # %.lr.phvector_func.i
                                        #   Parent Loop BB1_2 Depth=1
                                        #     Parent Loop BB1_3 Depth=2
                                        # =>    This Inner Loop Header: Depth=3
	vmulps	%ymm3, %ymm8, %ymm0
	vaddps	%ymm0, %ymm4, %ymm0
	vmulps	%ymm3, %ymm0, %ymm0
	vaddps	%ymm0, %ymm4, %ymm1
	vmulps	%ymm3, %ymm9, %ymm0
	vaddps	%ymm0, %ymm4, %ymm0
	vmulps	%ymm3, %ymm1, %ymm2
	vmulps	%ymm3, %ymm12, %ymm1
	vaddps	%ymm1, %ymm4, %ymm1
	vmulps	%ymm3, %ymm1, %ymm1
	vaddps	%ymm1, %ymm4, %ymm9
	vmulps	%ymm3, %ymm15, %ymm1
	vaddps	%ymm2, %ymm4, %ymm2
	vmulps	%ymm3, %ymm0, %ymm0
	vmulps	%ymm3, %ymm13, %ymm5
	vaddps	%ymm5, %ymm4, %ymm5
	vmulps	%ymm3, %ymm5, %ymm5
	vaddps	%ymm5, %ymm4, %ymm6
	vaddps	%ymm0, %ymm4, %ymm5
	vmulps	%ymm3, %ymm2, %ymm0
	vmulps	%ymm3, %ymm11, %ymm2
	vaddps	%ymm2, %ymm4, %ymm2
	vmulps	%ymm3, %ymm2, %ymm8
	vaddps	%ymm0, %ymm4, %ymm0
	vaddps	%ymm1, %ymm4, %ymm2
	vmulps	%ymm3, %ymm9, %ymm9
	vmulps	%ymm3, %ymm6, %ymm11
	vmulps	%ymm3, %ymm5, %ymm5
	vmulps	%ymm3, %ymm14, %ymm1
	vaddps	%ymm1, %ymm4, %ymm1
	vmulps	%ymm3, %ymm1, %ymm1
	vaddps	%ymm1, %ymm4, %ymm1
	vmulps	%ymm3, %ymm1, %ymm1
	vaddps	%ymm5, %ymm4, %ymm6
	vaddps	%ymm11, %ymm4, %ymm5
	decl	%eax
	vaddps	%ymm9, %ymm4, %ymm12
	vmulps	%ymm3, %ymm5, %ymm11
	vmulps	%ymm3, %ymm2, %ymm2
	vmulps	%ymm3, %ymm0, %ymm0
	vaddps	%ymm0, %ymm4, %ymm5
	vaddps	%ymm8, %ymm4, %ymm0
	vmulps	%ymm3, %ymm6, %ymm8
	vaddps	%ymm1, %ymm4, %ymm9
	vmulps	%ymm3, %ymm12, %ymm1
	vaddps	%ymm1, %ymm4, %ymm1
	vmulps	%ymm3, %ymm1, %ymm1
	vaddps	%ymm1, %ymm4, %ymm1
	vmulps	%ymm3, %ymm1, %ymm1
	vaddps	%ymm1, %ymm4, %ymm1
	vmulps	%ymm3, %ymm1, %ymm6
	vmulps	%ymm3, %ymm5, %ymm5
	vaddps	%ymm8, %ymm4, %ymm1
	vmulps	%ymm3, %ymm1, %ymm1
	vaddps	%ymm1, %ymm4, %ymm1
	vaddps	%ymm2, %ymm4, %ymm2
	vmulps	%ymm3, %ymm2, %ymm13
	vmulps	%ymm3, %ymm1, %ymm1
	vmulps	%ymm3, %ymm0, %ymm8
	vaddps	%ymm5, %ymm4, %ymm0
	vaddps	%ymm6, %ymm4, %ymm2
	vaddps	%ymm11, %ymm4, %ymm5
	vmulps	%ymm3, %ymm5, %ymm5
	vaddps	%ymm5, %ymm4, %ymm5
	vmulps	%ymm3, %ymm5, %ymm5
	vaddps	%ymm5, %ymm4, %ymm5
	vmulps	%ymm3, %ymm5, %ymm11
	vmulps	%ymm3, %ymm2, %ymm12
	vmulps	%ymm3, %ymm0, %ymm2
	vaddps	%ymm1, %ymm4, %ymm14
	vmulps	%ymm3, %ymm9, %ymm0
	vaddps	%ymm13, %ymm4, %ymm1
	vmulps	%ymm3, %ymm10, %ymm5
	vaddps	%ymm5, %ymm4, %ymm5
	vmulps	%ymm3, %ymm5, %ymm5
	vaddps	%ymm5, %ymm4, %ymm5
	vmulps	%ymm3, %ymm5, %ymm5
	vaddps	%ymm5, %ymm4, %ymm5
	vmulps	%ymm3, %ymm5, %ymm9
	vmulps	%ymm3, %ymm1, %ymm6
	vaddps	%ymm0, %ymm4, %ymm0
	vmulps	%ymm3, %ymm0, %ymm0
	vaddps	%ymm0, %ymm4, %ymm0
	vmulps	%ymm3, %ymm14, %ymm13
	vaddps	%ymm2, %ymm4, %ymm1
	vaddps	%ymm12, %ymm4, %ymm5
	vaddps	%ymm11, %ymm4, %ymm10
	vaddps	%ymm6, %ymm4, %ymm2
	vmulps	%ymm3, %ymm2, %ymm2
	vaddps	%ymm2, %ymm4, %ymm2
	vmulps	%ymm3, %ymm2, %ymm2
	vaddps	%ymm9, %ymm4, %ymm6
	vmulps	%ymm3, %ymm10, %ymm7
	vaddps	%ymm7, %ymm4, %ymm7
	vmulps	%ymm3, %ymm7, %ymm7
	vaddps	%ymm7, %ymm4, %ymm12
	vmulps	%ymm3, %ymm5, %ymm9
	vmulps	%ymm3, %ymm1, %ymm10
	vaddps	%ymm13, %ymm4, %ymm11
	vmulps	%ymm3, %ymm0, %ymm13
	vaddps	%ymm8, %ymm4, %ymm0
	vmulps	%ymm3, %ymm6, %ymm1
	vaddps	%ymm1, %ymm4, %ymm1
	vmulps	%ymm3, %ymm1, %ymm1
	vaddps	%ymm1, %ymm4, %ymm1
	vmulps	%ymm3, %ymm1, %ymm1
	vaddps	%ymm2, %ymm4, %ymm2
	vmulps	%ymm3, %ymm2, %ymm2
	vmulps	%ymm3, %ymm0, %ymm0
	vaddps	%ymm0, %ymm4, %ymm0
	vmulps	%ymm3, %ymm0, %ymm0
	vaddps	%ymm0, %ymm4, %ymm0
	vaddps	%ymm2, %ymm4, %ymm14
	vaddps	%ymm1, %ymm4, %ymm15
	vaddps	%ymm13, %ymm4, %ymm8
	vmulps	%ymm3, %ymm12, %ymm1
	vaddps	%ymm1, %ymm4, %ymm1
	vmulps	%ymm3, %ymm1, %ymm1
	vmulps	%ymm3, %ymm11, %ymm2
	vaddps	%ymm2, %ymm4, %ymm2
	vmulps	%ymm3, %ymm2, %ymm2
	vaddps	%ymm2, %ymm4, %ymm11
	vaddps	%ymm1, %ymm4, %ymm2
	vaddps	%ymm10, %ymm4, %ymm10
	vaddps	%ymm9, %ymm4, %ymm1
	vmulps	%ymm3, %ymm15, %ymm5
	vmulps	%ymm3, %ymm14, %ymm6
	vmulps	%ymm3, %ymm0, %ymm0
	vaddps	%ymm0, %ymm4, %ymm0
	vmulps	%ymm3, %ymm0, %ymm0
	vaddps	%ymm0, %ymm4, %ymm0
	vmulps	%ymm3, %ymm0, %ymm0
	vaddps	%ymm0, %ymm4, %ymm0
	vmulps	%ymm3, %ymm0, %ymm12
	vaddps	%ymm6, %ymm4, %ymm0
	vaddps	%ymm5, %ymm4, %ymm13
	vmulps	%ymm3, %ymm1, %ymm1
	vmulps	%ymm3, %ymm10, %ymm5
	vmulps	%ymm3, %ymm2, %ymm2
	vmulps	%ymm3, %ymm11, %ymm6
	vmulps	%ymm3, %ymm8, %ymm7
	vaddps	%ymm7, %ymm4, %ymm7
	vmulps	%ymm3, %ymm7, %ymm7
	vaddps	%ymm7, %ymm4, %ymm7
	vmulps	%ymm3, %ymm7, %ymm7
	vaddps	%ymm7, %ymm4, %ymm8
	vaddps	%ymm6, %ymm4, %ymm11
	vaddps	%ymm2, %ymm4, %ymm10
	vaddps	%ymm5, %ymm4, %ymm9
	vaddps	%ymm1, %ymm4, %ymm2
	vmulps	%ymm3, %ymm13, %ymm13
	vmulps	%ymm3, %ymm0, %ymm0
	vaddps	%ymm12, %ymm4, %ymm1
	vmulps	%ymm3, %ymm1, %ymm1
	vaddps	%ymm1, %ymm4, %ymm1
	vmulps	%ymm3, %ymm1, %ymm1
	vaddps	%ymm1, %ymm4, %ymm1
	vmulps	%ymm3, %ymm1, %ymm1
	vaddps	%ymm1, %ymm4, %ymm5
	vaddps	%ymm0, %ymm4, %ymm0
	vmulps	%ymm3, %ymm0, %ymm0
	vaddps	%ymm0, %ymm4, %ymm1
	vaddps	%ymm13, %ymm4, %ymm12
	vmulps	%ymm3, %ymm5, %ymm5
	vmulps	%ymm3, %ymm2, %ymm0
	vaddps	%ymm0, %ymm4, %ymm0
	vmulps	%ymm3, %ymm0, %ymm0
	vmulps	%ymm3, %ymm9, %ymm9
	vmulps	%ymm3, %ymm10, %ymm10
	vmulps	%ymm3, %ymm11, %ymm11
	vmulps	%ymm3, %ymm8, %ymm8
	vaddps	%ymm5, %ymm4, %ymm2
	vmulps	%ymm3, %ymm2, %ymm2
	vmulps	%ymm3, %ymm1, %ymm1
	vaddps	%ymm1, %ymm4, %ymm1
	vmulps	%ymm3, %ymm1, %ymm1
	vaddps	%ymm1, %ymm4, %ymm1
	vmulps	%ymm3, %ymm1, %ymm1
	vaddps	%ymm1, %ymm4, %ymm1
	vaddps	%ymm2, %ymm4, %ymm5
	vaddps	%ymm0, %ymm4, %ymm0
	vmulps	%ymm3, %ymm12, %ymm2
	vaddps	%ymm2, %ymm4, %ymm2
	vmulps	%ymm3, %ymm2, %ymm2
	vaddps	%ymm2, %ymm4, %ymm2
	vmulps	%ymm3, %ymm2, %ymm2
	vaddps	%ymm2, %ymm4, %ymm2
	vmulps	%ymm3, %ymm2, %ymm2
	vmulps	%ymm3, %ymm0, %ymm13
	vaddps	%ymm11, %ymm4, %ymm12
	vmulps	%ymm3, %ymm5, %ymm5
	vmulps	%ymm3, %ymm1, %ymm0
	vaddps	%ymm10, %ymm4, %ymm1
	vaddps	%ymm9, %ymm4, %ymm6
	vmulps	%ymm3, %ymm6, %ymm6
	vaddps	%ymm6, %ymm4, %ymm6
	vmulps	%ymm3, %ymm6, %ymm6
	vaddps	%ymm6, %ymm4, %ymm10
	vmulps	%ymm3, %ymm1, %ymm11
	vaddps	%ymm0, %ymm4, %ymm0
	vmulps	%ymm3, %ymm12, %ymm1
	vaddps	%ymm5, %ymm4, %ymm12
	vaddps	%ymm13, %ymm4, %ymm6
	vaddps	%ymm2, %ymm4, %ymm5
	vaddps	%ymm8, %ymm4, %ymm2
	vmulps	%ymm3, %ymm2, %ymm2
	vaddps	%ymm2, %ymm4, %ymm2
	vmulps	%ymm3, %ymm2, %ymm2
	vaddps	%ymm2, %ymm4, %ymm2
	vmulps	%ymm3, %ymm2, %ymm2
	vmulps	%ymm3, %ymm5, %ymm5
	vaddps	%ymm1, %ymm4, %ymm14
	vmulps	%ymm3, %ymm6, %ymm1
	vaddps	%ymm1, %ymm4, %ymm1
	vmulps	%ymm3, %ymm1, %ymm9
	vmulps	%ymm3, %ymm12, %ymm8
	vmulps	%ymm3, %ymm0, %ymm13
	vaddps	%ymm11, %ymm4, %ymm11
	vmulps	%ymm3, %ymm10, %ymm1
	vmulps	%ymm3, %ymm14, %ymm0
	vaddps	%ymm5, %ymm4, %ymm5
	vmulps	%ymm3, %ymm5, %ymm5
	vaddps	%ymm5, %ymm4, %ymm5
	vmulps	%ymm3, %ymm5, %ymm5
	vaddps	%ymm5, %ymm4, %ymm5
	vaddps	%ymm2, %ymm4, %ymm2
	vmulps	%ymm3, %ymm2, %ymm12
	vaddps	%ymm0, %ymm4, %ymm0
	vaddps	%ymm1, %ymm4, %ymm14
	vmulps	%ymm3, %ymm5, %ymm1
	vaddps	%ymm1, %ymm4, %ymm1
	vmulps	%ymm3, %ymm1, %ymm2
	vmulps	%ymm3, %ymm11, %ymm1
	vaddps	%ymm2, %ymm4, %ymm2
	vaddps	%ymm13, %ymm4, %ymm5
	vmulps	%ymm3, %ymm5, %ymm5
	vaddps	%ymm5, %ymm4, %ymm5
	vmulps	%ymm3, %ymm5, %ymm5
	vaddps	%ymm5, %ymm4, %ymm10
	vmulps	%ymm3, %ymm2, %ymm11
	vaddps	%ymm8, %ymm4, %ymm8
	vaddps	%ymm9, %ymm4, %ymm9
	vaddps	%ymm1, %ymm4, %ymm2
	vmulps	%ymm3, %ymm14, %ymm1
	vmulps	%ymm3, %ymm0, %ymm0
	vaddps	%ymm12, %ymm4, %ymm5
	vmulps	%ymm3, %ymm5, %ymm5
	vaddps	%ymm5, %ymm4, %ymm5
	vmulps	%ymm3, %ymm5, %ymm5
	vaddps	%ymm5, %ymm4, %ymm5
	vmulps	%ymm3, %ymm5, %ymm5
	vaddps	%ymm5, %ymm4, %ymm5
	vaddps	%ymm0, %ymm4, %ymm0
	vmulps	%ymm3, %ymm0, %ymm12
	vaddps	%ymm1, %ymm4, %ymm14
	vmulps	%ymm3, %ymm5, %ymm0
	vaddps	%ymm0, %ymm4, %ymm0
	vmulps	%ymm3, %ymm0, %ymm0
	vmulps	%ymm3, %ymm2, %ymm1
	vaddps	%ymm0, %ymm4, %ymm0
	vaddps	%ymm11, %ymm4, %ymm2
	vmulps	%ymm3, %ymm10, %ymm5
	vaddps	%ymm5, %ymm4, %ymm5
	vmulps	%ymm3, %ymm5, %ymm5
	vmulps	%ymm3, %ymm9, %ymm6
	vaddps	%ymm6, %ymm4, %ymm6
	vmulps	%ymm3, %ymm6, %ymm9
	vaddps	%ymm5, %ymm4, %ymm10
	vmulps	%ymm3, %ymm2, %ymm11
	vmulps	%ymm3, %ymm0, %ymm13
	vmulps	%ymm3, %ymm8, %ymm0
	vaddps	%ymm1, %ymm4, %ymm1
	vmulps	%ymm3, %ymm14, %ymm2
	vaddps	%ymm12, %ymm4, %ymm5
	vmulps	%ymm3, %ymm5, %ymm5
	vaddps	%ymm5, %ymm4, %ymm5
	vmulps	%ymm3, %ymm5, %ymm5
	vaddps	%ymm5, %ymm4, %ymm5
	vmulps	%ymm3, %ymm5, %ymm5
	vaddps	%ymm5, %ymm4, %ymm5
	vaddps	%ymm2, %ymm4, %ymm8
	vmulps	%ymm3, %ymm5, %ymm2
	vaddps	%ymm2, %ymm4, %ymm2
	vmulps	%ymm3, %ymm2, %ymm2
	vmulps	%ymm3, %ymm1, %ymm1
	vaddps	%ymm1, %ymm4, %ymm14
	vaddps	%ymm2, %ymm4, %ymm2
	vaddps	%ymm0, %ymm4, %ymm15
	vaddps	%ymm13, %ymm4, %ymm1
	vaddps	%ymm11, %ymm4, %ymm5
	vmulps	%ymm3, %ymm10, %ymm6
	vaddps	%ymm9, %ymm4, %ymm0
	vmulps	%ymm3, %ymm0, %ymm0
	vaddps	%ymm0, %ymm4, %ymm0
	vmulps	%ymm3, %ymm0, %ymm0
	vaddps	%ymm0, %ymm4, %ymm0
	vmulps	%ymm3, %ymm0, %ymm0
	vaddps	%ymm0, %ymm4, %ymm0
	vaddps	%ymm6, %ymm4, %ymm11
	vmulps	%ymm3, %ymm5, %ymm12
	vmulps	%ymm3, %ymm1, %ymm13
	vmulps	%ymm3, %ymm15, %ymm9
	vmulps	%ymm3, %ymm2, %ymm5
	vmulps	%ymm3, %ymm14, %ymm1
	vmulps	%ymm3, %ymm8, %ymm2
	vaddps	%ymm2, %ymm4, %ymm2
	vmulps	%ymm3, %ymm2, %ymm2
	vaddps	%ymm2, %ymm4, %ymm2
	vmulps	%ymm3, %ymm2, %ymm2
	vaddps	%ymm2, %ymm4, %ymm2
	vmulps	%ymm3, %ymm2, %ymm2
	vaddps	%ymm1, %ymm4, %ymm1
	vaddps	%ymm5, %ymm4, %ymm5
	vmulps	%ymm3, %ymm0, %ymm0
	vaddps	%ymm0, %ymm4, %ymm0
	vaddps	%ymm9, %ymm4, %ymm6
	vmulps	%ymm3, %ymm6, %ymm6
	vaddps	%ymm6, %ymm4, %ymm6
	vmulps	%ymm3, %ymm6, %ymm8
	vmulps	%ymm3, %ymm0, %ymm9
	vmulps	%ymm3, %ymm5, %ymm10
	vaddps	%ymm13, %ymm4, %ymm13
	vaddps	%ymm12, %ymm4, %ymm12
	vmulps	%ymm3, %ymm11, %ymm11
	vmulps	%ymm3, %ymm1, %ymm0
	vaddps	%ymm2, %ymm4, %ymm1
	vmulps	%ymm3, %ymm1, %ymm1
	vaddps	%ymm1, %ymm4, %ymm1
	vmulps	%ymm3, %ymm1, %ymm1
	vaddps	%ymm1, %ymm4, %ymm1
	vmulps	%ymm3, %ymm1, %ymm1
	vaddps	%ymm1, %ymm4, %ymm1
	vaddps	%ymm0, %ymm4, %ymm0
	vmulps	%ymm3, %ymm1, %ymm1
	vaddps	%ymm1, %ymm4, %ymm1
	vmulps	%ymm3, %ymm1, %ymm1
	vaddps	%ymm1, %ymm4, %ymm1
	vaddps	%ymm11, %ymm4, %ymm2
	vmulps	%ymm3, %ymm2, %ymm2
	vaddps	%ymm2, %ymm4, %ymm5
	vmulps	%ymm3, %ymm1, %ymm1
	vmulps	%ymm3, %ymm12, %ymm2
	vaddps	%ymm2, %ymm4, %ymm11
	vmulps	%ymm3, %ymm13, %ymm12
	vaddps	%ymm1, %ymm4, %ymm2
	vaddps	%ymm10, %ymm4, %ymm10
	vaddps	%ymm9, %ymm4, %ymm9
	vaddps	%ymm8, %ymm4, %ymm1
	vmulps	%ymm3, %ymm5, %ymm5
	vmulps	%ymm3, %ymm0, %ymm0
	vaddps	%ymm0, %ymm4, %ymm0
	vmulps	%ymm3, %ymm0, %ymm0
	vaddps	%ymm0, %ymm4, %ymm0
	vmulps	%ymm3, %ymm0, %ymm0
	vaddps	%ymm0, %ymm4, %ymm0
	vmulps	%ymm3, %ymm0, %ymm0
	vaddps	%ymm5, %ymm4, %ymm13
	vmulps	%ymm3, %ymm1, %ymm1
	vmulps	%ymm3, %ymm9, %ymm5
	vmulps	%ymm3, %ymm10, %ymm6
	vaddps	%ymm12, %ymm4, %ymm8
	vmulps	%ymm3, %ymm2, %ymm2
	vmulps	%ymm3, %ymm11, %ymm7
	vaddps	%ymm7, %ymm4, %ymm7
	vmulps	%ymm3, %ymm7, %ymm7
	vaddps	%ymm7, %ymm4, %ymm7
	vmulps	%ymm3, %ymm7, %ymm9
	vaddps	%ymm2, %ymm4, %ymm10
	vaddps	%ymm6, %ymm4, %ymm11
	vaddps	%ymm5, %ymm4, %ymm14
	vaddps	%ymm1, %ymm4, %ymm1
	vmulps	%ymm3, %ymm13, %ymm2
	vaddps	%ymm0, %ymm4, %ymm0
	vmulps	%ymm3, %ymm0, %ymm0
	vaddps	%ymm0, %ymm4, %ymm0
	vmulps	%ymm3, %ymm0, %ymm0
	vaddps	%ymm0, %ymm4, %ymm0
	vmulps	%ymm3, %ymm0, %ymm0
	vaddps	%ymm0, %ymm4, %ymm0
	vaddps	%ymm2, %ymm4, %ymm2
	vmulps	%ymm3, %ymm2, %ymm2
	vmulps	%ymm3, %ymm1, %ymm1
	vaddps	%ymm1, %ymm4, %ymm1
	vmulps	%ymm3, %ymm1, %ymm1
	vaddps	%ymm1, %ymm4, %ymm12
	vaddps	%ymm2, %ymm4, %ymm13
	vmulps	%ymm3, %ymm0, %ymm0
	vmulps	%ymm3, %ymm14, %ymm2
	vmulps	%ymm3, %ymm11, %ymm1
	vmulps	%ymm3, %ymm10, %ymm5
	vaddps	%ymm9, %ymm4, %ymm6
	vmulps	%ymm3, %ymm8, %ymm7
	vaddps	%ymm7, %ymm4, %ymm7
	vmulps	%ymm3, %ymm7, %ymm7
	vaddps	%ymm7, %ymm4, %ymm7
	vmulps	%ymm3, %ymm7, %ymm7
	vaddps	%ymm7, %ymm4, %ymm7
	vmulps	%ymm3, %ymm7, %ymm8
	vmulps	%ymm3, %ymm6, %ymm10
	vaddps	%ymm5, %ymm4, %ymm11
	vaddps	%ymm1, %ymm4, %ymm9
	vaddps	%ymm2, %ymm4, %ymm1
	vaddps	%ymm0, %ymm4, %ymm0
	vmulps	%ymm3, %ymm13, %ymm5
	vmulps	%ymm3, %ymm12, %ymm2
	vaddps	%ymm2, %ymm4, %ymm2
	vmulps	%ymm3, %ymm2, %ymm2
	vaddps	%ymm2, %ymm4, %ymm2
	vmulps	%ymm3, %ymm2, %ymm2
	vaddps	%ymm2, %ymm4, %ymm2
	vmulps	%ymm3, %ymm2, %ymm2
	vaddps	%ymm5, %ymm4, %ymm5
	vmulps	%ymm3, %ymm0, %ymm6
	vmulps	%ymm3, %ymm1, %ymm0
	vaddps	%ymm0, %ymm4, %ymm0
	vmulps	%ymm3, %ymm0, %ymm0
	vaddps	%ymm0, %ymm4, %ymm0
	vmulps	%ymm3, %ymm0, %ymm0
	vmulps	%ymm3, %ymm9, %ymm9
	vaddps	%ymm6, %ymm4, %ymm13
	vmulps	%ymm3, %ymm11, %ymm1
	vmulps	%ymm3, %ymm5, %ymm5
	vaddps	%ymm5, %ymm4, %ymm5
	vmulps	%ymm3, %ymm5, %ymm5
	vaddps	%ymm5, %ymm4, %ymm11
	vaddps	%ymm2, %ymm4, %ymm12
	vaddps	%ymm10, %ymm4, %ymm2
	vaddps	%ymm8, %ymm4, %ymm8
	vaddps	%ymm1, %ymm4, %ymm1
	vmulps	%ymm3, %ymm1, %ymm1
	vaddps	%ymm1, %ymm4, %ymm1
	vmulps	%ymm3, %ymm1, %ymm1
	vaddps	%ymm1, %ymm4, %ymm1
	vmulps	%ymm3, %ymm13, %ymm5
	vaddps	%ymm0, %ymm4, %ymm6
	vmulps	%ymm3, %ymm8, %ymm0
	vaddps	%ymm0, %ymm4, %ymm0
	vmulps	%ymm3, %ymm0, %ymm0
	vaddps	%ymm0, %ymm4, %ymm0
	vmulps	%ymm3, %ymm0, %ymm0
	vaddps	%ymm0, %ymm4, %ymm0
	vmulps	%ymm3, %ymm2, %ymm2
	vmulps	%ymm3, %ymm6, %ymm8
	vaddps	%ymm5, %ymm4, %ymm10
	vmulps	%ymm3, %ymm1, %ymm13
	vmulps	%ymm3, %ymm12, %ymm12
	vaddps	%ymm9, %ymm4, %ymm9
	vmulps	%ymm3, %ymm11, %ymm1
	vaddps	%ymm1, %ymm4, %ymm1
	vmulps	%ymm3, %ymm1, %ymm1
	vaddps	%ymm1, %ymm4, %ymm1
	vaddps	%ymm2, %ymm4, %ymm2
	vmulps	%ymm3, %ymm1, %ymm1
	vaddps	%ymm1, %ymm4, %ymm1
	vmulps	%ymm3, %ymm1, %ymm1
	vmulps	%ymm3, %ymm0, %ymm0
	vaddps	%ymm0, %ymm4, %ymm0
	vmulps	%ymm3, %ymm0, %ymm0
	vaddps	%ymm0, %ymm4, %ymm0
	vaddps	%ymm12, %ymm4, %ymm5
	vmulps	%ymm3, %ymm5, %ymm11
	vmulps	%ymm3, %ymm0, %ymm14
	vaddps	%ymm1, %ymm4, %ymm0
	vaddps	%ymm13, %ymm4, %ymm13
	vmulps	%ymm3, %ymm10, %ymm1
	vaddps	%ymm8, %ymm4, %ymm5
	vmulps	%ymm3, %ymm2, %ymm2
	vmulps	%ymm3, %ymm9, %ymm6
	vaddps	%ymm6, %ymm4, %ymm6
	vmulps	%ymm3, %ymm6, %ymm6
	vaddps	%ymm6, %ymm4, %ymm6
	vmulps	%ymm3, %ymm6, %ymm6
	vaddps	%ymm6, %ymm4, %ymm6
	vmulps	%ymm3, %ymm6, %ymm12
	vaddps	%ymm2, %ymm4, %ymm2
	vmulps	%ymm3, %ymm5, %ymm15
	vaddps	%ymm1, %ymm4, %ymm1
	vmulps	%ymm3, %ymm13, %ymm5
	vmulps	%ymm3, %ymm0, %ymm0
	vaddps	%ymm14, %ymm4, %ymm6
	vaddps	%ymm11, %ymm4, %ymm7
	vmulps	%ymm3, %ymm7, %ymm7
	vaddps	%ymm7, %ymm4, %ymm7
	vmulps	%ymm3, %ymm7, %ymm7
	vaddps	%ymm7, %ymm4, %ymm7
	vmulps	%ymm3, %ymm7, %ymm8
	vmulps	%ymm3, %ymm6, %ymm9
	vaddps	%ymm0, %ymm4, %ymm10
	vaddps	%ymm5, %ymm4, %ymm0
	vmulps	%ymm3, %ymm1, %ymm13
	vaddps	%ymm15, %ymm4, %ymm11
	vmulps	%ymm3, %ymm2, %ymm1
	vaddps	%ymm12, %ymm4, %ymm2
	vmulps	%ymm3, %ymm2, %ymm2
	vaddps	%ymm2, %ymm4, %ymm2
	vmulps	%ymm3, %ymm2, %ymm2
	vaddps	%ymm2, %ymm4, %ymm2
	vmulps	%ymm3, %ymm2, %ymm2
	vaddps	%ymm2, %ymm4, %ymm2
	vaddps	%ymm1, %ymm4, %ymm1
	vmulps	%ymm3, %ymm1, %ymm1
	vmulps	%ymm3, %ymm2, %ymm6
	vmulps	%ymm3, %ymm11, %ymm2
	vaddps	%ymm2, %ymm4, %ymm11
	vaddps	%ymm13, %ymm4, %ymm13
	vmulps	%ymm3, %ymm0, %ymm2
	vmulps	%ymm3, %ymm10, %ymm10
	vaddps	%ymm9, %ymm4, %ymm5
	vaddps	%ymm6, %ymm4, %ymm6
	vaddps	%ymm8, %ymm4, %ymm0
	vmulps	%ymm3, %ymm0, %ymm0
	vaddps	%ymm0, %ymm4, %ymm7
	vaddps	%ymm1, %ymm4, %ymm0
	vmulps	%ymm3, %ymm0, %ymm0
	vaddps	%ymm0, %ymm4, %ymm0
	vmulps	%ymm3, %ymm7, %ymm14
	vmulps	%ymm3, %ymm6, %ymm1
	vmulps	%ymm3, %ymm5, %ymm5
	vaddps	%ymm5, %ymm4, %ymm5
	vmulps	%ymm3, %ymm5, %ymm12
	vaddps	%ymm10, %ymm4, %ymm9
	vaddps	%ymm2, %ymm4, %ymm10
	vmulps	%ymm3, %ymm13, %ymm2
	vmulps	%ymm3, %ymm11, %ymm8
	vaddps	%ymm1, %ymm4, %ymm1
	vmulps	%ymm3, %ymm1, %ymm1
	vaddps	%ymm1, %ymm4, %ymm1
	vmulps	%ymm3, %ymm1, %ymm1
	vaddps	%ymm1, %ymm4, %ymm1
	vaddps	%ymm14, %ymm4, %ymm5
	vmulps	%ymm3, %ymm5, %ymm5
	vmulps	%ymm3, %ymm0, %ymm0
	vaddps	%ymm0, %ymm4, %ymm0
	vmulps	%ymm3, %ymm0, %ymm0
	vaddps	%ymm0, %ymm4, %ymm13
	vaddps	%ymm5, %ymm4, %ymm14
	vmulps	%ymm3, %ymm1, %ymm1
	vaddps	%ymm12, %ymm4, %ymm0
	vaddps	%ymm2, %ymm4, %ymm2
	vmulps	%ymm3, %ymm2, %ymm2
	vaddps	%ymm2, %ymm4, %ymm2
	vmulps	%ymm3, %ymm2, %ymm2
	vaddps	%ymm2, %ymm4, %ymm11
	vmulps	%ymm3, %ymm0, %ymm0
	vmulps	%ymm3, %ymm10, %ymm12
	vaddps	%ymm1, %ymm4, %ymm1
	vmulps	%ymm3, %ymm9, %ymm5
	vmulps	%ymm3, %ymm14, %ymm2
	vmulps	%ymm3, %ymm13, %ymm6
	vaddps	%ymm6, %ymm4, %ymm6
	vaddps	%ymm8, %ymm4, %ymm7
	vmulps	%ymm3, %ymm7, %ymm7
	vaddps	%ymm7, %ymm4, %ymm7
	vmulps	%ymm3, %ymm7, %ymm9
	vmulps	%ymm3, %ymm6, %ymm10
	vaddps	%ymm2, %ymm4, %ymm2
	vaddps	%ymm5, %ymm4, %ymm13
	vaddps	%ymm12, %ymm4, %ymm8
	vmulps	%ymm3, %ymm1, %ymm1
	vaddps	%ymm1, %ymm4, %ymm1
	vaddps	%ymm0, %ymm4, %ymm0
	vmulps	%ymm3, %ymm11, %ymm5
	vaddps	%ymm5, %ymm4, %ymm5
	vmulps	%ymm3, %ymm5, %ymm5
	vaddps	%ymm5, %ymm4, %ymm5
	vmulps	%ymm3, %ymm5, %ymm5
	vaddps	%ymm5, %ymm4, %ymm5
	vmulps	%ymm3, %ymm5, %ymm12
	vmulps	%ymm3, %ymm0, %ymm0
	vmulps	%ymm3, %ymm1, %ymm11
	vmulps	%ymm3, %ymm13, %ymm13
	vmulps	%ymm3, %ymm2, %ymm5
	vaddps	%ymm10, %ymm4, %ymm2
	vaddps	%ymm9, %ymm4, %ymm1
	vmulps	%ymm3, %ymm1, %ymm1
